
me.elf:     file format elf32-littleriscv


Disassembly of section .text:

00000000 <_start>:
       0:	00014297          	auipc	t0,0x14
       4:	59028293          	addi	t0,t0,1424 # 14590 <trap_handler>
       8:	30529073          	csrw	mtvec,t0
       c:	3050e073          	csrsi	mtvec,1
      10:	00022297          	auipc	t0,0x22
      14:	87428293          	addi	t0,t0,-1932 # 21884 <_PathLocale>
      18:	00022317          	auipc	t1,0x22
      1c:	8ac30313          	addi	t1,t1,-1876 # 218c4 <_bss_end>

00000020 <_bss_clear>:
      20:	0002a023          	sw	zero,0(t0)
      24:	00428293          	addi	t0,t0,4
      28:	fe62ece3          	bltu	t0,t1,20 <_bss_clear>
      2c:	00040117          	auipc	sp,0x40
      30:	fd410113          	addi	sp,sp,-44 # 40000 <_stack>
      34:	05c000ef          	jal	ra,90 <main>
      38:	0691406f          	j	148a0 <exit>

0000003c <majorityElement>:
      3c:	00050613          	mv	a2,a0
      40:	00052503          	lw	a0,0(a0)
      44:	00100793          	li	a5,1
      48:	04b7d263          	bge	a5,a1,8c <majorityElement+0x50>
      4c:	00460793          	addi	a5,a2,4
      50:	00259593          	slli	a1,a1,0x2
      54:	00b60633          	add	a2,a2,a1
      58:	00100713          	li	a4,1
      5c:	0100006f          	j	6c <majorityElement+0x30>
      60:	00170713          	addi	a4,a4,1
      64:	00478793          	addi	a5,a5,4
      68:	02c78263          	beq	a5,a2,8c <majorityElement+0x50>
      6c:	0007a683          	lw	a3,0(a5)
      70:	fea688e3          	beq	a3,a0,60 <majorityElement+0x24>
      74:	00070663          	beqz	a4,80 <majorityElement+0x44>
      78:	fff70713          	addi	a4,a4,-1
      7c:	fe9ff06f          	j	64 <majorityElement+0x28>
      80:	00068513          	mv	a0,a3
      84:	00100713          	li	a4,1
      88:	fddff06f          	j	64 <majorityElement+0x28>
      8c:	00008067          	ret

00000090 <main>:
      90:	fc010113          	addi	sp,sp,-64
      94:	02112e23          	sw	ra,60(sp)
      98:	000207b7          	lui	a5,0x20
      9c:	05878793          	addi	a5,a5,88 # 20058 <__malloc_trim_threshold+0x20>
      a0:	0007ae03          	lw	t3,0(a5)
      a4:	0047a303          	lw	t1,4(a5)
      a8:	0087a883          	lw	a7,8(a5)
      ac:	00c7a803          	lw	a6,12(a5)
      b0:	0107a503          	lw	a0,16(a5)
      b4:	0147a583          	lw	a1,20(a5)
      b8:	0187a603          	lw	a2,24(a5)
      bc:	01c7a683          	lw	a3,28(a5)
      c0:	0207a703          	lw	a4,32(a5)
      c4:	0247a783          	lw	a5,36(a5)
      c8:	01c12423          	sw	t3,8(sp)
      cc:	00612623          	sw	t1,12(sp)
      d0:	01112823          	sw	a7,16(sp)
      d4:	01012a23          	sw	a6,20(sp)
      d8:	00a12c23          	sw	a0,24(sp)
      dc:	00b12e23          	sw	a1,28(sp)
      e0:	02c12023          	sw	a2,32(sp)
      e4:	02d12223          	sw	a3,36(sp)
      e8:	02e12423          	sw	a4,40(sp)
      ec:	02f12623          	sw	a5,44(sp)
      f0:	00a00593          	li	a1,10
      f4:	00810513          	addi	a0,sp,8
      f8:	f45ff0ef          	jal	ra,3c <majorityElement>
      fc:	00050593          	mv	a1,a0
     100:	00020537          	lui	a0,0x20
     104:	03c50513          	addi	a0,a0,60 # 2003c <__malloc_trim_threshold+0x4>
     108:	054000ef          	jal	ra,15c <printf>
     10c:	00000513          	li	a0,0
     110:	03c12083          	lw	ra,60(sp)
     114:	04010113          	addi	sp,sp,64
     118:	00008067          	ret

0000011c <_printf_r>:
     11c:	fc010113          	addi	sp,sp,-64
     120:	02c12423          	sw	a2,40(sp)
     124:	02d12623          	sw	a3,44(sp)
     128:	02e12823          	sw	a4,48(sp)
     12c:	02f12a23          	sw	a5,52(sp)
     130:	03012c23          	sw	a6,56(sp)
     134:	03112e23          	sw	a7,60(sp)
     138:	00058613          	mv	a2,a1
     13c:	00852583          	lw	a1,8(a0)
     140:	02810693          	addi	a3,sp,40
     144:	00112e23          	sw	ra,28(sp)
     148:	00d12623          	sw	a3,12(sp)
     14c:	060000ef          	jal	ra,1ac <_vfprintf_r>
     150:	01c12083          	lw	ra,28(sp)
     154:	04010113          	addi	sp,sp,64
     158:	00008067          	ret

0000015c <printf>:
     15c:	fc010113          	addi	sp,sp,-64
     160:	02c12423          	sw	a2,40(sp)
     164:	02d12623          	sw	a3,44(sp)
     168:	00020317          	auipc	t1,0x20
     16c:	ec832303          	lw	t1,-312(t1) # 20030 <_impure_ptr>
     170:	02b12223          	sw	a1,36(sp)
     174:	02e12823          	sw	a4,48(sp)
     178:	02f12a23          	sw	a5,52(sp)
     17c:	03012c23          	sw	a6,56(sp)
     180:	03112e23          	sw	a7,60(sp)
     184:	00832583          	lw	a1,8(t1)
     188:	02410693          	addi	a3,sp,36
     18c:	00050613          	mv	a2,a0
     190:	00030513          	mv	a0,t1
     194:	00112e23          	sw	ra,28(sp)
     198:	00d12623          	sw	a3,12(sp)
     19c:	010000ef          	jal	ra,1ac <_vfprintf_r>
     1a0:	01c12083          	lw	ra,28(sp)
     1a4:	04010113          	addi	sp,sp,64
     1a8:	00008067          	ret

000001ac <_vfprintf_r>:
     1ac:	e0010113          	addi	sp,sp,-512
     1b0:	1e112e23          	sw	ra,508(sp)
     1b4:	1f212823          	sw	s2,496(sp)
     1b8:	1d812c23          	sw	s8,472(sp)
     1bc:	1da12823          	sw	s10,464(sp)
     1c0:	00058c13          	mv	s8,a1
     1c4:	00060913          	mv	s2,a2
     1c8:	00d12a23          	sw	a3,20(sp)
     1cc:	1e812c23          	sw	s0,504(sp)
     1d0:	1e912a23          	sw	s1,500(sp)
     1d4:	1f312623          	sw	s3,492(sp)
     1d8:	1f412423          	sw	s4,488(sp)
     1dc:	1f512223          	sw	s5,484(sp)
     1e0:	1f612023          	sw	s6,480(sp)
     1e4:	1d712e23          	sw	s7,476(sp)
     1e8:	1d912a23          	sw	s9,468(sp)
     1ec:	1db12623          	sw	s11,460(sp)
     1f0:	00050d13          	mv	s10,a0
     1f4:	4e0060ef          	jal	ra,66d4 <_localeconv_r>
     1f8:	00052783          	lw	a5,0(a0)
     1fc:	00078513          	mv	a0,a5
     200:	02f12623          	sw	a5,44(sp)
     204:	1b9080ef          	jal	ra,8bbc <strlen>
     208:	02a12423          	sw	a0,40(sp)
     20c:	10012023          	sw	zero,256(sp)
     210:	10012223          	sw	zero,260(sp)
     214:	10012423          	sw	zero,264(sp)
     218:	10012623          	sw	zero,268(sp)
     21c:	000d0663          	beqz	s10,228 <_vfprintf_r+0x7c>
     220:	038d2783          	lw	a5,56(s10)
     224:	0e0788e3          	beqz	a5,b14 <_vfprintf_r+0x968>
     228:	00cc1703          	lh	a4,12(s8)
     22c:	000026b7          	lui	a3,0x2
     230:	01071793          	slli	a5,a4,0x10
     234:	0107d793          	srli	a5,a5,0x10
     238:	00d7f633          	and	a2,a5,a3
     23c:	02061863          	bnez	a2,26c <_vfprintf_r+0xc0>
     240:	064c2603          	lw	a2,100(s8)
     244:	00d767b3          	or	a5,a4,a3
     248:	01079793          	slli	a5,a5,0x10
     24c:	ffffe737          	lui	a4,0xffffe
     250:	4107d793          	srai	a5,a5,0x10
     254:	fff70713          	addi	a4,a4,-1 # ffffdfff <_stack+0xfffbdfff>
     258:	00e67733          	and	a4,a2,a4
     25c:	00fc1623          	sh	a5,12(s8)
     260:	01079793          	slli	a5,a5,0x10
     264:	06ec2223          	sw	a4,100(s8)
     268:	0107d793          	srli	a5,a5,0x10
     26c:	0087f713          	andi	a4,a5,8
     270:	2e070063          	beqz	a4,550 <_vfprintf_r+0x3a4>
     274:	010c2703          	lw	a4,16(s8)
     278:	2c070c63          	beqz	a4,550 <_vfprintf_r+0x3a4>
     27c:	01a7f793          	andi	a5,a5,26
     280:	00a00713          	li	a4,10
     284:	2ee78863          	beq	a5,a4,574 <_vfprintf_r+0x3c8>
     288:	11c10793          	addi	a5,sp,284
     28c:	00090b93          	mv	s7,s2
     290:	0ef12a23          	sw	a5,244(sp)
     294:	00078893          	mv	a7,a5
     298:	000bc783          	lbu	a5,0(s7)
     29c:	0e012e23          	sw	zero,252(sp)
     2a0:	0e012c23          	sw	zero,248(sp)
     2a4:	00012e23          	sw	zero,28(sp)
     2a8:	02012823          	sw	zero,48(sp)
     2ac:	02012a23          	sw	zero,52(sp)
     2b0:	02012c23          	sw	zero,56(sp)
     2b4:	04012223          	sw	zero,68(sp)
     2b8:	04012423          	sw	zero,72(sp)
     2bc:	00012623          	sw	zero,12(sp)
     2c0:	01000a13          	li	s4,16
     2c4:	22078863          	beqz	a5,4f4 <_vfprintf_r+0x348>
     2c8:	000b8413          	mv	s0,s7
     2cc:	02500713          	li	a4,37
     2d0:	30e78c63          	beq	a5,a4,5e8 <_vfprintf_r+0x43c>
     2d4:	00144783          	lbu	a5,1(s0)
     2d8:	00140413          	addi	s0,s0,1
     2dc:	fe079ae3          	bnez	a5,2d0 <_vfprintf_r+0x124>
     2e0:	417404b3          	sub	s1,s0,s7
     2e4:	21740863          	beq	s0,s7,4f4 <_vfprintf_r+0x348>
     2e8:	0fc12703          	lw	a4,252(sp)
     2ec:	0f812783          	lw	a5,248(sp)
     2f0:	0178a023          	sw	s7,0(a7)
     2f4:	00970733          	add	a4,a4,s1
     2f8:	00178793          	addi	a5,a5,1
     2fc:	0098a223          	sw	s1,4(a7)
     300:	0ee12e23          	sw	a4,252(sp)
     304:	0ef12c23          	sw	a5,248(sp)
     308:	00700713          	li	a4,7
     30c:	00888893          	addi	a7,a7,8
     310:	2ef74463          	blt	a4,a5,5f8 <_vfprintf_r+0x44c>
     314:	00c12703          	lw	a4,12(sp)
     318:	00044783          	lbu	a5,0(s0)
     31c:	00970733          	add	a4,a4,s1
     320:	00e12623          	sw	a4,12(sp)
     324:	1c078863          	beqz	a5,4f4 <_vfprintf_r+0x348>
     328:	00144483          	lbu	s1,1(s0)
     32c:	0c010ba3          	sb	zero,215(sp)
     330:	00140413          	addi	s0,s0,1
     334:	fff00c93          	li	s9,-1
     338:	00000993          	li	s3,0
     33c:	00000a93          	li	s5,0
     340:	00900913          	li	s2,9
     344:	02a00b13          	li	s6,42
     348:	00088d93          	mv	s11,a7
     34c:	00140413          	addi	s0,s0,1
     350:	05a00713          	li	a4,90
     354:	fe048793          	addi	a5,s1,-32
     358:	04f76863          	bltu	a4,a5,3a8 <_vfprintf_r+0x1fc>
     35c:	00020697          	auipc	a3,0x20
     360:	d6868693          	addi	a3,a3,-664 # 200c4 <__malloc_trim_threshold+0x8c>
     364:	00279793          	slli	a5,a5,0x2
     368:	00d787b3          	add	a5,a5,a3
     36c:	0007a783          	lw	a5,0(a5)
     370:	00d787b3          	add	a5,a5,a3
     374:	00078067          	jr	a5
     378:	00000993          	li	s3,0
     37c:	fd048613          	addi	a2,s1,-48
     380:	00044483          	lbu	s1,0(s0)
     384:	00299793          	slli	a5,s3,0x2
     388:	013787b3          	add	a5,a5,s3
     38c:	00179793          	slli	a5,a5,0x1
     390:	00f609b3          	add	s3,a2,a5
     394:	fd048613          	addi	a2,s1,-48
     398:	00140413          	addi	s0,s0,1
     39c:	fec972e3          	bgeu	s2,a2,380 <_vfprintf_r+0x1d4>
     3a0:	fe048793          	addi	a5,s1,-32
     3a4:	faf77ce3          	bgeu	a4,a5,35c <_vfprintf_r+0x1b0>
     3a8:	000d8893          	mv	a7,s11
     3ac:	14048463          	beqz	s1,4f4 <_vfprintf_r+0x348>
     3b0:	14910e23          	sb	s1,348(sp)
     3b4:	0c010ba3          	sb	zero,215(sp)
     3b8:	00100b13          	li	s6,1
     3bc:	00100913          	li	s2,1
     3c0:	15c10b93          	addi	s7,sp,348
     3c4:	00012823          	sw	zero,16(sp)
     3c8:	00000c93          	li	s9,0
     3cc:	02012223          	sw	zero,36(sp)
     3d0:	02012023          	sw	zero,32(sp)
     3d4:	00012c23          	sw	zero,24(sp)
     3d8:	002aff13          	andi	t5,s5,2
     3dc:	000f0463          	beqz	t5,3e4 <_vfprintf_r+0x238>
     3e0:	002b0b13          	addi	s6,s6,2
     3e4:	084afe93          	andi	t4,s5,132
     3e8:	0fc12783          	lw	a5,252(sp)
     3ec:	000e9663          	bnez	t4,3f8 <_vfprintf_r+0x24c>
     3f0:	416986b3          	sub	a3,s3,s6
     3f4:	62d048e3          	bgtz	a3,1224 <_vfprintf_r+0x1078>
     3f8:	0d714703          	lbu	a4,215(sp)
     3fc:	02070a63          	beqz	a4,430 <_vfprintf_r+0x284>
     400:	0f812703          	lw	a4,248(sp)
     404:	0d710693          	addi	a3,sp,215
     408:	00d8a023          	sw	a3,0(a7)
     40c:	00178793          	addi	a5,a5,1
     410:	00100693          	li	a3,1
     414:	00170713          	addi	a4,a4,1
     418:	00d8a223          	sw	a3,4(a7)
     41c:	0ef12e23          	sw	a5,252(sp)
     420:	0ee12c23          	sw	a4,248(sp)
     424:	00700693          	li	a3,7
     428:	00888893          	addi	a7,a7,8
     42c:	4ee6c063          	blt	a3,a4,90c <_vfprintf_r+0x760>
     430:	020f0a63          	beqz	t5,464 <_vfprintf_r+0x2b8>
     434:	0f812703          	lw	a4,248(sp)
     438:	0d810693          	addi	a3,sp,216
     43c:	00d8a023          	sw	a3,0(a7)
     440:	00278793          	addi	a5,a5,2
     444:	00200693          	li	a3,2
     448:	00170713          	addi	a4,a4,1
     44c:	00d8a223          	sw	a3,4(a7)
     450:	0ef12e23          	sw	a5,252(sp)
     454:	0ee12c23          	sw	a4,248(sp)
     458:	00700693          	li	a3,7
     45c:	00888893          	addi	a7,a7,8
     460:	6ee6c6e3          	blt	a3,a4,134c <_vfprintf_r+0x11a0>
     464:	08000713          	li	a4,128
     468:	42ee80e3          	beq	t4,a4,1088 <_vfprintf_r+0xedc>
     46c:	412c8cb3          	sub	s9,s9,s2
     470:	4d904ce3          	bgtz	s9,1148 <_vfprintf_r+0xf9c>
     474:	100af713          	andi	a4,s5,256
     478:	2c071ce3          	bnez	a4,f50 <_vfprintf_r+0xda4>
     47c:	0f812703          	lw	a4,248(sp)
     480:	012787b3          	add	a5,a5,s2
     484:	0178a023          	sw	s7,0(a7)
     488:	00170713          	addi	a4,a4,1
     48c:	0128a223          	sw	s2,4(a7)
     490:	0ef12e23          	sw	a5,252(sp)
     494:	0ee12c23          	sw	a4,248(sp)
     498:	00700693          	li	a3,7
     49c:	5ae6ca63          	blt	a3,a4,a50 <_vfprintf_r+0x8a4>
     4a0:	00888893          	addi	a7,a7,8
     4a4:	004afa93          	andi	s5,s5,4
     4a8:	000a8663          	beqz	s5,4b4 <_vfprintf_r+0x308>
     4ac:	416984b3          	sub	s1,s3,s6
     4b0:	5c904063          	bgtz	s1,a70 <_vfprintf_r+0x8c4>
     4b4:	0169d463          	bge	s3,s6,4bc <_vfprintf_r+0x310>
     4b8:	000b0993          	mv	s3,s6
     4bc:	00c12703          	lw	a4,12(sp)
     4c0:	01370733          	add	a4,a4,s3
     4c4:	00e12623          	sw	a4,12(sp)
     4c8:	52079ae3          	bnez	a5,11fc <_vfprintf_r+0x1050>
     4cc:	01012783          	lw	a5,16(sp)
     4d0:	0e012c23          	sw	zero,248(sp)
     4d4:	00078863          	beqz	a5,4e4 <_vfprintf_r+0x338>
     4d8:	01012583          	lw	a1,16(sp)
     4dc:	000d0513          	mv	a0,s10
     4e0:	1a0030ef          	jal	ra,3680 <_free_r>
     4e4:	11c10893          	addi	a7,sp,284
     4e8:	00040b93          	mv	s7,s0
     4ec:	000bc783          	lbu	a5,0(s7)
     4f0:	dc079ce3          	bnez	a5,2c8 <_vfprintf_r+0x11c>
     4f4:	0fc12783          	lw	a5,252(sp)
     4f8:	00078463          	beqz	a5,500 <_vfprintf_r+0x354>
     4fc:	3010106f          	j	1ffc <_vfprintf_r+0x1e50>
     500:	00cc5783          	lhu	a5,12(s8)
     504:	0407f793          	andi	a5,a5,64
     508:	00078463          	beqz	a5,510 <_vfprintf_r+0x364>
     50c:	2e40206f          	j	27f0 <_vfprintf_r+0x2644>
     510:	1fc12083          	lw	ra,508(sp)
     514:	1f812403          	lw	s0,504(sp)
     518:	00c12503          	lw	a0,12(sp)
     51c:	1f412483          	lw	s1,500(sp)
     520:	1f012903          	lw	s2,496(sp)
     524:	1ec12983          	lw	s3,492(sp)
     528:	1e812a03          	lw	s4,488(sp)
     52c:	1e412a83          	lw	s5,484(sp)
     530:	1e012b03          	lw	s6,480(sp)
     534:	1dc12b83          	lw	s7,476(sp)
     538:	1d812c03          	lw	s8,472(sp)
     53c:	1d412c83          	lw	s9,468(sp)
     540:	1d012d03          	lw	s10,464(sp)
     544:	1cc12d83          	lw	s11,460(sp)
     548:	20010113          	addi	sp,sp,512
     54c:	00008067          	ret
     550:	000c0593          	mv	a1,s8
     554:	000d0513          	mv	a0,s10
     558:	794020ef          	jal	ra,2cec <__swsetup_r>
     55c:	00050463          	beqz	a0,564 <_vfprintf_r+0x3b8>
     560:	2900206f          	j	27f0 <_vfprintf_r+0x2644>
     564:	00cc5783          	lhu	a5,12(s8)
     568:	00a00713          	li	a4,10
     56c:	01a7f793          	andi	a5,a5,26
     570:	d0e79ce3          	bne	a5,a4,288 <_vfprintf_r+0xdc>
     574:	00ec1783          	lh	a5,14(s8)
     578:	d007c8e3          	bltz	a5,288 <_vfprintf_r+0xdc>
     57c:	01412683          	lw	a3,20(sp)
     580:	00090613          	mv	a2,s2
     584:	000c0593          	mv	a1,s8
     588:	000d0513          	mv	a0,s10
     58c:	6a0020ef          	jal	ra,2c2c <__sbprintf>
     590:	00a12623          	sw	a0,12(sp)
     594:	f7dff06f          	j	510 <_vfprintf_r+0x364>
     598:	000d0513          	mv	a0,s10
     59c:	138060ef          	jal	ra,66d4 <_localeconv_r>
     5a0:	00452783          	lw	a5,4(a0)
     5a4:	00078513          	mv	a0,a5
     5a8:	04f12423          	sw	a5,72(sp)
     5ac:	610080ef          	jal	ra,8bbc <strlen>
     5b0:	00050793          	mv	a5,a0
     5b4:	000d0513          	mv	a0,s10
     5b8:	00078493          	mv	s1,a5
     5bc:	04f12223          	sw	a5,68(sp)
     5c0:	114060ef          	jal	ra,66d4 <_localeconv_r>
     5c4:	00852783          	lw	a5,8(a0)
     5c8:	02f12c23          	sw	a5,56(sp)
     5cc:	00048463          	beqz	s1,5d4 <_vfprintf_r+0x428>
     5d0:	08c0106f          	j	165c <_vfprintf_r+0x14b0>
     5d4:	00044483          	lbu	s1,0(s0)
     5d8:	d75ff06f          	j	34c <_vfprintf_r+0x1a0>
     5dc:	00044483          	lbu	s1,0(s0)
     5e0:	020aea93          	ori	s5,s5,32
     5e4:	d69ff06f          	j	34c <_vfprintf_r+0x1a0>
     5e8:	417404b3          	sub	s1,s0,s7
     5ec:	cf741ee3          	bne	s0,s7,2e8 <_vfprintf_r+0x13c>
     5f0:	00044783          	lbu	a5,0(s0)
     5f4:	d31ff06f          	j	324 <_vfprintf_r+0x178>
     5f8:	0f410613          	addi	a2,sp,244
     5fc:	000c0593          	mv	a1,s8
     600:	000d0513          	mv	a0,s10
     604:	2040b0ef          	jal	ra,b808 <__sprint_r>
     608:	ee051ce3          	bnez	a0,500 <_vfprintf_r+0x354>
     60c:	11c10893          	addi	a7,sp,284
     610:	d05ff06f          	j	314 <_vfprintf_r+0x168>
     614:	008af793          	andi	a5,s5,8
     618:	000d8893          	mv	a7,s11
     61c:	00078463          	beqz	a5,624 <_vfprintf_r+0x478>
     620:	0780106f          	j	1698 <_vfprintf_r+0x14ec>
     624:	01412783          	lw	a5,20(sp)
     628:	0c010513          	addi	a0,sp,192
     62c:	01b12823          	sw	s11,16(sp)
     630:	00778793          	addi	a5,a5,7
     634:	ff87f793          	andi	a5,a5,-8
     638:	0007a583          	lw	a1,0(a5)
     63c:	0047a603          	lw	a2,4(a5)
     640:	00878793          	addi	a5,a5,8
     644:	00f12a23          	sw	a5,20(sp)
     648:	169130ef          	jal	ra,13fb0 <__extenddftf2>
     64c:	0c012783          	lw	a5,192(sp)
     650:	01012883          	lw	a7,16(sp)
     654:	10f12023          	sw	a5,256(sp)
     658:	0c412783          	lw	a5,196(sp)
     65c:	10f12223          	sw	a5,260(sp)
     660:	0c812783          	lw	a5,200(sp)
     664:	10f12423          	sw	a5,264(sp)
     668:	0cc12783          	lw	a5,204(sp)
     66c:	10f12623          	sw	a5,268(sp)
     670:	10010513          	addi	a0,sp,256
     674:	01112823          	sw	a7,16(sp)
     678:	7dd050ef          	jal	ra,6654 <_ldcheck>
     67c:	0ca12e23          	sw	a0,220(sp)
     680:	00200793          	li	a5,2
     684:	01012883          	lw	a7,16(sp)
     688:	00f51463          	bne	a0,a5,690 <_vfprintf_r+0x4e4>
     68c:	4540106f          	j	1ae0 <_vfprintf_r+0x1934>
     690:	00100793          	li	a5,1
     694:	00f51463          	bne	a0,a5,69c <_vfprintf_r+0x4f0>
     698:	5f80106f          	j	1c90 <_vfprintf_r+0x1ae4>
     69c:	06100793          	li	a5,97
     6a0:	00f49463          	bne	s1,a5,6a8 <_vfprintf_r+0x4fc>
     6a4:	2740206f          	j	2918 <_vfprintf_r+0x276c>
     6a8:	04100793          	li	a5,65
     6ac:	00f49463          	bne	s1,a5,6b4 <_vfprintf_r+0x508>
     6b0:	1890106f          	j	2038 <_vfprintf_r+0x1e8c>
     6b4:	fdf4f713          	andi	a4,s1,-33
     6b8:	fff00793          	li	a5,-1
     6bc:	02e12e23          	sw	a4,60(sp)
     6c0:	00fc9463          	bne	s9,a5,6c8 <_vfprintf_r+0x51c>
     6c4:	29c0206f          	j	2960 <_vfprintf_r+0x27b4>
     6c8:	04700793          	li	a5,71
     6cc:	00f71463          	bne	a4,a5,6d4 <_vfprintf_r+0x528>
     6d0:	2980206f          	j	2968 <_vfprintf_r+0x27bc>
     6d4:	10c12e03          	lw	t3,268(sp)
     6d8:	05512823          	sw	s5,80(sp)
     6dc:	10012e83          	lw	t4,256(sp)
     6e0:	10412f03          	lw	t5,260(sp)
     6e4:	10812f83          	lw	t6,264(sp)
     6e8:	100ae793          	ori	a5,s5,256
     6ec:	000e5463          	bgez	t3,6f4 <_vfprintf_r+0x548>
     6f0:	6190106f          	j	2508 <_vfprintf_r+0x235c>
     6f4:	06012423          	sw	zero,104(sp)
     6f8:	00078a93          	mv	s5,a5
     6fc:	00012823          	sw	zero,16(sp)
     700:	03c12703          	lw	a4,60(sp)
     704:	04600793          	li	a5,70
     708:	00f71463          	bne	a4,a5,710 <_vfprintf_r+0x564>
     70c:	6410106f          	j	254c <_vfprintf_r+0x23a0>
     710:	04500793          	li	a5,69
     714:	05112023          	sw	a7,64(sp)
     718:	00f71463          	bne	a4,a5,720 <_vfprintf_r+0x574>
     71c:	0e00206f          	j	27fc <_vfprintf_r+0x2650>
     720:	0c010b13          	addi	s6,sp,192
     724:	0e010793          	addi	a5,sp,224
     728:	0dc10713          	addi	a4,sp,220
     72c:	0ec10813          	addi	a6,sp,236
     730:	000c8693          	mv	a3,s9
     734:	00200613          	li	a2,2
     738:	000b0593          	mv	a1,s6
     73c:	000d0513          	mv	a0,s10
     740:	0dd12023          	sw	t4,192(sp)
     744:	03d12223          	sw	t4,36(sp)
     748:	0de12223          	sw	t5,196(sp)
     74c:	03e12023          	sw	t5,32(sp)
     750:	0df12423          	sw	t6,200(sp)
     754:	01f12e23          	sw	t6,28(sp)
     758:	0dc12623          	sw	t3,204(sp)
     75c:	01c12c23          	sw	t3,24(sp)
     760:	475040ef          	jal	ra,53d4 <_ldtoa_r>
     764:	03c12703          	lw	a4,60(sp)
     768:	04700793          	li	a5,71
     76c:	01812e03          	lw	t3,24(sp)
     770:	01c12f83          	lw	t6,28(sp)
     774:	02012f03          	lw	t5,32(sp)
     778:	02412e83          	lw	t4,36(sp)
     77c:	04012883          	lw	a7,64(sp)
     780:	00050b93          	mv	s7,a0
     784:	00f70463          	beq	a4,a5,78c <_vfprintf_r+0x5e0>
     788:	45c0206f          	j	2be4 <_vfprintf_r+0x2a38>
     78c:	05012783          	lw	a5,80(sp)
     790:	0017f793          	andi	a5,a5,1
     794:	00078463          	beqz	a5,79c <_vfprintf_r+0x5f0>
     798:	1bc0206f          	j	2954 <_vfprintf_r+0x27a8>
     79c:	0ec12783          	lw	a5,236(sp)
     7a0:	417787b3          	sub	a5,a5,s7
     7a4:	00f12e23          	sw	a5,28(sp)
     7a8:	0dc12703          	lw	a4,220(sp)
     7ac:	04700793          	li	a5,71
     7b0:	00e12c23          	sw	a4,24(sp)
     7b4:	03c12703          	lw	a4,60(sp)
     7b8:	00f71463          	bne	a4,a5,7c0 <_vfprintf_r+0x614>
     7bc:	4bd0106f          	j	2478 <_vfprintf_r+0x22cc>
     7c0:	03c12703          	lw	a4,60(sp)
     7c4:	04600793          	li	a5,70
     7c8:	00f71463          	bne	a4,a5,7d0 <_vfprintf_r+0x624>
     7cc:	7950106f          	j	2760 <_vfprintf_r+0x25b4>
     7d0:	01812783          	lw	a5,24(sp)
     7d4:	03c12583          	lw	a1,60(sp)
     7d8:	04100613          	li	a2,65
     7dc:	fff78793          	addi	a5,a5,-1
     7e0:	0cf12e23          	sw	a5,220(sp)
     7e4:	0ff4f713          	zext.b	a4,s1
     7e8:	00000693          	li	a3,0
     7ec:	00c59863          	bne	a1,a2,7fc <_vfprintf_r+0x650>
     7f0:	00f70713          	addi	a4,a4,15
     7f4:	0ff77713          	zext.b	a4,a4
     7f8:	00100693          	li	a3,1
     7fc:	0ee10223          	sb	a4,228(sp)
     800:	02b00713          	li	a4,43
     804:	0007da63          	bgez	a5,818 <_vfprintf_r+0x66c>
     808:	01812703          	lw	a4,24(sp)
     80c:	00100793          	li	a5,1
     810:	40e787b3          	sub	a5,a5,a4
     814:	02d00713          	li	a4,45
     818:	0ee102a3          	sb	a4,229(sp)
     81c:	00900713          	li	a4,9
     820:	00f74463          	blt	a4,a5,828 <_vfprintf_r+0x67c>
     824:	1e80206f          	j	2a0c <_vfprintf_r+0x2860>
     828:	0f310513          	addi	a0,sp,243
     82c:	00050593          	mv	a1,a0
     830:	00a00693          	li	a3,10
     834:	06300e13          	li	t3,99
     838:	02d7e733          	rem	a4,a5,a3
     83c:	00058613          	mv	a2,a1
     840:	00078813          	mv	a6,a5
     844:	fff58593          	addi	a1,a1,-1
     848:	03070713          	addi	a4,a4,48
     84c:	fee60fa3          	sb	a4,-1(a2)
     850:	02d7c7b3          	div	a5,a5,a3
     854:	ff0e42e3          	blt	t3,a6,838 <_vfprintf_r+0x68c>
     858:	03078793          	addi	a5,a5,48
     85c:	0ff7f693          	zext.b	a3,a5
     860:	fed58fa3          	sb	a3,-1(a1)
     864:	ffe60793          	addi	a5,a2,-2
     868:	00a7e463          	bltu	a5,a0,870 <_vfprintf_r+0x6c4>
     86c:	3900206f          	j	2bfc <_vfprintf_r+0x2a50>
     870:	0e610713          	addi	a4,sp,230
     874:	0080006f          	j	87c <_vfprintf_r+0x6d0>
     878:	0007c683          	lbu	a3,0(a5)
     87c:	00d70023          	sb	a3,0(a4)
     880:	00178793          	addi	a5,a5,1
     884:	00170713          	addi	a4,a4,1
     888:	fea798e3          	bne	a5,a0,878 <_vfprintf_r+0x6cc>
     88c:	0f510793          	addi	a5,sp,245
     890:	0e610713          	addi	a4,sp,230
     894:	40c787b3          	sub	a5,a5,a2
     898:	00f707b3          	add	a5,a4,a5
     89c:	0e410713          	addi	a4,sp,228
     8a0:	40e787b3          	sub	a5,a5,a4
     8a4:	02f12a23          	sw	a5,52(sp)
     8a8:	03412683          	lw	a3,52(sp)
     8ac:	01c12703          	lw	a4,28(sp)
     8b0:	00100793          	li	a5,1
     8b4:	00e68933          	add	s2,a3,a4
     8b8:	00e7c463          	blt	a5,a4,8c0 <_vfprintf_r+0x714>
     8bc:	2b40206f          	j	2b70 <_vfprintf_r+0x29c4>
     8c0:	02812783          	lw	a5,40(sp)
     8c4:	00f90933          	add	s2,s2,a5
     8c8:	05012783          	lw	a5,80(sp)
     8cc:	fff94b13          	not	s6,s2
     8d0:	41fb5b13          	srai	s6,s6,0x1f
     8d4:	bff7fa93          	andi	s5,a5,-1025
     8d8:	100aea93          	ori	s5,s5,256
     8dc:	01697b33          	and	s6,s2,s6
     8e0:	02012223          	sw	zero,36(sp)
     8e4:	02012023          	sw	zero,32(sp)
     8e8:	00012c23          	sw	zero,24(sp)
     8ec:	06812783          	lw	a5,104(sp)
     8f0:	00079463          	bnez	a5,8f8 <_vfprintf_r+0x74c>
     8f4:	3f90106f          	j	24ec <_vfprintf_r+0x2340>
     8f8:	02d00793          	li	a5,45
     8fc:	0cf10ba3          	sb	a5,215(sp)
     900:	00000c93          	li	s9,0
     904:	001b0b13          	addi	s6,s6,1
     908:	ad1ff06f          	j	3d8 <_vfprintf_r+0x22c>
     90c:	0f410613          	addi	a2,sp,244
     910:	000c0593          	mv	a1,s8
     914:	000d0513          	mv	a0,s10
     918:	05d12023          	sw	t4,64(sp)
     91c:	03e12e23          	sw	t5,60(sp)
     920:	6e90a0ef          	jal	ra,b808 <__sprint_r>
     924:	0e0516e3          	bnez	a0,1210 <_vfprintf_r+0x1064>
     928:	0fc12783          	lw	a5,252(sp)
     92c:	04012e83          	lw	t4,64(sp)
     930:	03c12f03          	lw	t5,60(sp)
     934:	11c10893          	addi	a7,sp,284
     938:	af9ff06f          	j	430 <_vfprintf_r+0x284>
     93c:	0f812703          	lw	a4,248(sp)
     940:	00178c93          	addi	s9,a5,1
     944:	01c12783          	lw	a5,28(sp)
     948:	00100693          	li	a3,1
     94c:	0178a023          	sw	s7,0(a7)
     950:	00170493          	addi	s1,a4,1
     954:	00888913          	addi	s2,a7,8
     958:	38f6dce3          	bge	a3,a5,14f0 <_vfprintf_r+0x1344>
     95c:	00100793          	li	a5,1
     960:	00f8a223          	sw	a5,4(a7)
     964:	0f912e23          	sw	s9,252(sp)
     968:	0e912c23          	sw	s1,248(sp)
     96c:	00700793          	li	a5,7
     970:	7697c2e3          	blt	a5,s1,18d4 <_vfprintf_r+0x1728>
     974:	02812783          	lw	a5,40(sp)
     978:	02c12703          	lw	a4,44(sp)
     97c:	00148493          	addi	s1,s1,1
     980:	00fc8cb3          	add	s9,s9,a5
     984:	00f92223          	sw	a5,4(s2)
     988:	00e92023          	sw	a4,0(s2)
     98c:	0f912e23          	sw	s9,252(sp)
     990:	0e912c23          	sw	s1,248(sp)
     994:	00700793          	li	a5,7
     998:	00890913          	addi	s2,s2,8
     99c:	7497cee3          	blt	a5,s1,18f8 <_vfprintf_r+0x174c>
     9a0:	10012783          	lw	a5,256(sp)
     9a4:	00148693          	addi	a3,s1,1
     9a8:	0b010593          	addi	a1,sp,176
     9ac:	0cf12023          	sw	a5,192(sp)
     9b0:	10412783          	lw	a5,260(sp)
     9b4:	0c010513          	addi	a0,sp,192
     9b8:	00d12c23          	sw	a3,24(sp)
     9bc:	0cf12223          	sw	a5,196(sp)
     9c0:	10812783          	lw	a5,264(sp)
     9c4:	0a012823          	sw	zero,176(sp)
     9c8:	0a012a23          	sw	zero,180(sp)
     9cc:	0cf12423          	sw	a5,200(sp)
     9d0:	10c12783          	lw	a5,268(sp)
     9d4:	0a012c23          	sw	zero,184(sp)
     9d8:	0a012e23          	sw	zero,188(sp)
     9dc:	0cf12623          	sw	a5,204(sp)
     9e0:	135100ef          	jal	ra,11314 <__eqtf2>
     9e4:	01812683          	lw	a3,24(sp)
     9e8:	01c12783          	lw	a5,28(sp)
     9ec:	00890893          	addi	a7,s2,8
     9f0:	00068713          	mv	a4,a3
     9f4:	fff78d93          	addi	s11,a5,-1
     9f8:	320500e3          	beqz	a0,1518 <_vfprintf_r+0x136c>
     9fc:	001b8813          	addi	a6,s7,1
     a00:	01bc8cb3          	add	s9,s9,s11
     a04:	01092023          	sw	a6,0(s2)
     a08:	01b92223          	sw	s11,4(s2)
     a0c:	0f912e23          	sw	s9,252(sp)
     a10:	0ed12c23          	sw	a3,248(sp)
     a14:	00700793          	li	a5,7
     a18:	52d7c2e3          	blt	a5,a3,173c <_vfprintf_r+0x1590>
     a1c:	01090793          	addi	a5,s2,16
     a20:	00248713          	addi	a4,s1,2
     a24:	00088913          	mv	s2,a7
     a28:	00078893          	mv	a7,a5
     a2c:	03412603          	lw	a2,52(sp)
     a30:	0e410693          	addi	a3,sp,228
     a34:	00d92023          	sw	a3,0(s2)
     a38:	019607b3          	add	a5,a2,s9
     a3c:	00c92223          	sw	a2,4(s2)
     a40:	0ef12e23          	sw	a5,252(sp)
     a44:	0ee12c23          	sw	a4,248(sp)
     a48:	00700693          	li	a3,7
     a4c:	a4e6dce3          	bge	a3,a4,4a4 <_vfprintf_r+0x2f8>
     a50:	0f410613          	addi	a2,sp,244
     a54:	000c0593          	mv	a1,s8
     a58:	000d0513          	mv	a0,s10
     a5c:	5ad0a0ef          	jal	ra,b808 <__sprint_r>
     a60:	7a051863          	bnez	a0,1210 <_vfprintf_r+0x1064>
     a64:	0fc12783          	lw	a5,252(sp)
     a68:	11c10893          	addi	a7,sp,284
     a6c:	a39ff06f          	j	4a4 <_vfprintf_r+0x2f8>
     a70:	0f812703          	lw	a4,248(sp)
     a74:	0001fd97          	auipc	s11,0x1f
     a78:	7ecd8d93          	addi	s11,s11,2028 # 20260 <blanks.1>
     a7c:	00700913          	li	s2,7
     a80:	009a4863          	blt	s4,s1,a90 <_vfprintf_r+0x8e4>
     a84:	0540006f          	j	ad8 <_vfprintf_r+0x92c>
     a88:	ff048493          	addi	s1,s1,-16
     a8c:	049a5663          	bge	s4,s1,ad8 <_vfprintf_r+0x92c>
     a90:	01078793          	addi	a5,a5,16
     a94:	00170713          	addi	a4,a4,1
     a98:	01b8a023          	sw	s11,0(a7)
     a9c:	0148a223          	sw	s4,4(a7)
     aa0:	0ef12e23          	sw	a5,252(sp)
     aa4:	0ee12c23          	sw	a4,248(sp)
     aa8:	00888893          	addi	a7,a7,8
     aac:	fce95ee3          	bge	s2,a4,a88 <_vfprintf_r+0x8dc>
     ab0:	0f410613          	addi	a2,sp,244
     ab4:	000c0593          	mv	a1,s8
     ab8:	000d0513          	mv	a0,s10
     abc:	54d0a0ef          	jal	ra,b808 <__sprint_r>
     ac0:	74051863          	bnez	a0,1210 <_vfprintf_r+0x1064>
     ac4:	ff048493          	addi	s1,s1,-16
     ac8:	0fc12783          	lw	a5,252(sp)
     acc:	0f812703          	lw	a4,248(sp)
     ad0:	11c10893          	addi	a7,sp,284
     ad4:	fa9a4ee3          	blt	s4,s1,a90 <_vfprintf_r+0x8e4>
     ad8:	009787b3          	add	a5,a5,s1
     adc:	00170713          	addi	a4,a4,1
     ae0:	01b8a023          	sw	s11,0(a7)
     ae4:	0098a223          	sw	s1,4(a7)
     ae8:	0ef12e23          	sw	a5,252(sp)
     aec:	0ee12c23          	sw	a4,248(sp)
     af0:	00700693          	li	a3,7
     af4:	9ce6d0e3          	bge	a3,a4,4b4 <_vfprintf_r+0x308>
     af8:	0f410613          	addi	a2,sp,244
     afc:	000c0593          	mv	a1,s8
     b00:	000d0513          	mv	a0,s10
     b04:	5050a0ef          	jal	ra,b808 <__sprint_r>
     b08:	70051463          	bnez	a0,1210 <_vfprintf_r+0x1064>
     b0c:	0fc12783          	lw	a5,252(sp)
     b10:	9a5ff06f          	j	4b4 <_vfprintf_r+0x308>
     b14:	000d0513          	mv	a0,s10
     b18:	1e1020ef          	jal	ra,34f8 <__sinit>
     b1c:	f0cff06f          	j	228 <_vfprintf_r+0x7c>
     b20:	01412703          	lw	a4,20(sp)
     b24:	000d8893          	mv	a7,s11
     b28:	0c010ba3          	sb	zero,215(sp)
     b2c:	00072783          	lw	a5,0(a4)
     b30:	00470713          	addi	a4,a4,4
     b34:	00e12a23          	sw	a4,20(sp)
     b38:	14f10e23          	sb	a5,348(sp)
     b3c:	00100b13          	li	s6,1
     b40:	00100913          	li	s2,1
     b44:	15c10b93          	addi	s7,sp,348
     b48:	87dff06f          	j	3c4 <_vfprintf_r+0x218>
     b4c:	01412783          	lw	a5,20(sp)
     b50:	0c010ba3          	sb	zero,215(sp)
     b54:	000d8893          	mv	a7,s11
     b58:	0007ab83          	lw	s7,0(a5)
     b5c:	00478d93          	addi	s11,a5,4
     b60:	4c0b88e3          	beqz	s7,1830 <_vfprintf_r+0x1684>
     b64:	fff00793          	li	a5,-1
     b68:	00fc9463          	bne	s9,a5,b70 <_vfprintf_r+0x9c4>
     b6c:	0640106f          	j	1bd0 <_vfprintf_r+0x1a24>
     b70:	000c8613          	mv	a2,s9
     b74:	00000593          	li	a1,0
     b78:	000b8513          	mv	a0,s7
     b7c:	01112a23          	sw	a7,20(sp)
     b80:	710060ef          	jal	ra,7290 <memchr>
     b84:	00a12823          	sw	a0,16(sp)
     b88:	01412883          	lw	a7,20(sp)
     b8c:	00051463          	bnez	a0,b94 <_vfprintf_r+0x9e8>
     b90:	3410106f          	j	26d0 <_vfprintf_r+0x2524>
     b94:	01012783          	lw	a5,16(sp)
     b98:	01b12a23          	sw	s11,20(sp)
     b9c:	00012823          	sw	zero,16(sp)
     ba0:	41778933          	sub	s2,a5,s7
     ba4:	0d714783          	lbu	a5,215(sp)
     ba8:	fff94b13          	not	s6,s2
     bac:	41fb5b13          	srai	s6,s6,0x1f
     bb0:	02012223          	sw	zero,36(sp)
     bb4:	02012023          	sw	zero,32(sp)
     bb8:	00012c23          	sw	zero,24(sp)
     bbc:	01697b33          	and	s6,s2,s6
     bc0:	00000c93          	li	s9,0
     bc4:	80078ae3          	beqz	a5,3d8 <_vfprintf_r+0x22c>
     bc8:	001b0b13          	addi	s6,s6,1
     bcc:	80dff06f          	j	3d8 <_vfprintf_r+0x22c>
     bd0:	00044483          	lbu	s1,0(s0)
     bd4:	06800793          	li	a5,104
     bd8:	3ef48ee3          	beq	s1,a5,17d4 <_vfprintf_r+0x1628>
     bdc:	040aea93          	ori	s5,s5,64
     be0:	f6cff06f          	j	34c <_vfprintf_r+0x1a0>
     be4:	01412683          	lw	a3,20(sp)
     be8:	020af793          	andi	a5,s5,32
     bec:	000d8893          	mv	a7,s11
     bf0:	0006a703          	lw	a4,0(a3)
     bf4:	00468693          	addi	a3,a3,4
     bf8:	00d12a23          	sw	a3,20(sp)
     bfc:	280792e3          	bnez	a5,1680 <_vfprintf_r+0x14d4>
     c00:	010af793          	andi	a5,s5,16
     c04:	74079ee3          	bnez	a5,1b60 <_vfprintf_r+0x19b4>
     c08:	040af793          	andi	a5,s5,64
     c0c:	00078463          	beqz	a5,c14 <_vfprintf_r+0xa68>
     c10:	3780106f          	j	1f88 <_vfprintf_r+0x1ddc>
     c14:	200afa93          	andi	s5,s5,512
     c18:	740a84e3          	beqz	s5,1b60 <_vfprintf_r+0x19b4>
     c1c:	00c12783          	lw	a5,12(sp)
     c20:	00040b93          	mv	s7,s0
     c24:	00f70023          	sb	a5,0(a4)
     c28:	8c5ff06f          	j	4ec <_vfprintf_r+0x340>
     c2c:	00044483          	lbu	s1,0(s0)
     c30:	06c00793          	li	a5,108
     c34:	3ef486e3          	beq	s1,a5,1820 <_vfprintf_r+0x1674>
     c38:	010aea93          	ori	s5,s5,16
     c3c:	f10ff06f          	j	34c <_vfprintf_r+0x1a0>
     c40:	01412703          	lw	a4,20(sp)
     c44:	ffff87b7          	lui	a5,0xffff8
     c48:	8307c793          	xori	a5,a5,-2000
     c4c:	000d8893          	mv	a7,s11
     c50:	0cf11c23          	sh	a5,216(sp)
     c54:	00072d83          	lw	s11,0(a4)
     c58:	00470793          	addi	a5,a4,4
     c5c:	00f12a23          	sw	a5,20(sp)
     c60:	0001f797          	auipc	a5,0x1f
     c64:	43078793          	addi	a5,a5,1072 # 20090 <__malloc_trim_threshold+0x58>
     c68:	02f12823          	sw	a5,48(sp)
     c6c:	00000913          	li	s2,0
     c70:	002aeb13          	ori	s6,s5,2
     c74:	00200793          	li	a5,2
     c78:	07800493          	li	s1,120
     c7c:	0c010ba3          	sb	zero,215(sp)
     c80:	fff00693          	li	a3,-1
     c84:	20dc8263          	beq	s9,a3,e88 <_vfprintf_r+0xcdc>
     c88:	012de6b3          	or	a3,s11,s2
     c8c:	f7fb7a93          	andi	s5,s6,-129
     c90:	1e069a63          	bnez	a3,e84 <_vfprintf_r+0xcd8>
     c94:	260c9063          	bnez	s9,ef4 <_vfprintf_r+0xd48>
     c98:	10079863          	bnez	a5,da8 <_vfprintf_r+0xbfc>
     c9c:	001b7913          	andi	s2,s6,1
     ca0:	1c010b93          	addi	s7,sp,448
     ca4:	1a0914e3          	bnez	s2,164c <_vfprintf_r+0x14a0>
     ca8:	0d714783          	lbu	a5,215(sp)
     cac:	000c8b13          	mv	s6,s9
     cb0:	012cd463          	bge	s9,s2,cb8 <_vfprintf_r+0xb0c>
     cb4:	00090b13          	mv	s6,s2
     cb8:	00012823          	sw	zero,16(sp)
     cbc:	02012223          	sw	zero,36(sp)
     cc0:	02012023          	sw	zero,32(sp)
     cc4:	00012c23          	sw	zero,24(sp)
     cc8:	f00790e3          	bnez	a5,bc8 <_vfprintf_r+0xa1c>
     ccc:	f0cff06f          	j	3d8 <_vfprintf_r+0x22c>
     cd0:	000d8893          	mv	a7,s11
     cd4:	010aea93          	ori	s5,s5,16
     cd8:	020af793          	andi	a5,s5,32
     cdc:	0a0784e3          	beqz	a5,1584 <_vfprintf_r+0x13d8>
     ce0:	01412783          	lw	a5,20(sp)
     ce4:	00778b93          	addi	s7,a5,7
     ce8:	ff8bfb93          	andi	s7,s7,-8
     cec:	000bad83          	lw	s11,0(s7)
     cf0:	004ba903          	lw	s2,4(s7)
     cf4:	008b8793          	addi	a5,s7,8
     cf8:	00f12a23          	sw	a5,20(sp)
     cfc:	bffafb13          	andi	s6,s5,-1025
     d00:	00000793          	li	a5,0
     d04:	f79ff06f          	j	c7c <_vfprintf_r+0xad0>
     d08:	000d8893          	mv	a7,s11
     d0c:	010aeb13          	ori	s6,s5,16
     d10:	020b7793          	andi	a5,s6,32
     d14:	0e0788e3          	beqz	a5,1604 <_vfprintf_r+0x1458>
     d18:	01412783          	lw	a5,20(sp)
     d1c:	00778b93          	addi	s7,a5,7
     d20:	ff8bfb93          	andi	s7,s7,-8
     d24:	008b8793          	addi	a5,s7,8
     d28:	00f12a23          	sw	a5,20(sp)
     d2c:	000bad83          	lw	s11,0(s7)
     d30:	004ba903          	lw	s2,4(s7)
     d34:	00100793          	li	a5,1
     d38:	f45ff06f          	j	c7c <_vfprintf_r+0xad0>
     d3c:	00044483          	lbu	s1,0(s0)
     d40:	080aea93          	ori	s5,s5,128
     d44:	e08ff06f          	j	34c <_vfprintf_r+0x1a0>
     d48:	00044483          	lbu	s1,0(s0)
     d4c:	008aea93          	ori	s5,s5,8
     d50:	dfcff06f          	j	34c <_vfprintf_r+0x1a0>
     d54:	000d8893          	mv	a7,s11
     d58:	010aea93          	ori	s5,s5,16
     d5c:	020af793          	andi	a5,s5,32
     d60:	040788e3          	beqz	a5,15b0 <_vfprintf_r+0x1404>
     d64:	01412783          	lw	a5,20(sp)
     d68:	00778b93          	addi	s7,a5,7
     d6c:	ff8bfb93          	andi	s7,s7,-8
     d70:	004ba783          	lw	a5,4(s7)
     d74:	000bad83          	lw	s11,0(s7)
     d78:	008b8713          	addi	a4,s7,8
     d7c:	00e12a23          	sw	a4,20(sp)
     d80:	00078913          	mv	s2,a5
     d84:	0407cee3          	bltz	a5,15e0 <_vfprintf_r+0x1434>
     d88:	fff00793          	li	a5,-1
     d8c:	000a8b13          	mv	s6,s5
     d90:	02fc8463          	beq	s9,a5,db8 <_vfprintf_r+0xc0c>
     d94:	012de7b3          	or	a5,s11,s2
     d98:	f7fafb13          	andi	s6,s5,-129
     d9c:	00079e63          	bnez	a5,db8 <_vfprintf_r+0xc0c>
     da0:	020c9263          	bnez	s9,dc4 <_vfprintf_r+0xc18>
     da4:	000b0a93          	mv	s5,s6
     da8:	00000c93          	li	s9,0
     dac:	00000913          	li	s2,0
     db0:	1c010b93          	addi	s7,sp,448
     db4:	ef5ff06f          	j	ca8 <_vfprintf_r+0xafc>
     db8:	360912e3          	bnez	s2,191c <_vfprintf_r+0x1770>
     dbc:	00900793          	li	a5,9
     dc0:	35b7eee3          	bltu	a5,s11,191c <_vfprintf_r+0x1770>
     dc4:	030d8d93          	addi	s11,s11,48
     dc8:	1bb10fa3          	sb	s11,447(sp)
     dcc:	000b0a93          	mv	s5,s6
     dd0:	00100913          	li	s2,1
     dd4:	1bf10b93          	addi	s7,sp,447
     dd8:	ed1ff06f          	j	ca8 <_vfprintf_r+0xafc>
     ddc:	01412783          	lw	a5,20(sp)
     de0:	00044483          	lbu	s1,0(s0)
     de4:	0007a983          	lw	s3,0(a5)
     de8:	00478793          	addi	a5,a5,4
     dec:	00f12a23          	sw	a5,20(sp)
     df0:	d409de63          	bgez	s3,34c <_vfprintf_r+0x1a0>
     df4:	413009b3          	neg	s3,s3
     df8:	004aea93          	ori	s5,s5,4
     dfc:	d50ff06f          	j	34c <_vfprintf_r+0x1a0>
     e00:	00044483          	lbu	s1,0(s0)
     e04:	001aea93          	ori	s5,s5,1
     e08:	d44ff06f          	j	34c <_vfprintf_r+0x1a0>
     e0c:	0d714783          	lbu	a5,215(sp)
     e10:	00044483          	lbu	s1,0(s0)
     e14:	d2079c63          	bnez	a5,34c <_vfprintf_r+0x1a0>
     e18:	02000793          	li	a5,32
     e1c:	0cf10ba3          	sb	a5,215(sp)
     e20:	d2cff06f          	j	34c <_vfprintf_r+0x1a0>
     e24:	00044483          	lbu	s1,0(s0)
     e28:	004aea93          	ori	s5,s5,4
     e2c:	d20ff06f          	j	34c <_vfprintf_r+0x1a0>
     e30:	02b00793          	li	a5,43
     e34:	00044483          	lbu	s1,0(s0)
     e38:	0cf10ba3          	sb	a5,215(sp)
     e3c:	d10ff06f          	j	34c <_vfprintf_r+0x1a0>
     e40:	00044483          	lbu	s1,0(s0)
     e44:	00140693          	addi	a3,s0,1
     e48:	01649463          	bne	s1,s6,e50 <_vfprintf_r+0xca4>
     e4c:	5750106f          	j	2bc0 <_vfprintf_r+0x2a14>
     e50:	fd048613          	addi	a2,s1,-48
     e54:	00068413          	mv	s0,a3
     e58:	00000c93          	li	s9,0
     e5c:	cec96c63          	bltu	s2,a2,354 <_vfprintf_r+0x1a8>
     e60:	00044483          	lbu	s1,0(s0)
     e64:	002c9793          	slli	a5,s9,0x2
     e68:	019787b3          	add	a5,a5,s9
     e6c:	00179793          	slli	a5,a5,0x1
     e70:	00c78cb3          	add	s9,a5,a2
     e74:	fd048613          	addi	a2,s1,-48
     e78:	00140413          	addi	s0,s0,1
     e7c:	fec972e3          	bgeu	s2,a2,e60 <_vfprintf_r+0xcb4>
     e80:	cd4ff06f          	j	354 <_vfprintf_r+0x1a8>
     e84:	000a8b13          	mv	s6,s5
     e88:	00100693          	li	a3,1
     e8c:	f2d786e3          	beq	a5,a3,db8 <_vfprintf_r+0xc0c>
     e90:	00200693          	li	a3,2
     e94:	06d78c63          	beq	a5,a3,f0c <_vfprintf_r+0xd60>
     e98:	1c010b93          	addi	s7,sp,448
     e9c:	01d91713          	slli	a4,s2,0x1d
     ea0:	007df793          	andi	a5,s11,7
     ea4:	003ddd93          	srli	s11,s11,0x3
     ea8:	03078793          	addi	a5,a5,48
     eac:	01b76db3          	or	s11,a4,s11
     eb0:	00395913          	srli	s2,s2,0x3
     eb4:	fefb8fa3          	sb	a5,-1(s7)
     eb8:	012de733          	or	a4,s11,s2
     ebc:	000b8613          	mv	a2,s7
     ec0:	fffb8b93          	addi	s7,s7,-1
     ec4:	fc071ce3          	bnez	a4,e9c <_vfprintf_r+0xcf0>
     ec8:	001b7693          	andi	a3,s6,1
     ecc:	06068a63          	beqz	a3,f40 <_vfprintf_r+0xd94>
     ed0:	03000693          	li	a3,48
     ed4:	06d78663          	beq	a5,a3,f40 <_vfprintf_r+0xd94>
     ed8:	ffe60613          	addi	a2,a2,-2
     edc:	1c010793          	addi	a5,sp,448
     ee0:	fedb8fa3          	sb	a3,-1(s7)
     ee4:	40c78933          	sub	s2,a5,a2
     ee8:	000b0a93          	mv	s5,s6
     eec:	00060b93          	mv	s7,a2
     ef0:	db9ff06f          	j	ca8 <_vfprintf_r+0xafc>
     ef4:	00100713          	li	a4,1
     ef8:	00e79463          	bne	a5,a4,f00 <_vfprintf_r+0xd54>
     efc:	22d0106f          	j	2928 <_vfprintf_r+0x277c>
     f00:	00200713          	li	a4,2
     f04:	000a8b13          	mv	s6,s5
     f08:	f8e798e3          	bne	a5,a4,e98 <_vfprintf_r+0xcec>
     f0c:	03012683          	lw	a3,48(sp)
     f10:	1c010b93          	addi	s7,sp,448
     f14:	00fdf793          	andi	a5,s11,15
     f18:	00f687b3          	add	a5,a3,a5
     f1c:	0007c703          	lbu	a4,0(a5)
     f20:	004ddd93          	srli	s11,s11,0x4
     f24:	01c91793          	slli	a5,s2,0x1c
     f28:	01b7edb3          	or	s11,a5,s11
     f2c:	00495913          	srli	s2,s2,0x4
     f30:	feeb8fa3          	sb	a4,-1(s7)
     f34:	012de7b3          	or	a5,s11,s2
     f38:	fffb8b93          	addi	s7,s7,-1
     f3c:	fc079ce3          	bnez	a5,f14 <_vfprintf_r+0xd68>
     f40:	1c010793          	addi	a5,sp,448
     f44:	41778933          	sub	s2,a5,s7
     f48:	000b0a93          	mv	s5,s6
     f4c:	d5dff06f          	j	ca8 <_vfprintf_r+0xafc>
     f50:	06500713          	li	a4,101
     f54:	9e9754e3          	bge	a4,s1,93c <_vfprintf_r+0x790>
     f58:	10012703          	lw	a4,256(sp)
     f5c:	0b010593          	addi	a1,sp,176
     f60:	0c010513          	addi	a0,sp,192
     f64:	0ce12023          	sw	a4,192(sp)
     f68:	10412703          	lw	a4,260(sp)
     f6c:	05112023          	sw	a7,64(sp)
     f70:	02f12e23          	sw	a5,60(sp)
     f74:	0ce12223          	sw	a4,196(sp)
     f78:	10812703          	lw	a4,264(sp)
     f7c:	0a012823          	sw	zero,176(sp)
     f80:	0a012a23          	sw	zero,180(sp)
     f84:	0ce12423          	sw	a4,200(sp)
     f88:	10c12703          	lw	a4,268(sp)
     f8c:	0a012c23          	sw	zero,184(sp)
     f90:	0a012e23          	sw	zero,188(sp)
     f94:	0ce12623          	sw	a4,204(sp)
     f98:	37c100ef          	jal	ra,11314 <__eqtf2>
     f9c:	03c12783          	lw	a5,60(sp)
     fa0:	04012883          	lw	a7,64(sp)
     fa4:	3c051863          	bnez	a0,1374 <_vfprintf_r+0x11c8>
     fa8:	0f812703          	lw	a4,248(sp)
     fac:	0001f697          	auipc	a3,0x1f
     fb0:	11468693          	addi	a3,a3,276 # 200c0 <__malloc_trim_threshold+0x88>
     fb4:	00d8a023          	sw	a3,0(a7)
     fb8:	00178793          	addi	a5,a5,1
     fbc:	00100693          	li	a3,1
     fc0:	00170713          	addi	a4,a4,1
     fc4:	00d8a223          	sw	a3,4(a7)
     fc8:	0ef12e23          	sw	a5,252(sp)
     fcc:	0ee12c23          	sw	a4,248(sp)
     fd0:	00700693          	li	a3,7
     fd4:	00888893          	addi	a7,a7,8
     fd8:	2ae6cce3          	blt	a3,a4,1a90 <_vfprintf_r+0x18e4>
     fdc:	0dc12703          	lw	a4,220(sp)
     fe0:	01c12683          	lw	a3,28(sp)
     fe4:	64d75863          	bge	a4,a3,1634 <_vfprintf_r+0x1488>
     fe8:	02c12703          	lw	a4,44(sp)
     fec:	02812683          	lw	a3,40(sp)
     ff0:	00888893          	addi	a7,a7,8
     ff4:	fee8ac23          	sw	a4,-8(a7)
     ff8:	0f812703          	lw	a4,248(sp)
     ffc:	00d787b3          	add	a5,a5,a3
    1000:	fed8ae23          	sw	a3,-4(a7)
    1004:	00170713          	addi	a4,a4,1
    1008:	0ef12e23          	sw	a5,252(sp)
    100c:	0ee12c23          	sw	a4,248(sp)
    1010:	00700693          	li	a3,7
    1014:	7ee6c663          	blt	a3,a4,1800 <_vfprintf_r+0x1654>
    1018:	01c12703          	lw	a4,28(sp)
    101c:	fff70493          	addi	s1,a4,-1
    1020:	c8905263          	blez	s1,4a4 <_vfprintf_r+0x2f8>
    1024:	0f812703          	lw	a4,248(sp)
    1028:	289a54e3          	bge	s4,s1,1ab0 <_vfprintf_r+0x1904>
    102c:	00700913          	li	s2,7
    1030:	00c0006f          	j	103c <_vfprintf_r+0xe90>
    1034:	ff048493          	addi	s1,s1,-16
    1038:	269a5ce3          	bge	s4,s1,1ab0 <_vfprintf_r+0x1904>
    103c:	01078793          	addi	a5,a5,16
    1040:	00170713          	addi	a4,a4,1
    1044:	0001f697          	auipc	a3,0x1f
    1048:	22c68693          	addi	a3,a3,556 # 20270 <zeroes.0>
    104c:	00d8a023          	sw	a3,0(a7)
    1050:	0148a223          	sw	s4,4(a7)
    1054:	0ef12e23          	sw	a5,252(sp)
    1058:	0ee12c23          	sw	a4,248(sp)
    105c:	00888893          	addi	a7,a7,8
    1060:	fce95ae3          	bge	s2,a4,1034 <_vfprintf_r+0xe88>
    1064:	0f410613          	addi	a2,sp,244
    1068:	000c0593          	mv	a1,s8
    106c:	000d0513          	mv	a0,s10
    1070:	7980a0ef          	jal	ra,b808 <__sprint_r>
    1074:	18051e63          	bnez	a0,1210 <_vfprintf_r+0x1064>
    1078:	0fc12783          	lw	a5,252(sp)
    107c:	0f812703          	lw	a4,248(sp)
    1080:	11c10893          	addi	a7,sp,284
    1084:	fb1ff06f          	j	1034 <_vfprintf_r+0xe88>
    1088:	41698db3          	sub	s11,s3,s6
    108c:	bfb05063          	blez	s11,46c <_vfprintf_r+0x2c0>
    1090:	0f812703          	lw	a4,248(sp)
    1094:	07ba5463          	bge	s4,s11,10fc <_vfprintf_r+0xf50>
    1098:	00700e13          	li	t3,7
    109c:	00c0006f          	j	10a8 <_vfprintf_r+0xefc>
    10a0:	ff0d8d93          	addi	s11,s11,-16
    10a4:	05ba5c63          	bge	s4,s11,10fc <_vfprintf_r+0xf50>
    10a8:	01078793          	addi	a5,a5,16
    10ac:	00170713          	addi	a4,a4,1
    10b0:	0001f697          	auipc	a3,0x1f
    10b4:	1c068693          	addi	a3,a3,448 # 20270 <zeroes.0>
    10b8:	00d8a023          	sw	a3,0(a7)
    10bc:	0148a223          	sw	s4,4(a7)
    10c0:	0ef12e23          	sw	a5,252(sp)
    10c4:	0ee12c23          	sw	a4,248(sp)
    10c8:	00888893          	addi	a7,a7,8
    10cc:	fcee5ae3          	bge	t3,a4,10a0 <_vfprintf_r+0xef4>
    10d0:	0f410613          	addi	a2,sp,244
    10d4:	000c0593          	mv	a1,s8
    10d8:	000d0513          	mv	a0,s10
    10dc:	72c0a0ef          	jal	ra,b808 <__sprint_r>
    10e0:	12051863          	bnez	a0,1210 <_vfprintf_r+0x1064>
    10e4:	ff0d8d93          	addi	s11,s11,-16
    10e8:	0fc12783          	lw	a5,252(sp)
    10ec:	0f812703          	lw	a4,248(sp)
    10f0:	11c10893          	addi	a7,sp,284
    10f4:	00700e13          	li	t3,7
    10f8:	fbba48e3          	blt	s4,s11,10a8 <_vfprintf_r+0xefc>
    10fc:	0001f697          	auipc	a3,0x1f
    1100:	17468693          	addi	a3,a3,372 # 20270 <zeroes.0>
    1104:	01b787b3          	add	a5,a5,s11
    1108:	00170713          	addi	a4,a4,1
    110c:	00d8a023          	sw	a3,0(a7)
    1110:	01b8a223          	sw	s11,4(a7)
    1114:	0ef12e23          	sw	a5,252(sp)
    1118:	0ee12c23          	sw	a4,248(sp)
    111c:	00700693          	li	a3,7
    1120:	00888893          	addi	a7,a7,8
    1124:	b4e6d463          	bge	a3,a4,46c <_vfprintf_r+0x2c0>
    1128:	0f410613          	addi	a2,sp,244
    112c:	000c0593          	mv	a1,s8
    1130:	000d0513          	mv	a0,s10
    1134:	6d40a0ef          	jal	ra,b808 <__sprint_r>
    1138:	0c051c63          	bnez	a0,1210 <_vfprintf_r+0x1064>
    113c:	0fc12783          	lw	a5,252(sp)
    1140:	11c10893          	addi	a7,sp,284
    1144:	b28ff06f          	j	46c <_vfprintf_r+0x2c0>
    1148:	0f812703          	lw	a4,248(sp)
    114c:	079a5263          	bge	s4,s9,11b0 <_vfprintf_r+0x1004>
    1150:	00700d93          	li	s11,7
    1154:	00c0006f          	j	1160 <_vfprintf_r+0xfb4>
    1158:	ff0c8c93          	addi	s9,s9,-16
    115c:	059a5a63          	bge	s4,s9,11b0 <_vfprintf_r+0x1004>
    1160:	01078793          	addi	a5,a5,16
    1164:	00170713          	addi	a4,a4,1
    1168:	0001f697          	auipc	a3,0x1f
    116c:	10868693          	addi	a3,a3,264 # 20270 <zeroes.0>
    1170:	00d8a023          	sw	a3,0(a7)
    1174:	0148a223          	sw	s4,4(a7)
    1178:	0ef12e23          	sw	a5,252(sp)
    117c:	0ee12c23          	sw	a4,248(sp)
    1180:	00888893          	addi	a7,a7,8
    1184:	fceddae3          	bge	s11,a4,1158 <_vfprintf_r+0xfac>
    1188:	0f410613          	addi	a2,sp,244
    118c:	000c0593          	mv	a1,s8
    1190:	000d0513          	mv	a0,s10
    1194:	6740a0ef          	jal	ra,b808 <__sprint_r>
    1198:	06051c63          	bnez	a0,1210 <_vfprintf_r+0x1064>
    119c:	ff0c8c93          	addi	s9,s9,-16
    11a0:	0fc12783          	lw	a5,252(sp)
    11a4:	0f812703          	lw	a4,248(sp)
    11a8:	11c10893          	addi	a7,sp,284
    11ac:	fb9a4ae3          	blt	s4,s9,1160 <_vfprintf_r+0xfb4>
    11b0:	0001f697          	auipc	a3,0x1f
    11b4:	0c068693          	addi	a3,a3,192 # 20270 <zeroes.0>
    11b8:	019787b3          	add	a5,a5,s9
    11bc:	00170713          	addi	a4,a4,1
    11c0:	00d8a023          	sw	a3,0(a7)
    11c4:	0198a223          	sw	s9,4(a7)
    11c8:	0ef12e23          	sw	a5,252(sp)
    11cc:	0ee12c23          	sw	a4,248(sp)
    11d0:	00700693          	li	a3,7
    11d4:	00888893          	addi	a7,a7,8
    11d8:	a8e6de63          	bge	a3,a4,474 <_vfprintf_r+0x2c8>
    11dc:	0f410613          	addi	a2,sp,244
    11e0:	000c0593          	mv	a1,s8
    11e4:	000d0513          	mv	a0,s10
    11e8:	6200a0ef          	jal	ra,b808 <__sprint_r>
    11ec:	02051263          	bnez	a0,1210 <_vfprintf_r+0x1064>
    11f0:	0fc12783          	lw	a5,252(sp)
    11f4:	11c10893          	addi	a7,sp,284
    11f8:	a7cff06f          	j	474 <_vfprintf_r+0x2c8>
    11fc:	0f410613          	addi	a2,sp,244
    1200:	000c0593          	mv	a1,s8
    1204:	000d0513          	mv	a0,s10
    1208:	6000a0ef          	jal	ra,b808 <__sprint_r>
    120c:	ac050063          	beqz	a0,4cc <_vfprintf_r+0x320>
    1210:	01012583          	lw	a1,16(sp)
    1214:	ae058663          	beqz	a1,500 <_vfprintf_r+0x354>
    1218:	000d0513          	mv	a0,s10
    121c:	464020ef          	jal	ra,3680 <_free_r>
    1220:	ae0ff06f          	j	500 <_vfprintf_r+0x354>
    1224:	0f812703          	lw	a4,248(sp)
    1228:	0001fd97          	auipc	s11,0x1f
    122c:	038d8d93          	addi	s11,s11,56 # 20260 <blanks.1>
    1230:	0cda5463          	bge	s4,a3,12f8 <_vfprintf_r+0x114c>
    1234:	04812623          	sw	s0,76(sp)
    1238:	000d0413          	mv	s0,s10
    123c:	00068d13          	mv	s10,a3
    1240:	000d8693          	mv	a3,s11
    1244:	00700f93          	li	t6,7
    1248:	000b0d93          	mv	s11,s6
    124c:	03e12e23          	sw	t5,60(sp)
    1250:	00098b13          	mv	s6,s3
    1254:	05d12023          	sw	t4,64(sp)
    1258:	00048993          	mv	s3,s1
    125c:	000c0493          	mv	s1,s8
    1260:	000b8c13          	mv	s8,s7
    1264:	00090b93          	mv	s7,s2
    1268:	00068913          	mv	s2,a3
    126c:	00c0006f          	j	1278 <_vfprintf_r+0x10cc>
    1270:	ff0d0d13          	addi	s10,s10,-16
    1274:	05aa5863          	bge	s4,s10,12c4 <_vfprintf_r+0x1118>
    1278:	01078793          	addi	a5,a5,16
    127c:	00170713          	addi	a4,a4,1
    1280:	0128a023          	sw	s2,0(a7)
    1284:	0148a223          	sw	s4,4(a7)
    1288:	0ef12e23          	sw	a5,252(sp)
    128c:	0ee12c23          	sw	a4,248(sp)
    1290:	00888893          	addi	a7,a7,8
    1294:	fcefdee3          	bge	t6,a4,1270 <_vfprintf_r+0x10c4>
    1298:	0f410613          	addi	a2,sp,244
    129c:	00048593          	mv	a1,s1
    12a0:	00040513          	mv	a0,s0
    12a4:	5640a0ef          	jal	ra,b808 <__sprint_r>
    12a8:	7c051063          	bnez	a0,1a68 <_vfprintf_r+0x18bc>
    12ac:	ff0d0d13          	addi	s10,s10,-16
    12b0:	0fc12783          	lw	a5,252(sp)
    12b4:	0f812703          	lw	a4,248(sp)
    12b8:	11c10893          	addi	a7,sp,284
    12bc:	00700f93          	li	t6,7
    12c0:	fbaa4ce3          	blt	s4,s10,1278 <_vfprintf_r+0x10cc>
    12c4:	000d0693          	mv	a3,s10
    12c8:	03c12f03          	lw	t5,60(sp)
    12cc:	00040d13          	mv	s10,s0
    12d0:	04012e83          	lw	t4,64(sp)
    12d4:	04c12403          	lw	s0,76(sp)
    12d8:	00090613          	mv	a2,s2
    12dc:	000b8913          	mv	s2,s7
    12e0:	000c0b93          	mv	s7,s8
    12e4:	00048c13          	mv	s8,s1
    12e8:	00098493          	mv	s1,s3
    12ec:	000b0993          	mv	s3,s6
    12f0:	000d8b13          	mv	s6,s11
    12f4:	00060d93          	mv	s11,a2
    12f8:	00d787b3          	add	a5,a5,a3
    12fc:	00170713          	addi	a4,a4,1
    1300:	00d8a223          	sw	a3,4(a7)
    1304:	01b8a023          	sw	s11,0(a7)
    1308:	0ef12e23          	sw	a5,252(sp)
    130c:	0ee12c23          	sw	a4,248(sp)
    1310:	00700693          	li	a3,7
    1314:	00888893          	addi	a7,a7,8
    1318:	8ee6d063          	bge	a3,a4,3f8 <_vfprintf_r+0x24c>
    131c:	0f410613          	addi	a2,sp,244
    1320:	000c0593          	mv	a1,s8
    1324:	000d0513          	mv	a0,s10
    1328:	05d12023          	sw	t4,64(sp)
    132c:	03e12e23          	sw	t5,60(sp)
    1330:	4d80a0ef          	jal	ra,b808 <__sprint_r>
    1334:	ec051ee3          	bnez	a0,1210 <_vfprintf_r+0x1064>
    1338:	0fc12783          	lw	a5,252(sp)
    133c:	04012e83          	lw	t4,64(sp)
    1340:	03c12f03          	lw	t5,60(sp)
    1344:	11c10893          	addi	a7,sp,284
    1348:	8b0ff06f          	j	3f8 <_vfprintf_r+0x24c>
    134c:	0f410613          	addi	a2,sp,244
    1350:	000c0593          	mv	a1,s8
    1354:	000d0513          	mv	a0,s10
    1358:	03d12e23          	sw	t4,60(sp)
    135c:	4ac0a0ef          	jal	ra,b808 <__sprint_r>
    1360:	ea0518e3          	bnez	a0,1210 <_vfprintf_r+0x1064>
    1364:	0fc12783          	lw	a5,252(sp)
    1368:	03c12e83          	lw	t4,60(sp)
    136c:	11c10893          	addi	a7,sp,284
    1370:	8f4ff06f          	j	464 <_vfprintf_r+0x2b8>
    1374:	0dc12683          	lw	a3,220(sp)
    1378:	66d05863          	blez	a3,19e8 <_vfprintf_r+0x183c>
    137c:	01812703          	lw	a4,24(sp)
    1380:	01c12683          	lw	a3,28(sp)
    1384:	00070493          	mv	s1,a4
    1388:	36e6ce63          	blt	a3,a4,1704 <_vfprintf_r+0x1558>
    138c:	02905663          	blez	s1,13b8 <_vfprintf_r+0x120c>
    1390:	0f812703          	lw	a4,248(sp)
    1394:	009787b3          	add	a5,a5,s1
    1398:	0178a023          	sw	s7,0(a7)
    139c:	00170713          	addi	a4,a4,1
    13a0:	0098a223          	sw	s1,4(a7)
    13a4:	0ef12e23          	sw	a5,252(sp)
    13a8:	0ee12c23          	sw	a4,248(sp)
    13ac:	00700693          	li	a3,7
    13b0:	00888893          	addi	a7,a7,8
    13b4:	38e6c6e3          	blt	a3,a4,1f40 <_vfprintf_r+0x1d94>
    13b8:	fff4c713          	not	a4,s1
    13bc:	41f75713          	srai	a4,a4,0x1f
    13c0:	00e4f4b3          	and	s1,s1,a4
    13c4:	01812703          	lw	a4,24(sp)
    13c8:	409704b3          	sub	s1,a4,s1
    13cc:	48904263          	bgtz	s1,1850 <_vfprintf_r+0x16a4>
    13d0:	01812683          	lw	a3,24(sp)
    13d4:	400af713          	andi	a4,s5,1024
    13d8:	00db84b3          	add	s1,s7,a3
    13dc:	120714e3          	bnez	a4,1d04 <_vfprintf_r+0x1b58>
    13e0:	0dc12683          	lw	a3,220(sp)
    13e4:	01c12703          	lw	a4,28(sp)
    13e8:	00e6c663          	blt	a3,a4,13f4 <_vfprintf_r+0x1248>
    13ec:	001af713          	andi	a4,s5,1
    13f0:	36070ce3          	beqz	a4,1f68 <_vfprintf_r+0x1dbc>
    13f4:	02c12703          	lw	a4,44(sp)
    13f8:	02812603          	lw	a2,40(sp)
    13fc:	00888893          	addi	a7,a7,8
    1400:	fee8ac23          	sw	a4,-8(a7)
    1404:	0f812703          	lw	a4,248(sp)
    1408:	00c787b3          	add	a5,a5,a2
    140c:	fec8ae23          	sw	a2,-4(a7)
    1410:	00170713          	addi	a4,a4,1
    1414:	0ef12e23          	sw	a5,252(sp)
    1418:	0ee12c23          	sw	a4,248(sp)
    141c:	00700613          	li	a2,7
    1420:	00e65463          	bge	a2,a4,1428 <_vfprintf_r+0x127c>
    1424:	2780106f          	j	269c <_vfprintf_r+0x24f0>
    1428:	01c12603          	lw	a2,28(sp)
    142c:	00cb8733          	add	a4,s7,a2
    1430:	40970733          	sub	a4,a4,s1
    1434:	40d60633          	sub	a2,a2,a3
    1438:	00060913          	mv	s2,a2
    143c:	00c75463          	bge	a4,a2,1444 <_vfprintf_r+0x1298>
    1440:	00070913          	mv	s2,a4
    1444:	03205863          	blez	s2,1474 <_vfprintf_r+0x12c8>
    1448:	0f812703          	lw	a4,248(sp)
    144c:	012787b3          	add	a5,a5,s2
    1450:	0098a023          	sw	s1,0(a7)
    1454:	00170713          	addi	a4,a4,1
    1458:	0128a223          	sw	s2,4(a7)
    145c:	0ef12e23          	sw	a5,252(sp)
    1460:	0ee12c23          	sw	a4,248(sp)
    1464:	00700693          	li	a3,7
    1468:	00888893          	addi	a7,a7,8
    146c:	00e6d463          	bge	a3,a4,1474 <_vfprintf_r+0x12c8>
    1470:	28c0106f          	j	26fc <_vfprintf_r+0x2550>
    1474:	fff94713          	not	a4,s2
    1478:	41f75713          	srai	a4,a4,0x1f
    147c:	00e97733          	and	a4,s2,a4
    1480:	40e604b3          	sub	s1,a2,a4
    1484:	00904463          	bgtz	s1,148c <_vfprintf_r+0x12e0>
    1488:	81cff06f          	j	4a4 <_vfprintf_r+0x2f8>
    148c:	0f812703          	lw	a4,248(sp)
    1490:	629a5063          	bge	s4,s1,1ab0 <_vfprintf_r+0x1904>
    1494:	00700913          	li	s2,7
    1498:	00c0006f          	j	14a4 <_vfprintf_r+0x12f8>
    149c:	ff048493          	addi	s1,s1,-16
    14a0:	609a5863          	bge	s4,s1,1ab0 <_vfprintf_r+0x1904>
    14a4:	01078793          	addi	a5,a5,16
    14a8:	00170713          	addi	a4,a4,1
    14ac:	0001f697          	auipc	a3,0x1f
    14b0:	dc468693          	addi	a3,a3,-572 # 20270 <zeroes.0>
    14b4:	00d8a023          	sw	a3,0(a7)
    14b8:	0148a223          	sw	s4,4(a7)
    14bc:	0ef12e23          	sw	a5,252(sp)
    14c0:	0ee12c23          	sw	a4,248(sp)
    14c4:	00888893          	addi	a7,a7,8
    14c8:	fce95ae3          	bge	s2,a4,149c <_vfprintf_r+0x12f0>
    14cc:	0f410613          	addi	a2,sp,244
    14d0:	000c0593          	mv	a1,s8
    14d4:	000d0513          	mv	a0,s10
    14d8:	3300a0ef          	jal	ra,b808 <__sprint_r>
    14dc:	d2051ae3          	bnez	a0,1210 <_vfprintf_r+0x1064>
    14e0:	0fc12783          	lw	a5,252(sp)
    14e4:	0f812703          	lw	a4,248(sp)
    14e8:	11c10893          	addi	a7,sp,284
    14ec:	fb1ff06f          	j	149c <_vfprintf_r+0x12f0>
    14f0:	001af793          	andi	a5,s5,1
    14f4:	c6079463          	bnez	a5,95c <_vfprintf_r+0x7b0>
    14f8:	00d8a223          	sw	a3,4(a7)
    14fc:	0f912e23          	sw	s9,252(sp)
    1500:	0e912c23          	sw	s1,248(sp)
    1504:	00700793          	li	a5,7
    1508:	2297ca63          	blt	a5,s1,173c <_vfprintf_r+0x1590>
    150c:	00270713          	addi	a4,a4,2
    1510:	01088893          	addi	a7,a7,16
    1514:	d18ff06f          	j	a2c <_vfprintf_r+0x880>
    1518:	d1b05a63          	blez	s11,a2c <_vfprintf_r+0x880>
    151c:	01ba4463          	blt	s4,s11,1524 <_vfprintf_r+0x1378>
    1520:	6980106f          	j	2bb8 <_vfprintf_r+0x2a0c>
    1524:	00700b93          	li	s7,7
    1528:	00068493          	mv	s1,a3
    152c:	0100006f          	j	153c <_vfprintf_r+0x1390>
    1530:	ff0d8d93          	addi	s11,s11,-16
    1534:	1dba5e63          	bge	s4,s11,1710 <_vfprintf_r+0x1564>
    1538:	00148493          	addi	s1,s1,1
    153c:	010c8c93          	addi	s9,s9,16
    1540:	0001f797          	auipc	a5,0x1f
    1544:	d3078793          	addi	a5,a5,-720 # 20270 <zeroes.0>
    1548:	00f92023          	sw	a5,0(s2)
    154c:	01492223          	sw	s4,4(s2)
    1550:	0f912e23          	sw	s9,252(sp)
    1554:	0e912c23          	sw	s1,248(sp)
    1558:	00890913          	addi	s2,s2,8
    155c:	fc9bdae3          	bge	s7,s1,1530 <_vfprintf_r+0x1384>
    1560:	0f410613          	addi	a2,sp,244
    1564:	000c0593          	mv	a1,s8
    1568:	000d0513          	mv	a0,s10
    156c:	29c0a0ef          	jal	ra,b808 <__sprint_r>
    1570:	ca0510e3          	bnez	a0,1210 <_vfprintf_r+0x1064>
    1574:	0fc12c83          	lw	s9,252(sp)
    1578:	0f812483          	lw	s1,248(sp)
    157c:	11c10913          	addi	s2,sp,284
    1580:	fb1ff06f          	j	1530 <_vfprintf_r+0x1384>
    1584:	01412683          	lw	a3,20(sp)
    1588:	010af793          	andi	a5,s5,16
    158c:	00468713          	addi	a4,a3,4
    1590:	16079263          	bnez	a5,16f4 <_vfprintf_r+0x1548>
    1594:	040af793          	andi	a5,s5,64
    1598:	68078063          	beqz	a5,1c18 <_vfprintf_r+0x1a6c>
    159c:	01412783          	lw	a5,20(sp)
    15a0:	00000913          	li	s2,0
    15a4:	00e12a23          	sw	a4,20(sp)
    15a8:	0007dd83          	lhu	s11,0(a5)
    15ac:	f50ff06f          	j	cfc <_vfprintf_r+0xb50>
    15b0:	01412683          	lw	a3,20(sp)
    15b4:	010af793          	andi	a5,s5,16
    15b8:	00468713          	addi	a4,a3,4
    15bc:	12079263          	bnez	a5,16e0 <_vfprintf_r+0x1534>
    15c0:	040af793          	andi	a5,s5,64
    15c4:	6a078663          	beqz	a5,1c70 <_vfprintf_r+0x1ac4>
    15c8:	01412783          	lw	a5,20(sp)
    15cc:	00e12a23          	sw	a4,20(sp)
    15d0:	00079d83          	lh	s11,0(a5)
    15d4:	41fdd913          	srai	s2,s11,0x1f
    15d8:	00090793          	mv	a5,s2
    15dc:	fa07d663          	bgez	a5,d88 <_vfprintf_r+0xbdc>
    15e0:	01b037b3          	snez	a5,s11
    15e4:	41200933          	neg	s2,s2
    15e8:	40f90933          	sub	s2,s2,a5
    15ec:	02d00793          	li	a5,45
    15f0:	0cf10ba3          	sb	a5,215(sp)
    15f4:	41b00db3          	neg	s11,s11
    15f8:	000a8b13          	mv	s6,s5
    15fc:	00100793          	li	a5,1
    1600:	e80ff06f          	j	c80 <_vfprintf_r+0xad4>
    1604:	01412703          	lw	a4,20(sp)
    1608:	010b7793          	andi	a5,s6,16
    160c:	00470693          	addi	a3,a4,4
    1610:	0a079e63          	bnez	a5,16cc <_vfprintf_r+0x1520>
    1614:	040b7793          	andi	a5,s6,64
    1618:	62078c63          	beqz	a5,1c50 <_vfprintf_r+0x1aa4>
    161c:	01412783          	lw	a5,20(sp)
    1620:	00000913          	li	s2,0
    1624:	00d12a23          	sw	a3,20(sp)
    1628:	0007dd83          	lhu	s11,0(a5)
    162c:	00100793          	li	a5,1
    1630:	e4cff06f          	j	c7c <_vfprintf_r+0xad0>
    1634:	001af713          	andi	a4,s5,1
    1638:	00071463          	bnez	a4,1640 <_vfprintf_r+0x1494>
    163c:	e69fe06f          	j	4a4 <_vfprintf_r+0x2f8>
    1640:	9a9ff06f          	j	fe8 <_vfprintf_r+0xe3c>
    1644:	000d8893          	mv	a7,s11
    1648:	f14ff06f          	j	d5c <_vfprintf_r+0xbb0>
    164c:	03000793          	li	a5,48
    1650:	1af10fa3          	sb	a5,447(sp)
    1654:	1bf10b93          	addi	s7,sp,447
    1658:	e50ff06f          	j	ca8 <_vfprintf_r+0xafc>
    165c:	03812783          	lw	a5,56(sp)
    1660:	00044483          	lbu	s1,0(s0)
    1664:	00079463          	bnez	a5,166c <_vfprintf_r+0x14c0>
    1668:	ce5fe06f          	j	34c <_vfprintf_r+0x1a0>
    166c:	0007c783          	lbu	a5,0(a5)
    1670:	00079463          	bnez	a5,1678 <_vfprintf_r+0x14cc>
    1674:	cd9fe06f          	j	34c <_vfprintf_r+0x1a0>
    1678:	400aea93          	ori	s5,s5,1024
    167c:	cd1fe06f          	j	34c <_vfprintf_r+0x1a0>
    1680:	00c12683          	lw	a3,12(sp)
    1684:	00040b93          	mv	s7,s0
    1688:	41f6d793          	srai	a5,a3,0x1f
    168c:	00d72023          	sw	a3,0(a4)
    1690:	00f72223          	sw	a5,4(a4)
    1694:	e59fe06f          	j	4ec <_vfprintf_r+0x340>
    1698:	01412703          	lw	a4,20(sp)
    169c:	00072783          	lw	a5,0(a4)
    16a0:	00470713          	addi	a4,a4,4
    16a4:	00e12a23          	sw	a4,20(sp)
    16a8:	0007a603          	lw	a2,0(a5)
    16ac:	0047a683          	lw	a3,4(a5)
    16b0:	0087a703          	lw	a4,8(a5)
    16b4:	00c7a783          	lw	a5,12(a5)
    16b8:	10c12023          	sw	a2,256(sp)
    16bc:	10d12223          	sw	a3,260(sp)
    16c0:	10e12423          	sw	a4,264(sp)
    16c4:	10f12623          	sw	a5,268(sp)
    16c8:	fa9fe06f          	j	670 <_vfprintf_r+0x4c4>
    16cc:	00072d83          	lw	s11,0(a4)
    16d0:	00000913          	li	s2,0
    16d4:	00d12a23          	sw	a3,20(sp)
    16d8:	00100793          	li	a5,1
    16dc:	da0ff06f          	j	c7c <_vfprintf_r+0xad0>
    16e0:	0006ad83          	lw	s11,0(a3)
    16e4:	00e12a23          	sw	a4,20(sp)
    16e8:	41fdd913          	srai	s2,s11,0x1f
    16ec:	00090793          	mv	a5,s2
    16f0:	e94ff06f          	j	d84 <_vfprintf_r+0xbd8>
    16f4:	0006ad83          	lw	s11,0(a3)
    16f8:	00000913          	li	s2,0
    16fc:	00e12a23          	sw	a4,20(sp)
    1700:	dfcff06f          	j	cfc <_vfprintf_r+0xb50>
    1704:	00068493          	mv	s1,a3
    1708:	c89044e3          	bgtz	s1,1390 <_vfprintf_r+0x11e4>
    170c:	cadff06f          	j	13b8 <_vfprintf_r+0x120c>
    1710:	00148713          	addi	a4,s1,1
    1714:	00890693          	addi	a3,s2,8
    1718:	0001f797          	auipc	a5,0x1f
    171c:	b5878793          	addi	a5,a5,-1192 # 20270 <zeroes.0>
    1720:	01bc8cb3          	add	s9,s9,s11
    1724:	00f92023          	sw	a5,0(s2)
    1728:	01b92223          	sw	s11,4(s2)
    172c:	0f912e23          	sw	s9,252(sp)
    1730:	0ee12c23          	sw	a4,248(sp)
    1734:	00700793          	li	a5,7
    1738:	7ce7d463          	bge	a5,a4,1f00 <_vfprintf_r+0x1d54>
    173c:	0f410613          	addi	a2,sp,244
    1740:	000c0593          	mv	a1,s8
    1744:	000d0513          	mv	a0,s10
    1748:	0c00a0ef          	jal	ra,b808 <__sprint_r>
    174c:	ac0512e3          	bnez	a0,1210 <_vfprintf_r+0x1064>
    1750:	0f812703          	lw	a4,248(sp)
    1754:	0fc12c83          	lw	s9,252(sp)
    1758:	12410893          	addi	a7,sp,292
    175c:	00170713          	addi	a4,a4,1
    1760:	11c10913          	addi	s2,sp,284
    1764:	ac8ff06f          	j	a2c <_vfprintf_r+0x880>
    1768:	000d8893          	mv	a7,s11
    176c:	000a8b13          	mv	s6,s5
    1770:	da0ff06f          	j	d10 <_vfprintf_r+0xb64>
    1774:	0001f797          	auipc	a5,0x1f
    1778:	91c78793          	addi	a5,a5,-1764 # 20090 <__malloc_trim_threshold+0x58>
    177c:	000d8893          	mv	a7,s11
    1780:	02f12823          	sw	a5,48(sp)
    1784:	020af793          	andi	a5,s5,32
    1788:	12078663          	beqz	a5,18b4 <_vfprintf_r+0x1708>
    178c:	01412783          	lw	a5,20(sp)
    1790:	00778b93          	addi	s7,a5,7
    1794:	ff8bfb93          	andi	s7,s7,-8
    1798:	000bad83          	lw	s11,0(s7)
    179c:	004ba903          	lw	s2,4(s7)
    17a0:	008b8793          	addi	a5,s7,8
    17a4:	00f12a23          	sw	a5,20(sp)
    17a8:	001af793          	andi	a5,s5,1
    17ac:	00078e63          	beqz	a5,17c8 <_vfprintf_r+0x161c>
    17b0:	012de7b3          	or	a5,s11,s2
    17b4:	00078a63          	beqz	a5,17c8 <_vfprintf_r+0x161c>
    17b8:	03000793          	li	a5,48
    17bc:	0cf10c23          	sb	a5,216(sp)
    17c0:	0c910ca3          	sb	s1,217(sp)
    17c4:	002aea93          	ori	s5,s5,2
    17c8:	bffafb13          	andi	s6,s5,-1025
    17cc:	00200793          	li	a5,2
    17d0:	cacff06f          	j	c7c <_vfprintf_r+0xad0>
    17d4:	00144483          	lbu	s1,1(s0)
    17d8:	200aea93          	ori	s5,s5,512
    17dc:	00140413          	addi	s0,s0,1
    17e0:	b6dfe06f          	j	34c <_vfprintf_r+0x1a0>
    17e4:	0001f797          	auipc	a5,0x1f
    17e8:	8c078793          	addi	a5,a5,-1856 # 200a4 <__malloc_trim_threshold+0x6c>
    17ec:	000d8893          	mv	a7,s11
    17f0:	02f12823          	sw	a5,48(sp)
    17f4:	f91ff06f          	j	1784 <_vfprintf_r+0x15d8>
    17f8:	000d8893          	mv	a7,s11
    17fc:	cdcff06f          	j	cd8 <_vfprintf_r+0xb2c>
    1800:	0f410613          	addi	a2,sp,244
    1804:	000c0593          	mv	a1,s8
    1808:	000d0513          	mv	a0,s10
    180c:	7fd090ef          	jal	ra,b808 <__sprint_r>
    1810:	a00510e3          	bnez	a0,1210 <_vfprintf_r+0x1064>
    1814:	0fc12783          	lw	a5,252(sp)
    1818:	11c10893          	addi	a7,sp,284
    181c:	ffcff06f          	j	1018 <_vfprintf_r+0xe6c>
    1820:	00144483          	lbu	s1,1(s0)
    1824:	020aea93          	ori	s5,s5,32
    1828:	00140413          	addi	s0,s0,1
    182c:	b21fe06f          	j	34c <_vfprintf_r+0x1a0>
    1830:	00600793          	li	a5,6
    1834:	000c8913          	mv	s2,s9
    1838:	7397e463          	bltu	a5,s9,1f60 <_vfprintf_r+0x1db4>
    183c:	00090b13          	mv	s6,s2
    1840:	01b12a23          	sw	s11,20(sp)
    1844:	0001fb97          	auipc	s7,0x1f
    1848:	874b8b93          	addi	s7,s7,-1932 # 200b8 <__malloc_trim_threshold+0x80>
    184c:	b79fe06f          	j	3c4 <_vfprintf_r+0x218>
    1850:	0f812703          	lw	a4,248(sp)
    1854:	469a5263          	bge	s4,s1,1cb8 <_vfprintf_r+0x1b0c>
    1858:	00700c93          	li	s9,7
    185c:	00c0006f          	j	1868 <_vfprintf_r+0x16bc>
    1860:	ff048493          	addi	s1,s1,-16
    1864:	449a5a63          	bge	s4,s1,1cb8 <_vfprintf_r+0x1b0c>
    1868:	01078793          	addi	a5,a5,16
    186c:	00170713          	addi	a4,a4,1
    1870:	0001f697          	auipc	a3,0x1f
    1874:	a0068693          	addi	a3,a3,-1536 # 20270 <zeroes.0>
    1878:	00d8a023          	sw	a3,0(a7)
    187c:	0148a223          	sw	s4,4(a7)
    1880:	0ef12e23          	sw	a5,252(sp)
    1884:	0ee12c23          	sw	a4,248(sp)
    1888:	00888893          	addi	a7,a7,8
    188c:	fcecdae3          	bge	s9,a4,1860 <_vfprintf_r+0x16b4>
    1890:	0f410613          	addi	a2,sp,244
    1894:	000c0593          	mv	a1,s8
    1898:	000d0513          	mv	a0,s10
    189c:	76d090ef          	jal	ra,b808 <__sprint_r>
    18a0:	960518e3          	bnez	a0,1210 <_vfprintf_r+0x1064>
    18a4:	0fc12783          	lw	a5,252(sp)
    18a8:	0f812703          	lw	a4,248(sp)
    18ac:	11c10893          	addi	a7,sp,284
    18b0:	fb1ff06f          	j	1860 <_vfprintf_r+0x16b4>
    18b4:	01412683          	lw	a3,20(sp)
    18b8:	010af793          	andi	a5,s5,16
    18bc:	00468713          	addi	a4,a3,4
    18c0:	1a078a63          	beqz	a5,1a74 <_vfprintf_r+0x18c8>
    18c4:	0006ad83          	lw	s11,0(a3)
    18c8:	00000913          	li	s2,0
    18cc:	00e12a23          	sw	a4,20(sp)
    18d0:	ed9ff06f          	j	17a8 <_vfprintf_r+0x15fc>
    18d4:	0f410613          	addi	a2,sp,244
    18d8:	000c0593          	mv	a1,s8
    18dc:	000d0513          	mv	a0,s10
    18e0:	729090ef          	jal	ra,b808 <__sprint_r>
    18e4:	920516e3          	bnez	a0,1210 <_vfprintf_r+0x1064>
    18e8:	0fc12c83          	lw	s9,252(sp)
    18ec:	0f812483          	lw	s1,248(sp)
    18f0:	11c10913          	addi	s2,sp,284
    18f4:	880ff06f          	j	974 <_vfprintf_r+0x7c8>
    18f8:	0f410613          	addi	a2,sp,244
    18fc:	000c0593          	mv	a1,s8
    1900:	000d0513          	mv	a0,s10
    1904:	705090ef          	jal	ra,b808 <__sprint_r>
    1908:	900514e3          	bnez	a0,1210 <_vfprintf_r+0x1064>
    190c:	0fc12c83          	lw	s9,252(sp)
    1910:	0f812483          	lw	s1,248(sp)
    1914:	11c10913          	addi	s2,sp,284
    1918:	888ff06f          	j	9a0 <_vfprintf_r+0x7f4>
    191c:	1c010b93          	addi	s7,sp,448
    1920:	00000793          	li	a5,0
    1924:	00812823          	sw	s0,16(sp)
    1928:	00912c23          	sw	s1,24(sp)
    192c:	000b8413          	mv	s0,s7
    1930:	03312023          	sw	s3,32(sp)
    1934:	000c0b93          	mv	s7,s8
    1938:	000d8493          	mv	s1,s11
    193c:	00090993          	mv	s3,s2
    1940:	03812d83          	lw	s11,56(sp)
    1944:	400b7a93          	andi	s5,s6,1024
    1948:	00088c13          	mv	s8,a7
    194c:	00078913          	mv	s2,a5
    1950:	0240006f          	j	1974 <_vfprintf_r+0x17c8>
    1954:	00a00613          	li	a2,10
    1958:	00000693          	li	a3,0
    195c:	00048513          	mv	a0,s1
    1960:	00098593          	mv	a1,s3
    1964:	2e80e0ef          	jal	ra,fc4c <__udivdi3>
    1968:	58098663          	beqz	s3,1ef4 <_vfprintf_r+0x1d48>
    196c:	00050493          	mv	s1,a0
    1970:	00058993          	mv	s3,a1
    1974:	00a00613          	li	a2,10
    1978:	00000693          	li	a3,0
    197c:	00048513          	mv	a0,s1
    1980:	00098593          	mv	a1,s3
    1984:	7680e0ef          	jal	ra,100ec <__umoddi3>
    1988:	03050513          	addi	a0,a0,48
    198c:	fea40fa3          	sb	a0,-1(s0)
    1990:	00190913          	addi	s2,s2,1
    1994:	fff40413          	addi	s0,s0,-1
    1998:	fa0a8ee3          	beqz	s5,1954 <_vfprintf_r+0x17a8>
    199c:	000dc683          	lbu	a3,0(s11)
    19a0:	fad91ae3          	bne	s2,a3,1954 <_vfprintf_r+0x17a8>
    19a4:	0ff00793          	li	a5,255
    19a8:	faf906e3          	beq	s2,a5,1954 <_vfprintf_r+0x17a8>
    19ac:	50099463          	bnez	s3,1eb4 <_vfprintf_r+0x1d08>
    19b0:	00900793          	li	a5,9
    19b4:	5097e063          	bltu	a5,s1,1eb4 <_vfprintf_r+0x1d08>
    19b8:	000c0893          	mv	a7,s8
    19bc:	1c010793          	addi	a5,sp,448
    19c0:	000b8c13          	mv	s8,s7
    19c4:	00040b93          	mv	s7,s0
    19c8:	01212e23          	sw	s2,28(sp)
    19cc:	01812483          	lw	s1,24(sp)
    19d0:	02012983          	lw	s3,32(sp)
    19d4:	01012403          	lw	s0,16(sp)
    19d8:	03b12c23          	sw	s11,56(sp)
    19dc:	41778933          	sub	s2,a5,s7
    19e0:	000b0a93          	mv	s5,s6
    19e4:	ac4ff06f          	j	ca8 <_vfprintf_r+0xafc>
    19e8:	0f812703          	lw	a4,248(sp)
    19ec:	0001e617          	auipc	a2,0x1e
    19f0:	6d460613          	addi	a2,a2,1748 # 200c0 <__malloc_trim_threshold+0x88>
    19f4:	00c8a023          	sw	a2,0(a7)
    19f8:	00178793          	addi	a5,a5,1
    19fc:	00100613          	li	a2,1
    1a00:	00170713          	addi	a4,a4,1
    1a04:	00c8a223          	sw	a2,4(a7)
    1a08:	0ef12e23          	sw	a5,252(sp)
    1a0c:	0ee12c23          	sw	a4,248(sp)
    1a10:	00700613          	li	a2,7
    1a14:	00888893          	addi	a7,a7,8
    1a18:	4ee64c63          	blt	a2,a4,1f10 <_vfprintf_r+0x1d64>
    1a1c:	14069a63          	bnez	a3,1b70 <_vfprintf_r+0x19c4>
    1a20:	01c12683          	lw	a3,28(sp)
    1a24:	001af713          	andi	a4,s5,1
    1a28:	00d76733          	or	a4,a4,a3
    1a2c:	00071463          	bnez	a4,1a34 <_vfprintf_r+0x1888>
    1a30:	a75fe06f          	j	4a4 <_vfprintf_r+0x2f8>
    1a34:	02c12703          	lw	a4,44(sp)
    1a38:	02812683          	lw	a3,40(sp)
    1a3c:	00e8a023          	sw	a4,0(a7)
    1a40:	0f812703          	lw	a4,248(sp)
    1a44:	00f687b3          	add	a5,a3,a5
    1a48:	00d8a223          	sw	a3,4(a7)
    1a4c:	00170713          	addi	a4,a4,1
    1a50:	0ef12e23          	sw	a5,252(sp)
    1a54:	0ee12c23          	sw	a4,248(sp)
    1a58:	00700693          	li	a3,7
    1a5c:	5ae6ca63          	blt	a3,a4,2010 <_vfprintf_r+0x1e64>
    1a60:	00888893          	addi	a7,a7,8
    1a64:	1400006f          	j	1ba4 <_vfprintf_r+0x19f8>
    1a68:	00040d13          	mv	s10,s0
    1a6c:	00048c13          	mv	s8,s1
    1a70:	fa0ff06f          	j	1210 <_vfprintf_r+0x1064>
    1a74:	040af793          	andi	a5,s5,64
    1a78:	1a078e63          	beqz	a5,1c34 <_vfprintf_r+0x1a88>
    1a7c:	01412783          	lw	a5,20(sp)
    1a80:	00000913          	li	s2,0
    1a84:	00e12a23          	sw	a4,20(sp)
    1a88:	0007dd83          	lhu	s11,0(a5)
    1a8c:	d1dff06f          	j	17a8 <_vfprintf_r+0x15fc>
    1a90:	0f410613          	addi	a2,sp,244
    1a94:	000c0593          	mv	a1,s8
    1a98:	000d0513          	mv	a0,s10
    1a9c:	56d090ef          	jal	ra,b808 <__sprint_r>
    1aa0:	f6051863          	bnez	a0,1210 <_vfprintf_r+0x1064>
    1aa4:	0fc12783          	lw	a5,252(sp)
    1aa8:	11c10893          	addi	a7,sp,284
    1aac:	d30ff06f          	j	fdc <_vfprintf_r+0xe30>
    1ab0:	0001e697          	auipc	a3,0x1e
    1ab4:	7c068693          	addi	a3,a3,1984 # 20270 <zeroes.0>
    1ab8:	00d8a023          	sw	a3,0(a7)
    1abc:	0098a223          	sw	s1,4(a7)
    1ac0:	009787b3          	add	a5,a5,s1
    1ac4:	00170713          	addi	a4,a4,1
    1ac8:	0ef12e23          	sw	a5,252(sp)
    1acc:	0ee12c23          	sw	a4,248(sp)
    1ad0:	00700693          	li	a3,7
    1ad4:	00e6c463          	blt	a3,a4,1adc <_vfprintf_r+0x1930>
    1ad8:	9c9fe06f          	j	4a0 <_vfprintf_r+0x2f4>
    1adc:	f75fe06f          	j	a50 <_vfprintf_r+0x8a4>
    1ae0:	10012783          	lw	a5,256(sp)
    1ae4:	0b010593          	addi	a1,sp,176
    1ae8:	0c010513          	addi	a0,sp,192
    1aec:	0cf12023          	sw	a5,192(sp)
    1af0:	10412783          	lw	a5,260(sp)
    1af4:	0a012823          	sw	zero,176(sp)
    1af8:	0a012a23          	sw	zero,180(sp)
    1afc:	0cf12223          	sw	a5,196(sp)
    1b00:	10812783          	lw	a5,264(sp)
    1b04:	0a012c23          	sw	zero,184(sp)
    1b08:	0a012e23          	sw	zero,188(sp)
    1b0c:	0cf12423          	sw	a5,200(sp)
    1b10:	10c12783          	lw	a5,268(sp)
    1b14:	0cf12623          	sw	a5,204(sp)
    1b18:	2350f0ef          	jal	ra,1154c <__letf2>
    1b1c:	01012883          	lw	a7,16(sp)
    1b20:	3a0542e3          	bltz	a0,26c4 <_vfprintf_r+0x2518>
    1b24:	0d714783          	lbu	a5,215(sp)
    1b28:	04700713          	li	a4,71
    1b2c:	0001eb97          	auipc	s7,0x1e
    1b30:	554b8b93          	addi	s7,s7,1364 # 20080 <__malloc_trim_threshold+0x48>
    1b34:	40974063          	blt	a4,s1,1f34 <_vfprintf_r+0x1d88>
    1b38:	00012823          	sw	zero,16(sp)
    1b3c:	02012223          	sw	zero,36(sp)
    1b40:	02012023          	sw	zero,32(sp)
    1b44:	00012c23          	sw	zero,24(sp)
    1b48:	f7fafa93          	andi	s5,s5,-129
    1b4c:	00300b13          	li	s6,3
    1b50:	00300913          	li	s2,3
    1b54:	00000c93          	li	s9,0
    1b58:	86079863          	bnez	a5,bc8 <_vfprintf_r+0xa1c>
    1b5c:	87dfe06f          	j	3d8 <_vfprintf_r+0x22c>
    1b60:	00c12783          	lw	a5,12(sp)
    1b64:	00040b93          	mv	s7,s0
    1b68:	00f72023          	sw	a5,0(a4)
    1b6c:	981fe06f          	j	4ec <_vfprintf_r+0x340>
    1b70:	02c12703          	lw	a4,44(sp)
    1b74:	02812603          	lw	a2,40(sp)
    1b78:	00888893          	addi	a7,a7,8
    1b7c:	fee8ac23          	sw	a4,-8(a7)
    1b80:	0f812703          	lw	a4,248(sp)
    1b84:	00f607b3          	add	a5,a2,a5
    1b88:	fec8ae23          	sw	a2,-4(a7)
    1b8c:	00170713          	addi	a4,a4,1
    1b90:	0ef12e23          	sw	a5,252(sp)
    1b94:	0ee12c23          	sw	a4,248(sp)
    1b98:	00700613          	li	a2,7
    1b9c:	46e64a63          	blt	a2,a4,2010 <_vfprintf_r+0x1e64>
    1ba0:	3e06c2e3          	bltz	a3,2784 <_vfprintf_r+0x25d8>
    1ba4:	01c12683          	lw	a3,28(sp)
    1ba8:	00170713          	addi	a4,a4,1
    1bac:	0178a023          	sw	s7,0(a7)
    1bb0:	00f687b3          	add	a5,a3,a5
    1bb4:	00d8a223          	sw	a3,4(a7)
    1bb8:	0ef12e23          	sw	a5,252(sp)
    1bbc:	0ee12c23          	sw	a4,248(sp)
    1bc0:	00700693          	li	a3,7
    1bc4:	00e6c463          	blt	a3,a4,1bcc <_vfprintf_r+0x1a20>
    1bc8:	8d9fe06f          	j	4a0 <_vfprintf_r+0x2f4>
    1bcc:	e85fe06f          	j	a50 <_vfprintf_r+0x8a4>
    1bd0:	000b8513          	mv	a0,s7
    1bd4:	03112e23          	sw	a7,60(sp)
    1bd8:	7e5060ef          	jal	ra,8bbc <strlen>
    1bdc:	0d714783          	lbu	a5,215(sp)
    1be0:	fff54b13          	not	s6,a0
    1be4:	41fb5b13          	srai	s6,s6,0x1f
    1be8:	01b12a23          	sw	s11,20(sp)
    1bec:	00012823          	sw	zero,16(sp)
    1bf0:	02012223          	sw	zero,36(sp)
    1bf4:	02012023          	sw	zero,32(sp)
    1bf8:	00012c23          	sw	zero,24(sp)
    1bfc:	03c12883          	lw	a7,60(sp)
    1c00:	00050913          	mv	s2,a0
    1c04:	01657b33          	and	s6,a0,s6
    1c08:	00000c93          	li	s9,0
    1c0c:	00078463          	beqz	a5,1c14 <_vfprintf_r+0x1a68>
    1c10:	fb9fe06f          	j	bc8 <_vfprintf_r+0xa1c>
    1c14:	fc4fe06f          	j	3d8 <_vfprintf_r+0x22c>
    1c18:	200af793          	andi	a5,s5,512
    1c1c:	3c078063          	beqz	a5,1fdc <_vfprintf_r+0x1e30>
    1c20:	01412783          	lw	a5,20(sp)
    1c24:	00000913          	li	s2,0
    1c28:	00e12a23          	sw	a4,20(sp)
    1c2c:	0007cd83          	lbu	s11,0(a5)
    1c30:	8ccff06f          	j	cfc <_vfprintf_r+0xb50>
    1c34:	200af793          	andi	a5,s5,512
    1c38:	38078863          	beqz	a5,1fc8 <_vfprintf_r+0x1e1c>
    1c3c:	01412783          	lw	a5,20(sp)
    1c40:	00000913          	li	s2,0
    1c44:	00e12a23          	sw	a4,20(sp)
    1c48:	0007cd83          	lbu	s11,0(a5)
    1c4c:	b5dff06f          	j	17a8 <_vfprintf_r+0x15fc>
    1c50:	200b7793          	andi	a5,s6,512
    1c54:	34078e63          	beqz	a5,1fb0 <_vfprintf_r+0x1e04>
    1c58:	01412783          	lw	a5,20(sp)
    1c5c:	00000913          	li	s2,0
    1c60:	00d12a23          	sw	a3,20(sp)
    1c64:	0007cd83          	lbu	s11,0(a5)
    1c68:	00100793          	li	a5,1
    1c6c:	810ff06f          	j	c7c <_vfprintf_r+0xad0>
    1c70:	200af793          	andi	a5,s5,512
    1c74:	32078263          	beqz	a5,1f98 <_vfprintf_r+0x1dec>
    1c78:	01412783          	lw	a5,20(sp)
    1c7c:	00e12a23          	sw	a4,20(sp)
    1c80:	00078d83          	lb	s11,0(a5)
    1c84:	41fdd913          	srai	s2,s11,0x1f
    1c88:	00090793          	mv	a5,s2
    1c8c:	8f8ff06f          	j	d84 <_vfprintf_r+0xbd8>
    1c90:	10c12783          	lw	a5,268(sp)
    1c94:	3407ce63          	bltz	a5,1ff0 <_vfprintf_r+0x1e44>
    1c98:	0d714783          	lbu	a5,215(sp)
    1c9c:	04700713          	li	a4,71
    1ca0:	0001eb97          	auipc	s7,0x1e
    1ca4:	3e8b8b93          	addi	s7,s7,1000 # 20088 <__malloc_trim_threshold+0x50>
    1ca8:	e89758e3          	bge	a4,s1,1b38 <_vfprintf_r+0x198c>
    1cac:	0001eb97          	auipc	s7,0x1e
    1cb0:	3e0b8b93          	addi	s7,s7,992 # 2008c <__malloc_trim_threshold+0x54>
    1cb4:	e85ff06f          	j	1b38 <_vfprintf_r+0x198c>
    1cb8:	0001e697          	auipc	a3,0x1e
    1cbc:	5b868693          	addi	a3,a3,1464 # 20270 <zeroes.0>
    1cc0:	009787b3          	add	a5,a5,s1
    1cc4:	00170713          	addi	a4,a4,1
    1cc8:	00d8a023          	sw	a3,0(a7)
    1ccc:	0098a223          	sw	s1,4(a7)
    1cd0:	0ef12e23          	sw	a5,252(sp)
    1cd4:	0ee12c23          	sw	a4,248(sp)
    1cd8:	00700693          	li	a3,7
    1cdc:	00888893          	addi	a7,a7,8
    1ce0:	eee6d863          	bge	a3,a4,13d0 <_vfprintf_r+0x1224>
    1ce4:	0f410613          	addi	a2,sp,244
    1ce8:	000c0593          	mv	a1,s8
    1cec:	000d0513          	mv	a0,s10
    1cf0:	319090ef          	jal	ra,b808 <__sprint_r>
    1cf4:	d0051e63          	bnez	a0,1210 <_vfprintf_r+0x1064>
    1cf8:	0fc12783          	lw	a5,252(sp)
    1cfc:	11c10893          	addi	a7,sp,284
    1d00:	ed0ff06f          	j	13d0 <_vfprintf_r+0x1224>
    1d04:	01c12703          	lw	a4,28(sp)
    1d08:	02012c83          	lw	s9,32(sp)
    1d0c:	01512c23          	sw	s5,24(sp)
    1d10:	02812e23          	sw	s0,60(sp)
    1d14:	05312023          	sw	s3,64(sp)
    1d18:	03612023          	sw	s6,32(sp)
    1d1c:	02412983          	lw	s3,36(sp)
    1d20:	03712223          	sw	s7,36(sp)
    1d24:	00eb8db3          	add	s11,s7,a4
    1d28:	03812403          	lw	s0,56(sp)
    1d2c:	04412a83          	lw	s5,68(sp)
    1d30:	04812b03          	lw	s6,72(sp)
    1d34:	00700913          	li	s2,7
    1d38:	000c0b93          	mv	s7,s8
    1d3c:	080c8863          	beqz	s9,1dcc <_vfprintf_r+0x1c20>
    1d40:	08099863          	bnez	s3,1dd0 <_vfprintf_r+0x1c24>
    1d44:	fff40413          	addi	s0,s0,-1
    1d48:	fffc8c93          	addi	s9,s9,-1
    1d4c:	0f812703          	lw	a4,248(sp)
    1d50:	015787b3          	add	a5,a5,s5
    1d54:	0168a023          	sw	s6,0(a7)
    1d58:	00170713          	addi	a4,a4,1
    1d5c:	0158a223          	sw	s5,4(a7)
    1d60:	0ef12e23          	sw	a5,252(sp)
    1d64:	0ee12c23          	sw	a4,248(sp)
    1d68:	00888893          	addi	a7,a7,8
    1d6c:	10e94263          	blt	s2,a4,1e70 <_vfprintf_r+0x1cc4>
    1d70:	00044683          	lbu	a3,0(s0)
    1d74:	409d8633          	sub	a2,s11,s1
    1d78:	00068c13          	mv	s8,a3
    1d7c:	00d65463          	bge	a2,a3,1d84 <_vfprintf_r+0x1bd8>
    1d80:	00060c13          	mv	s8,a2
    1d84:	03805663          	blez	s8,1db0 <_vfprintf_r+0x1c04>
    1d88:	0f812683          	lw	a3,248(sp)
    1d8c:	018787b3          	add	a5,a5,s8
    1d90:	0098a023          	sw	s1,0(a7)
    1d94:	00168693          	addi	a3,a3,1
    1d98:	0188a223          	sw	s8,4(a7)
    1d9c:	0ef12e23          	sw	a5,252(sp)
    1da0:	0ed12c23          	sw	a3,248(sp)
    1da4:	0ed94663          	blt	s2,a3,1e90 <_vfprintf_r+0x1ce4>
    1da8:	00044683          	lbu	a3,0(s0)
    1dac:	00888893          	addi	a7,a7,8
    1db0:	fffc4613          	not	a2,s8
    1db4:	41f65613          	srai	a2,a2,0x1f
    1db8:	00cc7733          	and	a4,s8,a2
    1dbc:	40e68c33          	sub	s8,a3,a4
    1dc0:	01804c63          	bgtz	s8,1dd8 <_vfprintf_r+0x1c2c>
    1dc4:	00d484b3          	add	s1,s1,a3
    1dc8:	f60c9ce3          	bnez	s9,1d40 <_vfprintf_r+0x1b94>
    1dcc:	66098c63          	beqz	s3,2444 <_vfprintf_r+0x2298>
    1dd0:	fff98993          	addi	s3,s3,-1
    1dd4:	f79ff06f          	j	1d4c <_vfprintf_r+0x1ba0>
    1dd8:	0f812683          	lw	a3,248(sp)
    1ddc:	018a4863          	blt	s4,s8,1dec <_vfprintf_r+0x1c40>
    1de0:	05c0006f          	j	1e3c <_vfprintf_r+0x1c90>
    1de4:	ff0c0c13          	addi	s8,s8,-16
    1de8:	058a5a63          	bge	s4,s8,1e3c <_vfprintf_r+0x1c90>
    1dec:	01078793          	addi	a5,a5,16
    1df0:	00168693          	addi	a3,a3,1
    1df4:	0001e717          	auipc	a4,0x1e
    1df8:	47c70713          	addi	a4,a4,1148 # 20270 <zeroes.0>
    1dfc:	00e8a023          	sw	a4,0(a7)
    1e00:	0148a223          	sw	s4,4(a7)
    1e04:	0ef12e23          	sw	a5,252(sp)
    1e08:	0ed12c23          	sw	a3,248(sp)
    1e0c:	00888893          	addi	a7,a7,8
    1e10:	fcd95ae3          	bge	s2,a3,1de4 <_vfprintf_r+0x1c38>
    1e14:	0f410613          	addi	a2,sp,244
    1e18:	000b8593          	mv	a1,s7
    1e1c:	000d0513          	mv	a0,s10
    1e20:	1e9090ef          	jal	ra,b808 <__sprint_r>
    1e24:	6c051e63          	bnez	a0,2500 <_vfprintf_r+0x2354>
    1e28:	ff0c0c13          	addi	s8,s8,-16
    1e2c:	0fc12783          	lw	a5,252(sp)
    1e30:	0f812683          	lw	a3,248(sp)
    1e34:	11c10893          	addi	a7,sp,284
    1e38:	fb8a4ae3          	blt	s4,s8,1dec <_vfprintf_r+0x1c40>
    1e3c:	018787b3          	add	a5,a5,s8
    1e40:	00168693          	addi	a3,a3,1
    1e44:	0001e717          	auipc	a4,0x1e
    1e48:	42c70713          	addi	a4,a4,1068 # 20270 <zeroes.0>
    1e4c:	00e8a023          	sw	a4,0(a7)
    1e50:	0188a223          	sw	s8,4(a7)
    1e54:	0ef12e23          	sw	a5,252(sp)
    1e58:	0ed12c23          	sw	a3,248(sp)
    1e5c:	6cd94463          	blt	s2,a3,2524 <_vfprintf_r+0x2378>
    1e60:	00044683          	lbu	a3,0(s0)
    1e64:	00888893          	addi	a7,a7,8
    1e68:	00d484b3          	add	s1,s1,a3
    1e6c:	f5dff06f          	j	1dc8 <_vfprintf_r+0x1c1c>
    1e70:	0f410613          	addi	a2,sp,244
    1e74:	000b8593          	mv	a1,s7
    1e78:	000d0513          	mv	a0,s10
    1e7c:	18d090ef          	jal	ra,b808 <__sprint_r>
    1e80:	68051063          	bnez	a0,2500 <_vfprintf_r+0x2354>
    1e84:	0fc12783          	lw	a5,252(sp)
    1e88:	11c10893          	addi	a7,sp,284
    1e8c:	ee5ff06f          	j	1d70 <_vfprintf_r+0x1bc4>
    1e90:	0f410613          	addi	a2,sp,244
    1e94:	000b8593          	mv	a1,s7
    1e98:	000d0513          	mv	a0,s10
    1e9c:	16d090ef          	jal	ra,b808 <__sprint_r>
    1ea0:	66051063          	bnez	a0,2500 <_vfprintf_r+0x2354>
    1ea4:	00044683          	lbu	a3,0(s0)
    1ea8:	0fc12783          	lw	a5,252(sp)
    1eac:	11c10893          	addi	a7,sp,284
    1eb0:	f01ff06f          	j	1db0 <_vfprintf_r+0x1c04>
    1eb4:	04412783          	lw	a5,68(sp)
    1eb8:	04812583          	lw	a1,72(sp)
    1ebc:	00000913          	li	s2,0
    1ec0:	40f40433          	sub	s0,s0,a5
    1ec4:	00078613          	mv	a2,a5
    1ec8:	00040513          	mv	a0,s0
    1ecc:	57d060ef          	jal	ra,8c48 <strncpy>
    1ed0:	001dc583          	lbu	a1,1(s11)
    1ed4:	00a00613          	li	a2,10
    1ed8:	00000693          	li	a3,0
    1edc:	00b03833          	snez	a6,a1
    1ee0:	00048513          	mv	a0,s1
    1ee4:	00098593          	mv	a1,s3
    1ee8:	010d8db3          	add	s11,s11,a6
    1eec:	5610d0ef          	jal	ra,fc4c <__udivdi3>
    1ef0:	a7dff06f          	j	196c <_vfprintf_r+0x17c0>
    1ef4:	00900793          	li	a5,9
    1ef8:	a697eae3          	bltu	a5,s1,196c <_vfprintf_r+0x17c0>
    1efc:	abdff06f          	j	19b8 <_vfprintf_r+0x180c>
    1f00:	00170713          	addi	a4,a4,1
    1f04:	00868893          	addi	a7,a3,8
    1f08:	00068913          	mv	s2,a3
    1f0c:	b21fe06f          	j	a2c <_vfprintf_r+0x880>
    1f10:	0f410613          	addi	a2,sp,244
    1f14:	000c0593          	mv	a1,s8
    1f18:	000d0513          	mv	a0,s10
    1f1c:	0ed090ef          	jal	ra,b808 <__sprint_r>
    1f20:	ae051863          	bnez	a0,1210 <_vfprintf_r+0x1064>
    1f24:	0dc12683          	lw	a3,220(sp)
    1f28:	0fc12783          	lw	a5,252(sp)
    1f2c:	11c10893          	addi	a7,sp,284
    1f30:	aedff06f          	j	1a1c <_vfprintf_r+0x1870>
    1f34:	0001eb97          	auipc	s7,0x1e
    1f38:	150b8b93          	addi	s7,s7,336 # 20084 <__malloc_trim_threshold+0x4c>
    1f3c:	bfdff06f          	j	1b38 <_vfprintf_r+0x198c>
    1f40:	0f410613          	addi	a2,sp,244
    1f44:	000c0593          	mv	a1,s8
    1f48:	000d0513          	mv	a0,s10
    1f4c:	0bd090ef          	jal	ra,b808 <__sprint_r>
    1f50:	ac051063          	bnez	a0,1210 <_vfprintf_r+0x1064>
    1f54:	0fc12783          	lw	a5,252(sp)
    1f58:	11c10893          	addi	a7,sp,284
    1f5c:	c5cff06f          	j	13b8 <_vfprintf_r+0x120c>
    1f60:	00600913          	li	s2,6
    1f64:	8d9ff06f          	j	183c <_vfprintf_r+0x1690>
    1f68:	01c12703          	lw	a4,28(sp)
    1f6c:	00eb8833          	add	a6,s7,a4
    1f70:	40d70633          	sub	a2,a4,a3
    1f74:	409806b3          	sub	a3,a6,s1
    1f78:	00060913          	mv	s2,a2
    1f7c:	cec6dc63          	bge	a3,a2,1474 <_vfprintf_r+0x12c8>
    1f80:	00068913          	mv	s2,a3
    1f84:	cf0ff06f          	j	1474 <_vfprintf_r+0x12c8>
    1f88:	00c12783          	lw	a5,12(sp)
    1f8c:	00040b93          	mv	s7,s0
    1f90:	00f71023          	sh	a5,0(a4)
    1f94:	d58fe06f          	j	4ec <_vfprintf_r+0x340>
    1f98:	01412783          	lw	a5,20(sp)
    1f9c:	00e12a23          	sw	a4,20(sp)
    1fa0:	0007ad83          	lw	s11,0(a5)
    1fa4:	41fdd913          	srai	s2,s11,0x1f
    1fa8:	00090793          	mv	a5,s2
    1fac:	dd9fe06f          	j	d84 <_vfprintf_r+0xbd8>
    1fb0:	01412783          	lw	a5,20(sp)
    1fb4:	00000913          	li	s2,0
    1fb8:	00d12a23          	sw	a3,20(sp)
    1fbc:	0007ad83          	lw	s11,0(a5)
    1fc0:	00100793          	li	a5,1
    1fc4:	cb9fe06f          	j	c7c <_vfprintf_r+0xad0>
    1fc8:	01412783          	lw	a5,20(sp)
    1fcc:	00000913          	li	s2,0
    1fd0:	00e12a23          	sw	a4,20(sp)
    1fd4:	0007ad83          	lw	s11,0(a5)
    1fd8:	fd0ff06f          	j	17a8 <_vfprintf_r+0x15fc>
    1fdc:	01412783          	lw	a5,20(sp)
    1fe0:	00000913          	li	s2,0
    1fe4:	00e12a23          	sw	a4,20(sp)
    1fe8:	0007ad83          	lw	s11,0(a5)
    1fec:	d11fe06f          	j	cfc <_vfprintf_r+0xb50>
    1ff0:	02d00793          	li	a5,45
    1ff4:	0cf10ba3          	sb	a5,215(sp)
    1ff8:	ca5ff06f          	j	1c9c <_vfprintf_r+0x1af0>
    1ffc:	0f410613          	addi	a2,sp,244
    2000:	000c0593          	mv	a1,s8
    2004:	000d0513          	mv	a0,s10
    2008:	001090ef          	jal	ra,b808 <__sprint_r>
    200c:	cf4fe06f          	j	500 <_vfprintf_r+0x354>
    2010:	0f410613          	addi	a2,sp,244
    2014:	000c0593          	mv	a1,s8
    2018:	000d0513          	mv	a0,s10
    201c:	7ec090ef          	jal	ra,b808 <__sprint_r>
    2020:	9e051863          	bnez	a0,1210 <_vfprintf_r+0x1064>
    2024:	0dc12683          	lw	a3,220(sp)
    2028:	0fc12783          	lw	a5,252(sp)
    202c:	0f812703          	lw	a4,248(sp)
    2030:	11c10893          	addi	a7,sp,284
    2034:	b6dff06f          	j	1ba0 <_vfprintf_r+0x19f4>
    2038:	03000793          	li	a5,48
    203c:	0cf10c23          	sb	a5,216(sp)
    2040:	05800793          	li	a5,88
    2044:	002ae713          	ori	a4,s5,2
    2048:	0cf10ca3          	sb	a5,217(sp)
    204c:	04e12823          	sw	a4,80(sp)
    2050:	06300793          	li	a5,99
    2054:	00012823          	sw	zero,16(sp)
    2058:	15c10b93          	addi	s7,sp,348
    205c:	0d97cae3          	blt	a5,s9,2930 <_vfprintf_r+0x2784>
    2060:	10c12e03          	lw	t3,268(sp)
    2064:	fdf4f793          	andi	a5,s1,-33
    2068:	02f12e23          	sw	a5,60(sp)
    206c:	06012423          	sw	zero,104(sp)
    2070:	10012e83          	lw	t4,256(sp)
    2074:	10412f03          	lw	t5,260(sp)
    2078:	10812f83          	lw	t6,264(sp)
    207c:	102aea93          	ori	s5,s5,258
    2080:	480e4863          	bltz	t3,2510 <_vfprintf_r+0x2364>
    2084:	06100793          	li	a5,97
    2088:	1af48ae3          	beq	s1,a5,2a3c <_vfprintf_r+0x2890>
    208c:	04100793          	li	a5,65
    2090:	00f48463          	beq	s1,a5,2098 <_vfprintf_r+0x1eec>
    2094:	e6cfe06f          	j	700 <_vfprintf_r+0x554>
    2098:	0c010b13          	addi	s6,sp,192
    209c:	000b0513          	mv	a0,s6
    20a0:	05112a23          	sw	a7,84(sp)
    20a4:	0de12223          	sw	t5,196(sp)
    20a8:	0df12423          	sw	t6,200(sp)
    20ac:	0dd12023          	sw	t4,192(sp)
    20b0:	0dc12623          	sw	t3,204(sp)
    20b4:	130120ef          	jal	ra,141e4 <__trunctfdf2>
    20b8:	0dc10613          	addi	a2,sp,220
    20bc:	5e0060ef          	jal	ra,869c <frexp>
    20c0:	00058613          	mv	a2,a1
    20c4:	00050593          	mv	a1,a0
    20c8:	000b0513          	mv	a0,s6
    20cc:	6e5110ef          	jal	ra,13fb0 <__extenddftf2>
    20d0:	0c012e83          	lw	t4,192(sp)
    20d4:	0001e797          	auipc	a5,0x1e
    20d8:	17c78793          	addi	a5,a5,380 # 20250 <__malloc_trim_threshold+0x218>
    20dc:	0007ae03          	lw	t3,0(a5)
    20e0:	0bd12023          	sw	t4,160(sp)
    20e4:	0c412e83          	lw	t4,196(sp)
    20e8:	0047a683          	lw	a3,4(a5)
    20ec:	0087a703          	lw	a4,8(a5)
    20f0:	0bd12223          	sw	t4,164(sp)
    20f4:	0c812e83          	lw	t4,200(sp)
    20f8:	00c7a783          	lw	a5,12(a5)
    20fc:	0a010613          	addi	a2,sp,160
    2100:	0bd12423          	sw	t4,168(sp)
    2104:	0cc12e83          	lw	t4,204(sp)
    2108:	0b010913          	addi	s2,sp,176
    210c:	00060593          	mv	a1,a2
    2110:	00c12c23          	sw	a2,24(sp)
    2114:	00090513          	mv	a0,s2
    2118:	09010613          	addi	a2,sp,144
    211c:	04c12023          	sw	a2,64(sp)
    2120:	0bd12623          	sw	t4,172(sp)
    2124:	09c12823          	sw	t3,144(sp)
    2128:	08d12a23          	sw	a3,148(sp)
    212c:	08e12c23          	sw	a4,152(sp)
    2130:	08f12e23          	sw	a5,156(sp)
    2134:	5840f0ef          	jal	ra,116b8 <__multf3>
    2138:	0b012683          	lw	a3,176(sp)
    213c:	0b412e03          	lw	t3,180(sp)
    2140:	0b812e83          	lw	t4,184(sp)
    2144:	0bc12f03          	lw	t5,188(sp)
    2148:	00090593          	mv	a1,s2
    214c:	000b0513          	mv	a0,s6
    2150:	0cd12023          	sw	a3,192(sp)
    2154:	04d12623          	sw	a3,76(sp)
    2158:	0dc12223          	sw	t3,196(sp)
    215c:	03c12223          	sw	t3,36(sp)
    2160:	0dd12423          	sw	t4,200(sp)
    2164:	03d12023          	sw	t4,32(sp)
    2168:	0de12623          	sw	t5,204(sp)
    216c:	01e12e23          	sw	t5,28(sp)
    2170:	0a012823          	sw	zero,176(sp)
    2174:	0a012a23          	sw	zero,180(sp)
    2178:	0a012c23          	sw	zero,184(sp)
    217c:	0a012e23          	sw	zero,188(sp)
    2180:	1940f0ef          	jal	ra,11314 <__eqtf2>
    2184:	01c12f03          	lw	t5,28(sp)
    2188:	02012e83          	lw	t4,32(sp)
    218c:	02412e03          	lw	t3,36(sp)
    2190:	04c12683          	lw	a3,76(sp)
    2194:	05412883          	lw	a7,84(sp)
    2198:	00051663          	bnez	a0,21a4 <_vfprintf_r+0x1ff8>
    219c:	00100793          	li	a5,1
    21a0:	0cf12e23          	sw	a5,220(sp)
    21a4:	0001e797          	auipc	a5,0x1e
    21a8:	f0078793          	addi	a5,a5,-256 # 200a4 <__malloc_trim_threshold+0x6c>
    21ac:	02f12223          	sw	a5,36(sp)
    21b0:	0001e797          	auipc	a5,0x1e
    21b4:	08078793          	addi	a5,a5,128 # 20230 <__malloc_trim_threshold+0x1f8>
    21b8:	0007a703          	lw	a4,0(a5)
    21bc:	07512623          	sw	s5,108(sp)
    21c0:	06912a23          	sw	s1,116(sp)
    21c4:	04e12c23          	sw	a4,88(sp)
    21c8:	0047a703          	lw	a4,4(a5)
    21cc:	07312c23          	sw	s3,120(sp)
    21d0:	000b8a93          	mv	s5,s7
    21d4:	04e12e23          	sw	a4,92(sp)
    21d8:	0087a703          	lw	a4,8(a5)
    21dc:	00c7a783          	lw	a5,12(a5)
    21e0:	09a12223          	sw	s10,132(sp)
    21e4:	06e12023          	sw	a4,96(sp)
    21e8:	fffc8713          	addi	a4,s9,-1
    21ec:	09812423          	sw	s8,136(sp)
    21f0:	09712623          	sw	s7,140(sp)
    21f4:	01812483          	lw	s1,24(sp)
    21f8:	06f12223          	sw	a5,100(sp)
    21fc:	06812823          	sw	s0,112(sp)
    2200:	00070993          	mv	s3,a4
    2204:	07912e23          	sw	s9,124(sp)
    2208:	09112023          	sw	a7,128(sp)
    220c:	00068b93          	mv	s7,a3
    2210:	000e0c13          	mv	s8,t3
    2214:	000e8d13          	mv	s10,t4
    2218:	000f0d93          	mv	s11,t5
    221c:	0500006f          	j	226c <_vfprintf_r+0x20c0>
    2220:	00090593          	mv	a1,s2
    2224:	000b0513          	mv	a0,s6
    2228:	02c12023          	sw	a2,32(sp)
    222c:	01f12e23          	sw	t6,28(sp)
    2230:	00512c23          	sw	t0,24(sp)
    2234:	0c512223          	sw	t0,196(sp)
    2238:	0df12423          	sw	t6,200(sp)
    223c:	0cc12623          	sw	a2,204(sp)
    2240:	0d912023          	sw	s9,192(sp)
    2244:	0a012823          	sw	zero,176(sp)
    2248:	0a012a23          	sw	zero,180(sp)
    224c:	0a012c23          	sw	zero,184(sp)
    2250:	0a012e23          	sw	zero,188(sp)
    2254:	0c00f0ef          	jal	ra,11314 <__eqtf2>
    2258:	fff98993          	addi	s3,s3,-1
    225c:	000c0293          	mv	t0,s8
    2260:	000d0f93          	mv	t6,s10
    2264:	000d8613          	mv	a2,s11
    2268:	0e050863          	beqz	a0,2358 <_vfprintf_r+0x21ac>
    226c:	05812783          	lw	a5,88(sp)
    2270:	00048613          	mv	a2,s1
    2274:	00090593          	mv	a1,s2
    2278:	0af12023          	sw	a5,160(sp)
    227c:	05c12783          	lw	a5,92(sp)
    2280:	000b0513          	mv	a0,s6
    2284:	0b712823          	sw	s7,176(sp)
    2288:	0af12223          	sw	a5,164(sp)
    228c:	06012783          	lw	a5,96(sp)
    2290:	0b812a23          	sw	s8,180(sp)
    2294:	0ba12c23          	sw	s10,184(sp)
    2298:	0af12423          	sw	a5,168(sp)
    229c:	06412783          	lw	a5,100(sp)
    22a0:	0bb12e23          	sw	s11,188(sp)
    22a4:	0af12623          	sw	a5,172(sp)
    22a8:	4100f0ef          	jal	ra,116b8 <__multf3>
    22ac:	000b0513          	mv	a0,s6
    22b0:	299110ef          	jal	ra,13d48 <__fixtfsi>
    22b4:	00050593          	mv	a1,a0
    22b8:	00050413          	mv	s0,a0
    22bc:	000b0513          	mv	a0,s6
    22c0:	0c012c03          	lw	s8,192(sp)
    22c4:	0c412b83          	lw	s7,196(sp)
    22c8:	0c812d83          	lw	s11,200(sp)
    22cc:	0cc12d03          	lw	s10,204(sp)
    22d0:	375110ef          	jal	ra,13e44 <__floatsitf>
    22d4:	0c012683          	lw	a3,192(sp)
    22d8:	04012603          	lw	a2,64(sp)
    22dc:	00048593          	mv	a1,s1
    22e0:	08d12823          	sw	a3,144(sp)
    22e4:	0c412683          	lw	a3,196(sp)
    22e8:	00090513          	mv	a0,s2
    22ec:	0b812023          	sw	s8,160(sp)
    22f0:	08d12a23          	sw	a3,148(sp)
    22f4:	0c812683          	lw	a3,200(sp)
    22f8:	0b712223          	sw	s7,164(sp)
    22fc:	0bb12423          	sw	s11,168(sp)
    2300:	08d12c23          	sw	a3,152(sp)
    2304:	0cc12683          	lw	a3,204(sp)
    2308:	0ba12623          	sw	s10,172(sp)
    230c:	08d12e23          	sw	a3,156(sp)
    2310:	490100ef          	jal	ra,127a0 <__subtf3>
    2314:	02412783          	lw	a5,36(sp)
    2318:	0b012c83          	lw	s9,176(sp)
    231c:	0b412283          	lw	t0,180(sp)
    2320:	008786b3          	add	a3,a5,s0
    2324:	0006c683          	lbu	a3,0(a3)
    2328:	0b812f83          	lw	t6,184(sp)
    232c:	0bc12603          	lw	a2,188(sp)
    2330:	05512a23          	sw	s5,84(sp)
    2334:	00da8023          	sb	a3,0(s5)
    2338:	05312623          	sw	s3,76(sp)
    233c:	fff00793          	li	a5,-1
    2340:	001a8a93          	addi	s5,s5,1
    2344:	000c8b93          	mv	s7,s9
    2348:	00028c13          	mv	s8,t0
    234c:	000f8d13          	mv	s10,t6
    2350:	00060d93          	mv	s11,a2
    2354:	ecf996e3          	bne	s3,a5,2220 <_vfprintf_r+0x2074>
    2358:	0001e717          	auipc	a4,0x1e
    235c:	ee870713          	addi	a4,a4,-280 # 20240 <__malloc_trim_threshold+0x208>
    2360:	00072e83          	lw	t4,0(a4)
    2364:	00472e03          	lw	t3,4(a4)
    2368:	00872683          	lw	a3,8(a4)
    236c:	08012883          	lw	a7,128(sp)
    2370:	00c72703          	lw	a4,12(a4)
    2374:	000c8393          	mv	t2,s9
    2378:	01112e23          	sw	a7,28(sp)
    237c:	00812c23          	sw	s0,24(sp)
    2380:	000a8d93          	mv	s11,s5
    2384:	07012403          	lw	s0,112(sp)
    2388:	06c12a83          	lw	s5,108(sp)
    238c:	0c712023          	sw	t2,192(sp)
    2390:	06712823          	sw	t2,112(sp)
    2394:	0c512223          	sw	t0,196(sp)
    2398:	06512623          	sw	t0,108(sp)
    239c:	0df12423          	sw	t6,200(sp)
    23a0:	07f12223          	sw	t6,100(sp)
    23a4:	0cc12623          	sw	a2,204(sp)
    23a8:	06c12023          	sw	a2,96(sp)
    23ac:	0bd12823          	sw	t4,176(sp)
    23b0:	05d12e23          	sw	t4,92(sp)
    23b4:	0bc12a23          	sw	t3,180(sp)
    23b8:	05c12c23          	sw	t3,88(sp)
    23bc:	0ad12c23          	sw	a3,184(sp)
    23c0:	04d12023          	sw	a3,64(sp)
    23c4:	0ae12e23          	sw	a4,188(sp)
    23c8:	02e12023          	sw	a4,32(sp)
    23cc:	00090593          	mv	a1,s2
    23d0:	000b0513          	mv	a0,s6
    23d4:	07412483          	lw	s1,116(sp)
    23d8:	07812983          	lw	s3,120(sp)
    23dc:	08412d03          	lw	s10,132(sp)
    23e0:	08812c03          	lw	s8,136(sp)
    23e4:	08c12b83          	lw	s7,140(sp)
    23e8:	07c12c83          	lw	s9,124(sp)
    23ec:	7f90e0ef          	jal	ra,113e4 <__getf2>
    23f0:	01c12883          	lw	a7,28(sp)
    23f4:	46a04a63          	bgtz	a0,2868 <_vfprintf_r+0x26bc>
    23f8:	00090593          	mv	a1,s2
    23fc:	000b0513          	mv	a0,s6
    2400:	7150e0ef          	jal	ra,11314 <__eqtf2>
    2404:	01c12883          	lw	a7,28(sp)
    2408:	00051863          	bnez	a0,2418 <_vfprintf_r+0x226c>
    240c:	01812783          	lw	a5,24(sp)
    2410:	0017fb13          	andi	s6,a5,1
    2414:	440b1a63          	bnez	s6,2868 <_vfprintf_r+0x26bc>
    2418:	04c12783          	lw	a5,76(sp)
    241c:	03000693          	li	a3,48
    2420:	00178713          	addi	a4,a5,1
    2424:	00ed8733          	add	a4,s11,a4
    2428:	0007c863          	bltz	a5,2438 <_vfprintf_r+0x228c>
    242c:	001d8d93          	addi	s11,s11,1
    2430:	fedd8fa3          	sb	a3,-1(s11)
    2434:	ffb71ce3          	bne	a4,s11,242c <_vfprintf_r+0x2280>
    2438:	417d87b3          	sub	a5,s11,s7
    243c:	00f12e23          	sw	a5,28(sp)
    2440:	b68fe06f          	j	7a8 <_vfprintf_r+0x5fc>
    2444:	01c12703          	lw	a4,28(sp)
    2448:	000b8c13          	mv	s8,s7
    244c:	02412b83          	lw	s7,36(sp)
    2450:	02812c23          	sw	s0,56(sp)
    2454:	01812a83          	lw	s5,24(sp)
    2458:	00eb8733          	add	a4,s7,a4
    245c:	03c12403          	lw	s0,60(sp)
    2460:	04012983          	lw	s3,64(sp)
    2464:	02012b03          	lw	s6,32(sp)
    2468:	00976463          	bltu	a4,s1,2470 <_vfprintf_r+0x22c4>
    246c:	f75fe06f          	j	13e0 <_vfprintf_r+0x1234>
    2470:	00070493          	mv	s1,a4
    2474:	f6dfe06f          	j	13e0 <_vfprintf_r+0x1234>
    2478:	01812703          	lw	a4,24(sp)
    247c:	ffd00793          	li	a5,-3
    2480:	00f74463          	blt	a4,a5,2488 <_vfprintf_r+0x22dc>
    2484:	00ecda63          	bge	s9,a4,2498 <_vfprintf_r+0x22ec>
    2488:	ffe48493          	addi	s1,s1,-2
    248c:	fdf4f793          	andi	a5,s1,-33
    2490:	02f12e23          	sw	a5,60(sp)
    2494:	b3cfe06f          	j	7d0 <_vfprintf_r+0x624>
    2498:	01812703          	lw	a4,24(sp)
    249c:	01c12783          	lw	a5,28(sp)
    24a0:	28f74663          	blt	a4,a5,272c <_vfprintf_r+0x2580>
    24a4:	05012783          	lw	a5,80(sp)
    24a8:	00070913          	mv	s2,a4
    24ac:	0017f793          	andi	a5,a5,1
    24b0:	00078663          	beqz	a5,24bc <_vfprintf_r+0x2310>
    24b4:	02812783          	lw	a5,40(sp)
    24b8:	00f70933          	add	s2,a4,a5
    24bc:	05012783          	lw	a5,80(sp)
    24c0:	4007f793          	andi	a5,a5,1024
    24c4:	00078663          	beqz	a5,24d0 <_vfprintf_r+0x2324>
    24c8:	01812783          	lw	a5,24(sp)
    24cc:	4af04663          	bgtz	a5,2978 <_vfprintf_r+0x27cc>
    24d0:	fff94b13          	not	s6,s2
    24d4:	41fb5b13          	srai	s6,s6,0x1f
    24d8:	01697b33          	and	s6,s2,s6
    24dc:	06700493          	li	s1,103
    24e0:	02012223          	sw	zero,36(sp)
    24e4:	02012023          	sw	zero,32(sp)
    24e8:	c04fe06f          	j	8ec <_vfprintf_r+0x740>
    24ec:	0d714783          	lbu	a5,215(sp)
    24f0:	00000c93          	li	s9,0
    24f4:	00078463          	beqz	a5,24fc <_vfprintf_r+0x2350>
    24f8:	ed0fe06f          	j	bc8 <_vfprintf_r+0xa1c>
    24fc:	eddfd06f          	j	3d8 <_vfprintf_r+0x22c>
    2500:	000b8c13          	mv	s8,s7
    2504:	d0dfe06f          	j	1210 <_vfprintf_r+0x1064>
    2508:	00012823          	sw	zero,16(sp)
    250c:	00078a93          	mv	s5,a5
    2510:	800007b7          	lui	a5,0x80000
    2514:	01c7ce33          	xor	t3,a5,t3
    2518:	02d00793          	li	a5,45
    251c:	06f12423          	sw	a5,104(sp)
    2520:	b65ff06f          	j	2084 <_vfprintf_r+0x1ed8>
    2524:	0f410613          	addi	a2,sp,244
    2528:	000b8593          	mv	a1,s7
    252c:	000d0513          	mv	a0,s10
    2530:	2d8090ef          	jal	ra,b808 <__sprint_r>
    2534:	fc0516e3          	bnez	a0,2500 <_vfprintf_r+0x2354>
    2538:	00044683          	lbu	a3,0(s0)
    253c:	0fc12783          	lw	a5,252(sp)
    2540:	11c10893          	addi	a7,sp,284
    2544:	00d484b3          	add	s1,s1,a3
    2548:	881ff06f          	j	1dc8 <_vfprintf_r+0x1c1c>
    254c:	0c010b13          	addi	s6,sp,192
    2550:	0e010793          	addi	a5,sp,224
    2554:	0dc10713          	addi	a4,sp,220
    2558:	0ec10813          	addi	a6,sp,236
    255c:	000c8693          	mv	a3,s9
    2560:	00300613          	li	a2,3
    2564:	000b0593          	mv	a1,s6
    2568:	000d0513          	mv	a0,s10
    256c:	05112023          	sw	a7,64(sp)
    2570:	0dd12023          	sw	t4,192(sp)
    2574:	03d12223          	sw	t4,36(sp)
    2578:	0de12223          	sw	t5,196(sp)
    257c:	03e12023          	sw	t5,32(sp)
    2580:	0df12423          	sw	t6,200(sp)
    2584:	01f12e23          	sw	t6,28(sp)
    2588:	0dc12623          	sw	t3,204(sp)
    258c:	01c12c23          	sw	t3,24(sp)
    2590:	645020ef          	jal	ra,53d4 <_ldtoa_r>
    2594:	00054703          	lbu	a4,0(a0)
    2598:	03000793          	li	a5,48
    259c:	01812e03          	lw	t3,24(sp)
    25a0:	01c12f83          	lw	t6,28(sp)
    25a4:	02012f03          	lw	t5,32(sp)
    25a8:	02412e83          	lw	t4,36(sp)
    25ac:	04012883          	lw	a7,64(sp)
    25b0:	00050b93          	mv	s7,a0
    25b4:	0b010913          	addi	s2,sp,176
    25b8:	06f70c63          	beq	a4,a5,2630 <_vfprintf_r+0x2484>
    25bc:	0dc12783          	lw	a5,220(sp)
    25c0:	019787b3          	add	a5,a5,s9
    25c4:	00fb8db3          	add	s11,s7,a5
    25c8:	00090593          	mv	a1,s2
    25cc:	000b0513          	mv	a0,s6
    25d0:	01112c23          	sw	a7,24(sp)
    25d4:	0dd12023          	sw	t4,192(sp)
    25d8:	0de12223          	sw	t5,196(sp)
    25dc:	0df12423          	sw	t6,200(sp)
    25e0:	0dc12623          	sw	t3,204(sp)
    25e4:	0a012823          	sw	zero,176(sp)
    25e8:	0a012a23          	sw	zero,180(sp)
    25ec:	0a012c23          	sw	zero,184(sp)
    25f0:	0a012e23          	sw	zero,188(sp)
    25f4:	5210e0ef          	jal	ra,11314 <__eqtf2>
    25f8:	01812883          	lw	a7,24(sp)
    25fc:	000d8793          	mv	a5,s11
    2600:	00051463          	bnez	a0,2608 <_vfprintf_r+0x245c>
    2604:	99cfe06f          	j	7a0 <_vfprintf_r+0x5f4>
    2608:	0ec12783          	lw	a5,236(sp)
    260c:	01b7e463          	bltu	a5,s11,2614 <_vfprintf_r+0x2468>
    2610:	990fe06f          	j	7a0 <_vfprintf_r+0x5f4>
    2614:	03000693          	li	a3,48
    2618:	00178713          	addi	a4,a5,1 # 80000001 <_stack+0x7ffc0001>
    261c:	0ee12623          	sw	a4,236(sp)
    2620:	00d78023          	sb	a3,0(a5)
    2624:	0ec12783          	lw	a5,236(sp)
    2628:	ffb7e8e3          	bltu	a5,s11,2618 <_vfprintf_r+0x246c>
    262c:	974fe06f          	j	7a0 <_vfprintf_r+0x5f4>
    2630:	0b010913          	addi	s2,sp,176
    2634:	00090593          	mv	a1,s2
    2638:	000b0513          	mv	a0,s6
    263c:	05112023          	sw	a7,64(sp)
    2640:	0dd12023          	sw	t4,192(sp)
    2644:	03d12223          	sw	t4,36(sp)
    2648:	0de12223          	sw	t5,196(sp)
    264c:	03e12023          	sw	t5,32(sp)
    2650:	0df12423          	sw	t6,200(sp)
    2654:	01f12e23          	sw	t6,28(sp)
    2658:	0dc12623          	sw	t3,204(sp)
    265c:	01c12c23          	sw	t3,24(sp)
    2660:	0a012823          	sw	zero,176(sp)
    2664:	0a012a23          	sw	zero,180(sp)
    2668:	0a012c23          	sw	zero,184(sp)
    266c:	0a012e23          	sw	zero,188(sp)
    2670:	4a50e0ef          	jal	ra,11314 <__eqtf2>
    2674:	01812e03          	lw	t3,24(sp)
    2678:	01c12f83          	lw	t6,28(sp)
    267c:	02012f03          	lw	t5,32(sp)
    2680:	02412e83          	lw	t4,36(sp)
    2684:	04012883          	lw	a7,64(sp)
    2688:	f2050ae3          	beqz	a0,25bc <_vfprintf_r+0x2410>
    268c:	00100793          	li	a5,1
    2690:	419787b3          	sub	a5,a5,s9
    2694:	0cf12e23          	sw	a5,220(sp)
    2698:	f29ff06f          	j	25c0 <_vfprintf_r+0x2414>
    269c:	0f410613          	addi	a2,sp,244
    26a0:	000c0593          	mv	a1,s8
    26a4:	000d0513          	mv	a0,s10
    26a8:	160090ef          	jal	ra,b808 <__sprint_r>
    26ac:	00050463          	beqz	a0,26b4 <_vfprintf_r+0x2508>
    26b0:	b61fe06f          	j	1210 <_vfprintf_r+0x1064>
    26b4:	0dc12683          	lw	a3,220(sp)
    26b8:	0fc12783          	lw	a5,252(sp)
    26bc:	11c10893          	addi	a7,sp,284
    26c0:	d69fe06f          	j	1428 <_vfprintf_r+0x127c>
    26c4:	02d00793          	li	a5,45
    26c8:	0cf10ba3          	sb	a5,215(sp)
    26cc:	c5cff06f          	j	1b28 <_vfprintf_r+0x197c>
    26d0:	0d714783          	lbu	a5,215(sp)
    26d4:	01b12a23          	sw	s11,20(sp)
    26d8:	02012223          	sw	zero,36(sp)
    26dc:	02012023          	sw	zero,32(sp)
    26e0:	00012c23          	sw	zero,24(sp)
    26e4:	000c8b13          	mv	s6,s9
    26e8:	000c8913          	mv	s2,s9
    26ec:	00000c93          	li	s9,0
    26f0:	00078463          	beqz	a5,26f8 <_vfprintf_r+0x254c>
    26f4:	cd4fe06f          	j	bc8 <_vfprintf_r+0xa1c>
    26f8:	ce1fd06f          	j	3d8 <_vfprintf_r+0x22c>
    26fc:	0f410613          	addi	a2,sp,244
    2700:	000c0593          	mv	a1,s8
    2704:	000d0513          	mv	a0,s10
    2708:	100090ef          	jal	ra,b808 <__sprint_r>
    270c:	00050463          	beqz	a0,2714 <_vfprintf_r+0x2568>
    2710:	b01fe06f          	j	1210 <_vfprintf_r+0x1064>
    2714:	0dc12483          	lw	s1,220(sp)
    2718:	01c12703          	lw	a4,28(sp)
    271c:	0fc12783          	lw	a5,252(sp)
    2720:	11c10893          	addi	a7,sp,284
    2724:	40970633          	sub	a2,a4,s1
    2728:	d4dfe06f          	j	1474 <_vfprintf_r+0x12c8>
    272c:	01c12783          	lw	a5,28(sp)
    2730:	02812703          	lw	a4,40(sp)
    2734:	06700493          	li	s1,103
    2738:	00e78933          	add	s2,a5,a4
    273c:	01812783          	lw	a5,24(sp)
    2740:	40f05c63          	blez	a5,2b58 <_vfprintf_r+0x29ac>
    2744:	05012783          	lw	a5,80(sp)
    2748:	4007f793          	andi	a5,a5,1024
    274c:	22079863          	bnez	a5,297c <_vfprintf_r+0x27d0>
    2750:	fff94b13          	not	s6,s2
    2754:	41fb5b13          	srai	s6,s6,0x1f
    2758:	01697b33          	and	s6,s2,s6
    275c:	d85ff06f          	j	24e0 <_vfprintf_r+0x2334>
    2760:	05012783          	lw	a5,80(sp)
    2764:	01812703          	lw	a4,24(sp)
    2768:	0017f793          	andi	a5,a5,1
    276c:	0197e7b3          	or	a5,a5,s9
    2770:	40e05a63          	blez	a4,2b84 <_vfprintf_r+0x29d8>
    2774:	28079263          	bnez	a5,29f8 <_vfprintf_r+0x284c>
    2778:	01812903          	lw	s2,24(sp)
    277c:	06600493          	li	s1,102
    2780:	fc5ff06f          	j	2744 <_vfprintf_r+0x2598>
    2784:	ff000613          	li	a2,-16
    2788:	40d004b3          	neg	s1,a3
    278c:	12c6de63          	bge	a3,a2,28c8 <_vfprintf_r+0x271c>
    2790:	00700913          	li	s2,7
    2794:	00c0006f          	j	27a0 <_vfprintf_r+0x25f4>
    2798:	ff048493          	addi	s1,s1,-16
    279c:	129a5663          	bge	s4,s1,28c8 <_vfprintf_r+0x271c>
    27a0:	01078793          	addi	a5,a5,16
    27a4:	00170713          	addi	a4,a4,1
    27a8:	0001e697          	auipc	a3,0x1e
    27ac:	ac868693          	addi	a3,a3,-1336 # 20270 <zeroes.0>
    27b0:	00d8a023          	sw	a3,0(a7)
    27b4:	0148a223          	sw	s4,4(a7)
    27b8:	0ef12e23          	sw	a5,252(sp)
    27bc:	0ee12c23          	sw	a4,248(sp)
    27c0:	00888893          	addi	a7,a7,8
    27c4:	fce95ae3          	bge	s2,a4,2798 <_vfprintf_r+0x25ec>
    27c8:	0f410613          	addi	a2,sp,244
    27cc:	000c0593          	mv	a1,s8
    27d0:	000d0513          	mv	a0,s10
    27d4:	034090ef          	jal	ra,b808 <__sprint_r>
    27d8:	00050463          	beqz	a0,27e0 <_vfprintf_r+0x2634>
    27dc:	a35fe06f          	j	1210 <_vfprintf_r+0x1064>
    27e0:	0fc12783          	lw	a5,252(sp)
    27e4:	0f812703          	lw	a4,248(sp)
    27e8:	11c10893          	addi	a7,sp,284
    27ec:	fadff06f          	j	2798 <_vfprintf_r+0x25ec>
    27f0:	fff00793          	li	a5,-1
    27f4:	00f12623          	sw	a5,12(sp)
    27f8:	d19fd06f          	j	510 <_vfprintf_r+0x364>
    27fc:	001c8913          	addi	s2,s9,1
    2800:	0c010b13          	addi	s6,sp,192
    2804:	0ec10813          	addi	a6,sp,236
    2808:	0e010793          	addi	a5,sp,224
    280c:	0dc10713          	addi	a4,sp,220
    2810:	00090693          	mv	a3,s2
    2814:	00200613          	li	a2,2
    2818:	000b0593          	mv	a1,s6
    281c:	000d0513          	mv	a0,s10
    2820:	0dd12023          	sw	t4,192(sp)
    2824:	03d12223          	sw	t4,36(sp)
    2828:	0de12223          	sw	t5,196(sp)
    282c:	03e12023          	sw	t5,32(sp)
    2830:	0df12423          	sw	t6,200(sp)
    2834:	01f12e23          	sw	t6,28(sp)
    2838:	0dc12623          	sw	t3,204(sp)
    283c:	01c12c23          	sw	t3,24(sp)
    2840:	395020ef          	jal	ra,53d4 <_ldtoa_r>
    2844:	01812e03          	lw	t3,24(sp)
    2848:	01c12f83          	lw	t6,28(sp)
    284c:	02012f03          	lw	t5,32(sp)
    2850:	02412e83          	lw	t4,36(sp)
    2854:	04012883          	lw	a7,64(sp)
    2858:	00050b93          	mv	s7,a0
    285c:	012b8db3          	add	s11,s7,s2
    2860:	0b010913          	addi	s2,sp,176
    2864:	d65ff06f          	j	25c8 <_vfprintf_r+0x241c>
    2868:	05412783          	lw	a5,84(sp)
    286c:	000d8713          	mv	a4,s11
    2870:	0ef12623          	sw	a5,236(sp)
    2874:	02412783          	lw	a5,36(sp)
    2878:	fffdc683          	lbu	a3,-1(s11)
    287c:	00f7c603          	lbu	a2,15(a5)
    2880:	02c69063          	bne	a3,a2,28a0 <_vfprintf_r+0x26f4>
    2884:	03000593          	li	a1,48
    2888:	feb70fa3          	sb	a1,-1(a4)
    288c:	0ec12703          	lw	a4,236(sp)
    2890:	fff70793          	addi	a5,a4,-1
    2894:	0ef12623          	sw	a5,236(sp)
    2898:	fff74683          	lbu	a3,-1(a4)
    289c:	fed606e3          	beq	a2,a3,2888 <_vfprintf_r+0x26dc>
    28a0:	00168613          	addi	a2,a3,1
    28a4:	03900593          	li	a1,57
    28a8:	0ff67613          	zext.b	a2,a2
    28ac:	00b68663          	beq	a3,a1,28b8 <_vfprintf_r+0x270c>
    28b0:	fec70fa3          	sb	a2,-1(a4)
    28b4:	b85ff06f          	j	2438 <_vfprintf_r+0x228c>
    28b8:	02412783          	lw	a5,36(sp)
    28bc:	00a7c603          	lbu	a2,10(a5)
    28c0:	fec70fa3          	sb	a2,-1(a4)
    28c4:	b75ff06f          	j	2438 <_vfprintf_r+0x228c>
    28c8:	0001e697          	auipc	a3,0x1e
    28cc:	9a868693          	addi	a3,a3,-1624 # 20270 <zeroes.0>
    28d0:	009787b3          	add	a5,a5,s1
    28d4:	00170713          	addi	a4,a4,1
    28d8:	00d8a023          	sw	a3,0(a7)
    28dc:	0098a223          	sw	s1,4(a7)
    28e0:	0ef12e23          	sw	a5,252(sp)
    28e4:	0ee12c23          	sw	a4,248(sp)
    28e8:	00700693          	li	a3,7
    28ec:	96e6da63          	bge	a3,a4,1a60 <_vfprintf_r+0x18b4>
    28f0:	0f410613          	addi	a2,sp,244
    28f4:	000c0593          	mv	a1,s8
    28f8:	000d0513          	mv	a0,s10
    28fc:	70d080ef          	jal	ra,b808 <__sprint_r>
    2900:	00050463          	beqz	a0,2908 <_vfprintf_r+0x275c>
    2904:	90dfe06f          	j	1210 <_vfprintf_r+0x1064>
    2908:	0fc12783          	lw	a5,252(sp)
    290c:	0f812703          	lw	a4,248(sp)
    2910:	11c10893          	addi	a7,sp,284
    2914:	a90ff06f          	j	1ba4 <_vfprintf_r+0x19f8>
    2918:	03000793          	li	a5,48
    291c:	0cf10c23          	sb	a5,216(sp)
    2920:	07800793          	li	a5,120
    2924:	f20ff06f          	j	2044 <_vfprintf_r+0x1e98>
    2928:	000a8b13          	mv	s6,s5
    292c:	c98fe06f          	j	dc4 <_vfprintf_r+0xc18>
    2930:	001c8593          	addi	a1,s9,1
    2934:	000d0513          	mv	a0,s10
    2938:	01112823          	sw	a7,16(sp)
    293c:	114040ef          	jal	ra,6a50 <_malloc_r>
    2940:	01012883          	lw	a7,16(sp)
    2944:	00050b93          	mv	s7,a0
    2948:	2a050263          	beqz	a0,2bec <_vfprintf_r+0x2a40>
    294c:	00a12823          	sw	a0,16(sp)
    2950:	f10ff06f          	j	2060 <_vfprintf_r+0x1eb4>
    2954:	019b8db3          	add	s11,s7,s9
    2958:	0b010913          	addi	s2,sp,176
    295c:	c6dff06f          	j	25c8 <_vfprintf_r+0x241c>
    2960:	00600c93          	li	s9,6
    2964:	d71fd06f          	j	6d4 <_vfprintf_r+0x528>
    2968:	000c8463          	beqz	s9,2970 <_vfprintf_r+0x27c4>
    296c:	d69fd06f          	j	6d4 <_vfprintf_r+0x528>
    2970:	00100c93          	li	s9,1
    2974:	d61fd06f          	j	6d4 <_vfprintf_r+0x528>
    2978:	06700493          	li	s1,103
    297c:	03812603          	lw	a2,56(sp)
    2980:	0ff00713          	li	a4,255
    2984:	00064783          	lbu	a5,0(a2)
    2988:	28e78063          	beq	a5,a4,2c08 <_vfprintf_r+0x2a5c>
    298c:	01812683          	lw	a3,24(sp)
    2990:	00000513          	li	a0,0
    2994:	00000593          	li	a1,0
    2998:	00d7de63          	bge	a5,a3,29b4 <_vfprintf_r+0x2808>
    299c:	40f686b3          	sub	a3,a3,a5
    29a0:	00164783          	lbu	a5,1(a2)
    29a4:	04078463          	beqz	a5,29ec <_vfprintf_r+0x2840>
    29a8:	00158593          	addi	a1,a1,1
    29ac:	00160613          	addi	a2,a2,1
    29b0:	fee794e3          	bne	a5,a4,2998 <_vfprintf_r+0x27ec>
    29b4:	00d12c23          	sw	a3,24(sp)
    29b8:	02c12c23          	sw	a2,56(sp)
    29bc:	02b12023          	sw	a1,32(sp)
    29c0:	02a12223          	sw	a0,36(sp)
    29c4:	02412703          	lw	a4,36(sp)
    29c8:	02012783          	lw	a5,32(sp)
    29cc:	00e787b3          	add	a5,a5,a4
    29d0:	04412703          	lw	a4,68(sp)
    29d4:	02e787b3          	mul	a5,a5,a4
    29d8:	01278933          	add	s2,a5,s2
    29dc:	fff94b13          	not	s6,s2
    29e0:	41fb5b13          	srai	s6,s6,0x1f
    29e4:	01697b33          	and	s6,s2,s6
    29e8:	f05fd06f          	j	8ec <_vfprintf_r+0x740>
    29ec:	00064783          	lbu	a5,0(a2)
    29f0:	00150513          	addi	a0,a0,1
    29f4:	fbdff06f          	j	29b0 <_vfprintf_r+0x2804>
    29f8:	02812783          	lw	a5,40(sp)
    29fc:	06600493          	li	s1,102
    2a00:	00f707b3          	add	a5,a4,a5
    2a04:	01978933          	add	s2,a5,s9
    2a08:	d3dff06f          	j	2744 <_vfprintf_r+0x2598>
    2a0c:	0e610713          	addi	a4,sp,230
    2a10:	00069863          	bnez	a3,2a20 <_vfprintf_r+0x2874>
    2a14:	03000713          	li	a4,48
    2a18:	0ee10323          	sb	a4,230(sp)
    2a1c:	0e710713          	addi	a4,sp,231
    2a20:	1c010693          	addi	a3,sp,448
    2a24:	03078793          	addi	a5,a5,48
    2a28:	40d706b3          	sub	a3,a4,a3
    2a2c:	00f70023          	sb	a5,0(a4)
    2a30:	0dd68793          	addi	a5,a3,221
    2a34:	02f12a23          	sw	a5,52(sp)
    2a38:	e71fd06f          	j	8a8 <_vfprintf_r+0x6fc>
    2a3c:	0c010b13          	addi	s6,sp,192
    2a40:	000b0513          	mv	a0,s6
    2a44:	05112a23          	sw	a7,84(sp)
    2a48:	0de12223          	sw	t5,196(sp)
    2a4c:	0df12423          	sw	t6,200(sp)
    2a50:	0dd12023          	sw	t4,192(sp)
    2a54:	0dc12623          	sw	t3,204(sp)
    2a58:	78c110ef          	jal	ra,141e4 <__trunctfdf2>
    2a5c:	0dc10613          	addi	a2,sp,220
    2a60:	43d050ef          	jal	ra,869c <frexp>
    2a64:	00058613          	mv	a2,a1
    2a68:	00050593          	mv	a1,a0
    2a6c:	000b0513          	mv	a0,s6
    2a70:	540110ef          	jal	ra,13fb0 <__extenddftf2>
    2a74:	0c012e83          	lw	t4,192(sp)
    2a78:	0001d797          	auipc	a5,0x1d
    2a7c:	7d878793          	addi	a5,a5,2008 # 20250 <__malloc_trim_threshold+0x218>
    2a80:	0007ae03          	lw	t3,0(a5)
    2a84:	0bd12023          	sw	t4,160(sp)
    2a88:	0c412e83          	lw	t4,196(sp)
    2a8c:	0047a683          	lw	a3,4(a5)
    2a90:	0087a703          	lw	a4,8(a5)
    2a94:	0bd12223          	sw	t4,164(sp)
    2a98:	0c812e83          	lw	t4,200(sp)
    2a9c:	00c7a783          	lw	a5,12(a5)
    2aa0:	0a010613          	addi	a2,sp,160
    2aa4:	0bd12423          	sw	t4,168(sp)
    2aa8:	0cc12e83          	lw	t4,204(sp)
    2aac:	0b010913          	addi	s2,sp,176
    2ab0:	00060593          	mv	a1,a2
    2ab4:	00c12c23          	sw	a2,24(sp)
    2ab8:	00090513          	mv	a0,s2
    2abc:	09010613          	addi	a2,sp,144
    2ac0:	04c12023          	sw	a2,64(sp)
    2ac4:	0bd12623          	sw	t4,172(sp)
    2ac8:	09c12823          	sw	t3,144(sp)
    2acc:	08d12a23          	sw	a3,148(sp)
    2ad0:	08e12c23          	sw	a4,152(sp)
    2ad4:	08f12e23          	sw	a5,156(sp)
    2ad8:	3e10e0ef          	jal	ra,116b8 <__multf3>
    2adc:	0b012683          	lw	a3,176(sp)
    2ae0:	0b412e03          	lw	t3,180(sp)
    2ae4:	0b812e83          	lw	t4,184(sp)
    2ae8:	0bc12f03          	lw	t5,188(sp)
    2aec:	00090593          	mv	a1,s2
    2af0:	000b0513          	mv	a0,s6
    2af4:	0cd12023          	sw	a3,192(sp)
    2af8:	04d12623          	sw	a3,76(sp)
    2afc:	0dc12223          	sw	t3,196(sp)
    2b00:	03c12223          	sw	t3,36(sp)
    2b04:	0dd12423          	sw	t4,200(sp)
    2b08:	03d12023          	sw	t4,32(sp)
    2b0c:	0de12623          	sw	t5,204(sp)
    2b10:	01e12e23          	sw	t5,28(sp)
    2b14:	0a012823          	sw	zero,176(sp)
    2b18:	0a012a23          	sw	zero,180(sp)
    2b1c:	0a012c23          	sw	zero,184(sp)
    2b20:	0a012e23          	sw	zero,188(sp)
    2b24:	7f00e0ef          	jal	ra,11314 <__eqtf2>
    2b28:	01c12f03          	lw	t5,28(sp)
    2b2c:	02012e83          	lw	t4,32(sp)
    2b30:	02412e03          	lw	t3,36(sp)
    2b34:	04c12683          	lw	a3,76(sp)
    2b38:	05412883          	lw	a7,84(sp)
    2b3c:	00051663          	bnez	a0,2b48 <_vfprintf_r+0x299c>
    2b40:	00100793          	li	a5,1
    2b44:	0cf12e23          	sw	a5,220(sp)
    2b48:	0001d797          	auipc	a5,0x1d
    2b4c:	54878793          	addi	a5,a5,1352 # 20090 <__malloc_trim_threshold+0x58>
    2b50:	02f12223          	sw	a5,36(sp)
    2b54:	e5cff06f          	j	21b0 <_vfprintf_r+0x2004>
    2b58:	40f90cb3          	sub	s9,s2,a5
    2b5c:	001c8913          	addi	s2,s9,1
    2b60:	fff94b13          	not	s6,s2
    2b64:	41fb5b13          	srai	s6,s6,0x1f
    2b68:	01697b33          	and	s6,s2,s6
    2b6c:	975ff06f          	j	24e0 <_vfprintf_r+0x2334>
    2b70:	05012783          	lw	a5,80(sp)
    2b74:	0017f793          	andi	a5,a5,1
    2b78:	00079463          	bnez	a5,2b80 <_vfprintf_r+0x29d4>
    2b7c:	d4dfd06f          	j	8c8 <_vfprintf_r+0x71c>
    2b80:	d41fd06f          	j	8c0 <_vfprintf_r+0x714>
    2b84:	00079a63          	bnez	a5,2b98 <_vfprintf_r+0x29ec>
    2b88:	00100b13          	li	s6,1
    2b8c:	06600493          	li	s1,102
    2b90:	00100913          	li	s2,1
    2b94:	94dff06f          	j	24e0 <_vfprintf_r+0x2334>
    2b98:	02812783          	lw	a5,40(sp)
    2b9c:	06600493          	li	s1,102
    2ba0:	00178793          	addi	a5,a5,1
    2ba4:	01978933          	add	s2,a5,s9
    2ba8:	fff94b13          	not	s6,s2
    2bac:	41fb5b13          	srai	s6,s6,0x1f
    2bb0:	01697b33          	and	s6,s2,s6
    2bb4:	92dff06f          	j	24e0 <_vfprintf_r+0x2334>
    2bb8:	00088693          	mv	a3,a7
    2bbc:	b5dfe06f          	j	1718 <_vfprintf_r+0x156c>
    2bc0:	01412783          	lw	a5,20(sp)
    2bc4:	0007ac83          	lw	s9,0(a5)
    2bc8:	00478793          	addi	a5,a5,4
    2bcc:	000cd463          	bgez	s9,2bd4 <_vfprintf_r+0x2a28>
    2bd0:	fff00c93          	li	s9,-1
    2bd4:	00144483          	lbu	s1,1(s0)
    2bd8:	00f12a23          	sw	a5,20(sp)
    2bdc:	00068413          	mv	s0,a3
    2be0:	f6cfd06f          	j	34c <_vfprintf_r+0x1a0>
    2be4:	000c8913          	mv	s2,s9
    2be8:	c75ff06f          	j	285c <_vfprintf_r+0x26b0>
    2bec:	00cc5783          	lhu	a5,12(s8)
    2bf0:	0407e793          	ori	a5,a5,64
    2bf4:	00fc1623          	sh	a5,12(s8)
    2bf8:	909fd06f          	j	500 <_vfprintf_r+0x354>
    2bfc:	00200793          	li	a5,2
    2c00:	02f12a23          	sw	a5,52(sp)
    2c04:	ca5fd06f          	j	8a8 <_vfprintf_r+0x6fc>
    2c08:	02012223          	sw	zero,36(sp)
    2c0c:	02012023          	sw	zero,32(sp)
    2c10:	db5ff06f          	j	29c4 <_vfprintf_r+0x2818>

00002c14 <vfprintf>:
    2c14:	00060693          	mv	a3,a2
    2c18:	00058613          	mv	a2,a1
    2c1c:	00050593          	mv	a1,a0
    2c20:	0001d517          	auipc	a0,0x1d
    2c24:	41052503          	lw	a0,1040(a0) # 20030 <_impure_ptr>
    2c28:	d84fd06f          	j	1ac <_vfprintf_r>

00002c2c <__sbprintf>:
    2c2c:	00c5d783          	lhu	a5,12(a1)
    2c30:	0645ae03          	lw	t3,100(a1)
    2c34:	00e5d303          	lhu	t1,14(a1)
    2c38:	01c5a883          	lw	a7,28(a1)
    2c3c:	0245a803          	lw	a6,36(a1)
    2c40:	b8010113          	addi	sp,sp,-1152
    2c44:	ffd7f793          	andi	a5,a5,-3
    2c48:	40000713          	li	a4,1024
    2c4c:	46812c23          	sw	s0,1144(sp)
    2c50:	00f11a23          	sh	a5,20(sp)
    2c54:	00058413          	mv	s0,a1
    2c58:	07010793          	addi	a5,sp,112
    2c5c:	00810593          	addi	a1,sp,8
    2c60:	46912a23          	sw	s1,1140(sp)
    2c64:	47212823          	sw	s2,1136(sp)
    2c68:	46112e23          	sw	ra,1148(sp)
    2c6c:	00050913          	mv	s2,a0
    2c70:	07c12623          	sw	t3,108(sp)
    2c74:	00611b23          	sh	t1,22(sp)
    2c78:	03112223          	sw	a7,36(sp)
    2c7c:	03012623          	sw	a6,44(sp)
    2c80:	00f12423          	sw	a5,8(sp)
    2c84:	00f12c23          	sw	a5,24(sp)
    2c88:	00e12823          	sw	a4,16(sp)
    2c8c:	00e12e23          	sw	a4,28(sp)
    2c90:	02012023          	sw	zero,32(sp)
    2c94:	d18fd0ef          	jal	ra,1ac <_vfprintf_r>
    2c98:	00050493          	mv	s1,a0
    2c9c:	02055c63          	bgez	a0,2cd4 <__sbprintf+0xa8>
    2ca0:	01415783          	lhu	a5,20(sp)
    2ca4:	0407f793          	andi	a5,a5,64
    2ca8:	00078863          	beqz	a5,2cb8 <__sbprintf+0x8c>
    2cac:	00c45783          	lhu	a5,12(s0)
    2cb0:	0407e793          	ori	a5,a5,64
    2cb4:	00f41623          	sh	a5,12(s0)
    2cb8:	47c12083          	lw	ra,1148(sp)
    2cbc:	47812403          	lw	s0,1144(sp)
    2cc0:	47012903          	lw	s2,1136(sp)
    2cc4:	00048513          	mv	a0,s1
    2cc8:	47412483          	lw	s1,1140(sp)
    2ccc:	48010113          	addi	sp,sp,1152
    2cd0:	00008067          	ret
    2cd4:	00810593          	addi	a1,sp,8
    2cd8:	00090513          	mv	a0,s2
    2cdc:	3e0000ef          	jal	ra,30bc <_fflush_r>
    2ce0:	fc0500e3          	beqz	a0,2ca0 <__sbprintf+0x74>
    2ce4:	fff00493          	li	s1,-1
    2ce8:	fb9ff06f          	j	2ca0 <__sbprintf+0x74>

00002cec <__swsetup_r>:
    2cec:	ff010113          	addi	sp,sp,-16
    2cf0:	00812423          	sw	s0,8(sp)
    2cf4:	00912223          	sw	s1,4(sp)
    2cf8:	00112623          	sw	ra,12(sp)
    2cfc:	0001d797          	auipc	a5,0x1d
    2d00:	3347a783          	lw	a5,820(a5) # 20030 <_impure_ptr>
    2d04:	00050493          	mv	s1,a0
    2d08:	00058413          	mv	s0,a1
    2d0c:	00078663          	beqz	a5,2d18 <__swsetup_r+0x2c>
    2d10:	0387a703          	lw	a4,56(a5)
    2d14:	08070463          	beqz	a4,2d9c <__swsetup_r+0xb0>
    2d18:	00c41703          	lh	a4,12(s0)
    2d1c:	01071793          	slli	a5,a4,0x10
    2d20:	00877693          	andi	a3,a4,8
    2d24:	0107d793          	srli	a5,a5,0x10
    2d28:	08068863          	beqz	a3,2db8 <__swsetup_r+0xcc>
    2d2c:	01042683          	lw	a3,16(s0)
    2d30:	0a068863          	beqz	a3,2de0 <__swsetup_r+0xf4>
    2d34:	0017f613          	andi	a2,a5,1
    2d38:	02060863          	beqz	a2,2d68 <__swsetup_r+0x7c>
    2d3c:	01442603          	lw	a2,20(s0)
    2d40:	00042423          	sw	zero,8(s0)
    2d44:	00000513          	li	a0,0
    2d48:	40c00633          	neg	a2,a2
    2d4c:	00c42c23          	sw	a2,24(s0)
    2d50:	02068a63          	beqz	a3,2d84 <__swsetup_r+0x98>
    2d54:	00c12083          	lw	ra,12(sp)
    2d58:	00812403          	lw	s0,8(sp)
    2d5c:	00412483          	lw	s1,4(sp)
    2d60:	01010113          	addi	sp,sp,16
    2d64:	00008067          	ret
    2d68:	0027f613          	andi	a2,a5,2
    2d6c:	00000593          	li	a1,0
    2d70:	00061463          	bnez	a2,2d78 <__swsetup_r+0x8c>
    2d74:	01442583          	lw	a1,20(s0)
    2d78:	00b42423          	sw	a1,8(s0)
    2d7c:	00000513          	li	a0,0
    2d80:	fc069ae3          	bnez	a3,2d54 <__swsetup_r+0x68>
    2d84:	0807f793          	andi	a5,a5,128
    2d88:	fc0786e3          	beqz	a5,2d54 <__swsetup_r+0x68>
    2d8c:	04076713          	ori	a4,a4,64
    2d90:	00e41623          	sh	a4,12(s0)
    2d94:	fff00513          	li	a0,-1
    2d98:	fbdff06f          	j	2d54 <__swsetup_r+0x68>
    2d9c:	00078513          	mv	a0,a5
    2da0:	758000ef          	jal	ra,34f8 <__sinit>
    2da4:	00c41703          	lh	a4,12(s0)
    2da8:	01071793          	slli	a5,a4,0x10
    2dac:	00877693          	andi	a3,a4,8
    2db0:	0107d793          	srli	a5,a5,0x10
    2db4:	f6069ce3          	bnez	a3,2d2c <__swsetup_r+0x40>
    2db8:	0107f693          	andi	a3,a5,16
    2dbc:	08068263          	beqz	a3,2e40 <__swsetup_r+0x154>
    2dc0:	0047f793          	andi	a5,a5,4
    2dc4:	04079463          	bnez	a5,2e0c <__swsetup_r+0x120>
    2dc8:	01042683          	lw	a3,16(s0)
    2dcc:	00876713          	ori	a4,a4,8
    2dd0:	01071793          	slli	a5,a4,0x10
    2dd4:	00e41623          	sh	a4,12(s0)
    2dd8:	0107d793          	srli	a5,a5,0x10
    2ddc:	f4069ce3          	bnez	a3,2d34 <__swsetup_r+0x48>
    2de0:	2807f613          	andi	a2,a5,640
    2de4:	20000593          	li	a1,512
    2de8:	f4b606e3          	beq	a2,a1,2d34 <__swsetup_r+0x48>
    2dec:	00040593          	mv	a1,s0
    2df0:	00048513          	mv	a0,s1
    2df4:	1fd030ef          	jal	ra,67f0 <__smakebuf_r>
    2df8:	00c41703          	lh	a4,12(s0)
    2dfc:	01042683          	lw	a3,16(s0)
    2e00:	01071793          	slli	a5,a4,0x10
    2e04:	0107d793          	srli	a5,a5,0x10
    2e08:	f2dff06f          	j	2d34 <__swsetup_r+0x48>
    2e0c:	03042583          	lw	a1,48(s0)
    2e10:	00058e63          	beqz	a1,2e2c <__swsetup_r+0x140>
    2e14:	04040793          	addi	a5,s0,64
    2e18:	00f58863          	beq	a1,a5,2e28 <__swsetup_r+0x13c>
    2e1c:	00048513          	mv	a0,s1
    2e20:	061000ef          	jal	ra,3680 <_free_r>
    2e24:	00c41703          	lh	a4,12(s0)
    2e28:	02042823          	sw	zero,48(s0)
    2e2c:	01042683          	lw	a3,16(s0)
    2e30:	fdb77713          	andi	a4,a4,-37
    2e34:	00042223          	sw	zero,4(s0)
    2e38:	00d42023          	sw	a3,0(s0)
    2e3c:	f91ff06f          	j	2dcc <__swsetup_r+0xe0>
    2e40:	00900793          	li	a5,9
    2e44:	00f4a023          	sw	a5,0(s1)
    2e48:	04076713          	ori	a4,a4,64
    2e4c:	00e41623          	sh	a4,12(s0)
    2e50:	fff00513          	li	a0,-1
    2e54:	f01ff06f          	j	2d54 <__swsetup_r+0x68>

00002e58 <__sflush_r>:
    2e58:	00c59783          	lh	a5,12(a1)
    2e5c:	fe010113          	addi	sp,sp,-32
    2e60:	00812c23          	sw	s0,24(sp)
    2e64:	01312623          	sw	s3,12(sp)
    2e68:	00112e23          	sw	ra,28(sp)
    2e6c:	00912a23          	sw	s1,20(sp)
    2e70:	01212823          	sw	s2,16(sp)
    2e74:	0087f693          	andi	a3,a5,8
    2e78:	00058413          	mv	s0,a1
    2e7c:	00050993          	mv	s3,a0
    2e80:	10069c63          	bnez	a3,2f98 <__sflush_r+0x140>
    2e84:	00001737          	lui	a4,0x1
    2e88:	80070713          	addi	a4,a4,-2048 # 800 <_vfprintf_r+0x654>
    2e8c:	0045a683          	lw	a3,4(a1)
    2e90:	00e7e7b3          	or	a5,a5,a4
    2e94:	00f59623          	sh	a5,12(a1)
    2e98:	18d05663          	blez	a3,3024 <__sflush_r+0x1cc>
    2e9c:	02842703          	lw	a4,40(s0)
    2ea0:	0c070c63          	beqz	a4,2f78 <__sflush_r+0x120>
    2ea4:	01079793          	slli	a5,a5,0x10
    2ea8:	0107d793          	srli	a5,a5,0x10
    2eac:	000016b7          	lui	a3,0x1
    2eb0:	0009a483          	lw	s1,0(s3)
    2eb4:	00d7f6b3          	and	a3,a5,a3
    2eb8:	0009a023          	sw	zero,0(s3)
    2ebc:	01c42583          	lw	a1,28(s0)
    2ec0:	16069863          	bnez	a3,3030 <__sflush_r+0x1d8>
    2ec4:	00100693          	li	a3,1
    2ec8:	00000613          	li	a2,0
    2ecc:	00098513          	mv	a0,s3
    2ed0:	000700e7          	jalr	a4
    2ed4:	fff00793          	li	a5,-1
    2ed8:	18f50e63          	beq	a0,a5,3074 <__sflush_r+0x21c>
    2edc:	00c45783          	lhu	a5,12(s0)
    2ee0:	02842703          	lw	a4,40(s0)
    2ee4:	01c42583          	lw	a1,28(s0)
    2ee8:	0047f793          	andi	a5,a5,4
    2eec:	00078e63          	beqz	a5,2f08 <__sflush_r+0xb0>
    2ef0:	00442683          	lw	a3,4(s0)
    2ef4:	03042783          	lw	a5,48(s0)
    2ef8:	40d50533          	sub	a0,a0,a3
    2efc:	00078663          	beqz	a5,2f08 <__sflush_r+0xb0>
    2f00:	03c42783          	lw	a5,60(s0)
    2f04:	40f50533          	sub	a0,a0,a5
    2f08:	00050613          	mv	a2,a0
    2f0c:	00000693          	li	a3,0
    2f10:	00098513          	mv	a0,s3
    2f14:	000700e7          	jalr	a4
    2f18:	fff00793          	li	a5,-1
    2f1c:	10f51e63          	bne	a0,a5,3038 <__sflush_r+0x1e0>
    2f20:	0009a703          	lw	a4,0(s3)
    2f24:	00c41783          	lh	a5,12(s0)
    2f28:	16070a63          	beqz	a4,309c <__sflush_r+0x244>
    2f2c:	01d00693          	li	a3,29
    2f30:	00d70663          	beq	a4,a3,2f3c <__sflush_r+0xe4>
    2f34:	01600693          	li	a3,22
    2f38:	0cd71463          	bne	a4,a3,3000 <__sflush_r+0x1a8>
    2f3c:	01042683          	lw	a3,16(s0)
    2f40:	fffff737          	lui	a4,0xfffff
    2f44:	7ff70713          	addi	a4,a4,2047 # fffff7ff <_stack+0xfffbf7ff>
    2f48:	00e7f7b3          	and	a5,a5,a4
    2f4c:	00f41623          	sh	a5,12(s0)
    2f50:	00042223          	sw	zero,4(s0)
    2f54:	00d42023          	sw	a3,0(s0)
    2f58:	03042583          	lw	a1,48(s0)
    2f5c:	0099a023          	sw	s1,0(s3)
    2f60:	00058c63          	beqz	a1,2f78 <__sflush_r+0x120>
    2f64:	04040793          	addi	a5,s0,64
    2f68:	00f58663          	beq	a1,a5,2f74 <__sflush_r+0x11c>
    2f6c:	00098513          	mv	a0,s3
    2f70:	710000ef          	jal	ra,3680 <_free_r>
    2f74:	02042823          	sw	zero,48(s0)
    2f78:	00000513          	li	a0,0
    2f7c:	01c12083          	lw	ra,28(sp)
    2f80:	01812403          	lw	s0,24(sp)
    2f84:	01412483          	lw	s1,20(sp)
    2f88:	01012903          	lw	s2,16(sp)
    2f8c:	00c12983          	lw	s3,12(sp)
    2f90:	02010113          	addi	sp,sp,32
    2f94:	00008067          	ret
    2f98:	0105a903          	lw	s2,16(a1)
    2f9c:	fc090ee3          	beqz	s2,2f78 <__sflush_r+0x120>
    2fa0:	0005a483          	lw	s1,0(a1)
    2fa4:	01079713          	slli	a4,a5,0x10
    2fa8:	01075713          	srli	a4,a4,0x10
    2fac:	00377713          	andi	a4,a4,3
    2fb0:	0125a023          	sw	s2,0(a1)
    2fb4:	412484b3          	sub	s1,s1,s2
    2fb8:	00000793          	li	a5,0
    2fbc:	00071463          	bnez	a4,2fc4 <__sflush_r+0x16c>
    2fc0:	0145a783          	lw	a5,20(a1)
    2fc4:	00f42423          	sw	a5,8(s0)
    2fc8:	00904863          	bgtz	s1,2fd8 <__sflush_r+0x180>
    2fcc:	fadff06f          	j	2f78 <__sflush_r+0x120>
    2fd0:	00a90933          	add	s2,s2,a0
    2fd4:	fa9052e3          	blez	s1,2f78 <__sflush_r+0x120>
    2fd8:	02442783          	lw	a5,36(s0)
    2fdc:	01c42583          	lw	a1,28(s0)
    2fe0:	00048693          	mv	a3,s1
    2fe4:	00090613          	mv	a2,s2
    2fe8:	00098513          	mv	a0,s3
    2fec:	000780e7          	jalr	a5
    2ff0:	40a484b3          	sub	s1,s1,a0
    2ff4:	fca04ee3          	bgtz	a0,2fd0 <__sflush_r+0x178>
    2ff8:	00c45783          	lhu	a5,12(s0)
    2ffc:	fff00513          	li	a0,-1
    3000:	0407e793          	ori	a5,a5,64
    3004:	01c12083          	lw	ra,28(sp)
    3008:	00f41623          	sh	a5,12(s0)
    300c:	01812403          	lw	s0,24(sp)
    3010:	01412483          	lw	s1,20(sp)
    3014:	01012903          	lw	s2,16(sp)
    3018:	00c12983          	lw	s3,12(sp)
    301c:	02010113          	addi	sp,sp,32
    3020:	00008067          	ret
    3024:	03c5a703          	lw	a4,60(a1)
    3028:	e6e04ae3          	bgtz	a4,2e9c <__sflush_r+0x44>
    302c:	f4dff06f          	j	2f78 <__sflush_r+0x120>
    3030:	05042503          	lw	a0,80(s0)
    3034:	eb5ff06f          	j	2ee8 <__sflush_r+0x90>
    3038:	00c45783          	lhu	a5,12(s0)
    303c:	fffff737          	lui	a4,0xfffff
    3040:	7ff70713          	addi	a4,a4,2047 # fffff7ff <_stack+0xfffbf7ff>
    3044:	00e7f7b3          	and	a5,a5,a4
    3048:	01042683          	lw	a3,16(s0)
    304c:	01079793          	slli	a5,a5,0x10
    3050:	4107d793          	srai	a5,a5,0x10
    3054:	00c7d713          	srli	a4,a5,0xc
    3058:	00f41623          	sh	a5,12(s0)
    305c:	00042223          	sw	zero,4(s0)
    3060:	00d42023          	sw	a3,0(s0)
    3064:	00177793          	andi	a5,a4,1
    3068:	ee0788e3          	beqz	a5,2f58 <__sflush_r+0x100>
    306c:	04a42823          	sw	a0,80(s0)
    3070:	ee9ff06f          	j	2f58 <__sflush_r+0x100>
    3074:	0009a783          	lw	a5,0(s3)
    3078:	e60782e3          	beqz	a5,2edc <__sflush_r+0x84>
    307c:	01d00713          	li	a4,29
    3080:	02e78863          	beq	a5,a4,30b0 <__sflush_r+0x258>
    3084:	01600713          	li	a4,22
    3088:	02e78463          	beq	a5,a4,30b0 <__sflush_r+0x258>
    308c:	00c45783          	lhu	a5,12(s0)
    3090:	0407e793          	ori	a5,a5,64
    3094:	00f41623          	sh	a5,12(s0)
    3098:	ee5ff06f          	j	2f7c <__sflush_r+0x124>
    309c:	fffff737          	lui	a4,0xfffff
    30a0:	7ff70713          	addi	a4,a4,2047 # fffff7ff <_stack+0xfffbf7ff>
    30a4:	01042683          	lw	a3,16(s0)
    30a8:	00e7f7b3          	and	a5,a5,a4
    30ac:	fa9ff06f          	j	3054 <__sflush_r+0x1fc>
    30b0:	0099a023          	sw	s1,0(s3)
    30b4:	00000513          	li	a0,0
    30b8:	ec5ff06f          	j	2f7c <__sflush_r+0x124>

000030bc <_fflush_r>:
    30bc:	fe010113          	addi	sp,sp,-32
    30c0:	00812c23          	sw	s0,24(sp)
    30c4:	00112e23          	sw	ra,28(sp)
    30c8:	00050413          	mv	s0,a0
    30cc:	00050663          	beqz	a0,30d8 <_fflush_r+0x1c>
    30d0:	03852783          	lw	a5,56(a0)
    30d4:	02078063          	beqz	a5,30f4 <_fflush_r+0x38>
    30d8:	00c59783          	lh	a5,12(a1)
    30dc:	02079663          	bnez	a5,3108 <_fflush_r+0x4c>
    30e0:	01c12083          	lw	ra,28(sp)
    30e4:	01812403          	lw	s0,24(sp)
    30e8:	00000513          	li	a0,0
    30ec:	02010113          	addi	sp,sp,32
    30f0:	00008067          	ret
    30f4:	00b12623          	sw	a1,12(sp)
    30f8:	400000ef          	jal	ra,34f8 <__sinit>
    30fc:	00c12583          	lw	a1,12(sp)
    3100:	00c59783          	lh	a5,12(a1)
    3104:	fc078ee3          	beqz	a5,30e0 <_fflush_r+0x24>
    3108:	00040513          	mv	a0,s0
    310c:	01812403          	lw	s0,24(sp)
    3110:	01c12083          	lw	ra,28(sp)
    3114:	02010113          	addi	sp,sp,32
    3118:	d41ff06f          	j	2e58 <__sflush_r>

0000311c <fflush>:
    311c:	06050863          	beqz	a0,318c <fflush+0x70>
    3120:	fe010113          	addi	sp,sp,-32
    3124:	00812c23          	sw	s0,24(sp)
    3128:	00112e23          	sw	ra,28(sp)
    312c:	00050413          	mv	s0,a0
    3130:	0001d517          	auipc	a0,0x1d
    3134:	f0052503          	lw	a0,-256(a0) # 20030 <_impure_ptr>
    3138:	00050663          	beqz	a0,3144 <fflush+0x28>
    313c:	03852783          	lw	a5,56(a0)
    3140:	02078a63          	beqz	a5,3174 <fflush+0x58>
    3144:	00c41783          	lh	a5,12(s0)
    3148:	00079c63          	bnez	a5,3160 <fflush+0x44>
    314c:	01c12083          	lw	ra,28(sp)
    3150:	01812403          	lw	s0,24(sp)
    3154:	00000513          	li	a0,0
    3158:	02010113          	addi	sp,sp,32
    315c:	00008067          	ret
    3160:	00040593          	mv	a1,s0
    3164:	01812403          	lw	s0,24(sp)
    3168:	01c12083          	lw	ra,28(sp)
    316c:	02010113          	addi	sp,sp,32
    3170:	ce9ff06f          	j	2e58 <__sflush_r>
    3174:	00a12623          	sw	a0,12(sp)
    3178:	380000ef          	jal	ra,34f8 <__sinit>
    317c:	00c41783          	lh	a5,12(s0)
    3180:	00c12503          	lw	a0,12(sp)
    3184:	fc0784e3          	beqz	a5,314c <fflush+0x30>
    3188:	fd9ff06f          	j	3160 <fflush+0x44>
    318c:	00000597          	auipc	a1,0x0
    3190:	f3058593          	addi	a1,a1,-208 # 30bc <_fflush_r>
    3194:	0001d517          	auipc	a0,0x1d
    3198:	e7c52503          	lw	a0,-388(a0) # 20010 <_global_impure_ptr>
    319c:	09d0006f          	j	3a38 <_fwalk_reent>

000031a0 <__fp_lock>:
    31a0:	00000513          	li	a0,0
    31a4:	00008067          	ret

000031a8 <_cleanup_r>:
    31a8:	0000a597          	auipc	a1,0xa
    31ac:	d0458593          	addi	a1,a1,-764 # ceac <_fclose_r>
    31b0:	0890006f          	j	3a38 <_fwalk_reent>

000031b4 <__fp_unlock>:
    31b4:	00000513          	li	a0,0
    31b8:	00008067          	ret

000031bc <__sinit.part.0>:
    31bc:	fe010113          	addi	sp,sp,-32
    31c0:	00112e23          	sw	ra,28(sp)
    31c4:	00812c23          	sw	s0,24(sp)
    31c8:	00912a23          	sw	s1,20(sp)
    31cc:	01212823          	sw	s2,16(sp)
    31d0:	01312623          	sw	s3,12(sp)
    31d4:	01412423          	sw	s4,8(sp)
    31d8:	01512223          	sw	s5,4(sp)
    31dc:	01612023          	sw	s6,0(sp)
    31e0:	00452403          	lw	s0,4(a0)
    31e4:	00000717          	auipc	a4,0x0
    31e8:	fc470713          	addi	a4,a4,-60 # 31a8 <_cleanup_r>
    31ec:	02e52e23          	sw	a4,60(a0)
    31f0:	2ec50793          	addi	a5,a0,748
    31f4:	00300713          	li	a4,3
    31f8:	2ee52223          	sw	a4,740(a0)
    31fc:	2ef52423          	sw	a5,744(a0)
    3200:	2e052023          	sw	zero,736(a0)
    3204:	00400793          	li	a5,4
    3208:	00050913          	mv	s2,a0
    320c:	00f42623          	sw	a5,12(s0)
    3210:	00800613          	li	a2,8
    3214:	00000593          	li	a1,0
    3218:	06042223          	sw	zero,100(s0)
    321c:	00042023          	sw	zero,0(s0)
    3220:	00042223          	sw	zero,4(s0)
    3224:	00042423          	sw	zero,8(s0)
    3228:	00042823          	sw	zero,16(s0)
    322c:	00042a23          	sw	zero,20(s0)
    3230:	00042c23          	sw	zero,24(s0)
    3234:	05c40513          	addi	a0,s0,92
    3238:	120040ef          	jal	ra,7358 <memset>
    323c:	00892483          	lw	s1,8(s2)
    3240:	00005b17          	auipc	s6,0x5
    3244:	5f4b0b13          	addi	s6,s6,1524 # 8834 <__sread>
    3248:	00005a97          	auipc	s5,0x5
    324c:	650a8a93          	addi	s5,s5,1616 # 8898 <__swrite>
    3250:	00005a17          	auipc	s4,0x5
    3254:	6d0a0a13          	addi	s4,s4,1744 # 8920 <__sseek>
    3258:	00005997          	auipc	s3,0x5
    325c:	73098993          	addi	s3,s3,1840 # 8988 <__sclose>
    3260:	000107b7          	lui	a5,0x10
    3264:	03642023          	sw	s6,32(s0)
    3268:	03542223          	sw	s5,36(s0)
    326c:	03442423          	sw	s4,40(s0)
    3270:	03342623          	sw	s3,44(s0)
    3274:	00842e23          	sw	s0,28(s0)
    3278:	00978793          	addi	a5,a5,9 # 10009 <__udivdi3+0x3bd>
    327c:	00f4a623          	sw	a5,12(s1)
    3280:	00800613          	li	a2,8
    3284:	00000593          	li	a1,0
    3288:	0604a223          	sw	zero,100(s1)
    328c:	0004a023          	sw	zero,0(s1)
    3290:	0004a223          	sw	zero,4(s1)
    3294:	0004a423          	sw	zero,8(s1)
    3298:	0004a823          	sw	zero,16(s1)
    329c:	0004aa23          	sw	zero,20(s1)
    32a0:	0004ac23          	sw	zero,24(s1)
    32a4:	05c48513          	addi	a0,s1,92
    32a8:	0b0040ef          	jal	ra,7358 <memset>
    32ac:	00c92403          	lw	s0,12(s2)
    32b0:	000207b7          	lui	a5,0x20
    32b4:	0364a023          	sw	s6,32(s1)
    32b8:	0354a223          	sw	s5,36(s1)
    32bc:	0344a423          	sw	s4,40(s1)
    32c0:	0334a623          	sw	s3,44(s1)
    32c4:	0094ae23          	sw	s1,28(s1)
    32c8:	01278793          	addi	a5,a5,18 # 20012 <_global_impure_ptr+0x2>
    32cc:	00f42623          	sw	a5,12(s0)
    32d0:	06042223          	sw	zero,100(s0)
    32d4:	00042023          	sw	zero,0(s0)
    32d8:	00042223          	sw	zero,4(s0)
    32dc:	00042423          	sw	zero,8(s0)
    32e0:	00042823          	sw	zero,16(s0)
    32e4:	00042a23          	sw	zero,20(s0)
    32e8:	00042c23          	sw	zero,24(s0)
    32ec:	05c40513          	addi	a0,s0,92
    32f0:	00800613          	li	a2,8
    32f4:	00000593          	li	a1,0
    32f8:	060040ef          	jal	ra,7358 <memset>
    32fc:	01c12083          	lw	ra,28(sp)
    3300:	03642023          	sw	s6,32(s0)
    3304:	03542223          	sw	s5,36(s0)
    3308:	03442423          	sw	s4,40(s0)
    330c:	03342623          	sw	s3,44(s0)
    3310:	00842e23          	sw	s0,28(s0)
    3314:	01812403          	lw	s0,24(sp)
    3318:	00100793          	li	a5,1
    331c:	02f92c23          	sw	a5,56(s2)
    3320:	01412483          	lw	s1,20(sp)
    3324:	01012903          	lw	s2,16(sp)
    3328:	00c12983          	lw	s3,12(sp)
    332c:	00812a03          	lw	s4,8(sp)
    3330:	00412a83          	lw	s5,4(sp)
    3334:	00012b03          	lw	s6,0(sp)
    3338:	02010113          	addi	sp,sp,32
    333c:	00008067          	ret

00003340 <__sfmoreglue>:
    3340:	ff010113          	addi	sp,sp,-16
    3344:	00912223          	sw	s1,4(sp)
    3348:	06800613          	li	a2,104
    334c:	fff58493          	addi	s1,a1,-1
    3350:	02c484b3          	mul	s1,s1,a2
    3354:	01212023          	sw	s2,0(sp)
    3358:	00058913          	mv	s2,a1
    335c:	00812423          	sw	s0,8(sp)
    3360:	00112623          	sw	ra,12(sp)
    3364:	07448593          	addi	a1,s1,116
    3368:	6e8030ef          	jal	ra,6a50 <_malloc_r>
    336c:	00050413          	mv	s0,a0
    3370:	02050063          	beqz	a0,3390 <__sfmoreglue+0x50>
    3374:	00c50513          	addi	a0,a0,12
    3378:	00042023          	sw	zero,0(s0)
    337c:	01242223          	sw	s2,4(s0)
    3380:	00a42423          	sw	a0,8(s0)
    3384:	06848613          	addi	a2,s1,104
    3388:	00000593          	li	a1,0
    338c:	7cd030ef          	jal	ra,7358 <memset>
    3390:	00c12083          	lw	ra,12(sp)
    3394:	00040513          	mv	a0,s0
    3398:	00812403          	lw	s0,8(sp)
    339c:	00412483          	lw	s1,4(sp)
    33a0:	00012903          	lw	s2,0(sp)
    33a4:	01010113          	addi	sp,sp,16
    33a8:	00008067          	ret

000033ac <__sfp>:
    33ac:	fe010113          	addi	sp,sp,-32
    33b0:	01212823          	sw	s2,16(sp)
    33b4:	0001d917          	auipc	s2,0x1d
    33b8:	c5c92903          	lw	s2,-932(s2) # 20010 <_global_impure_ptr>
    33bc:	03892783          	lw	a5,56(s2)
    33c0:	01312623          	sw	s3,12(sp)
    33c4:	00112e23          	sw	ra,28(sp)
    33c8:	00812c23          	sw	s0,24(sp)
    33cc:	00912a23          	sw	s1,20(sp)
    33d0:	01412423          	sw	s4,8(sp)
    33d4:	00050993          	mv	s3,a0
    33d8:	0a078a63          	beqz	a5,348c <__sfp+0xe0>
    33dc:	2e090913          	addi	s2,s2,736
    33e0:	fff00493          	li	s1,-1
    33e4:	00400a13          	li	s4,4
    33e8:	00492783          	lw	a5,4(s2)
    33ec:	00892403          	lw	s0,8(s2)
    33f0:	fff78793          	addi	a5,a5,-1
    33f4:	0007d863          	bgez	a5,3404 <__sfp+0x58>
    33f8:	0840006f          	j	347c <__sfp+0xd0>
    33fc:	06840413          	addi	s0,s0,104
    3400:	06978e63          	beq	a5,s1,347c <__sfp+0xd0>
    3404:	00c41703          	lh	a4,12(s0)
    3408:	fff78793          	addi	a5,a5,-1
    340c:	fe0718e3          	bnez	a4,33fc <__sfp+0x50>
    3410:	ffff07b7          	lui	a5,0xffff0
    3414:	00178793          	addi	a5,a5,1 # ffff0001 <_stack+0xfffb0001>
    3418:	06042223          	sw	zero,100(s0)
    341c:	00042023          	sw	zero,0(s0)
    3420:	00042223          	sw	zero,4(s0)
    3424:	00042423          	sw	zero,8(s0)
    3428:	00f42623          	sw	a5,12(s0)
    342c:	00042823          	sw	zero,16(s0)
    3430:	00042a23          	sw	zero,20(s0)
    3434:	00042c23          	sw	zero,24(s0)
    3438:	00800613          	li	a2,8
    343c:	00000593          	li	a1,0
    3440:	05c40513          	addi	a0,s0,92
    3444:	715030ef          	jal	ra,7358 <memset>
    3448:	02042823          	sw	zero,48(s0)
    344c:	02042a23          	sw	zero,52(s0)
    3450:	04042223          	sw	zero,68(s0)
    3454:	04042423          	sw	zero,72(s0)
    3458:	01c12083          	lw	ra,28(sp)
    345c:	00040513          	mv	a0,s0
    3460:	01812403          	lw	s0,24(sp)
    3464:	01412483          	lw	s1,20(sp)
    3468:	01012903          	lw	s2,16(sp)
    346c:	00c12983          	lw	s3,12(sp)
    3470:	00812a03          	lw	s4,8(sp)
    3474:	02010113          	addi	sp,sp,32
    3478:	00008067          	ret
    347c:	00092403          	lw	s0,0(s2)
    3480:	00040c63          	beqz	s0,3498 <__sfp+0xec>
    3484:	00040913          	mv	s2,s0
    3488:	f61ff06f          	j	33e8 <__sfp+0x3c>
    348c:	00090513          	mv	a0,s2
    3490:	d2dff0ef          	jal	ra,31bc <__sinit.part.0>
    3494:	f49ff06f          	j	33dc <__sfp+0x30>
    3498:	1ac00593          	li	a1,428
    349c:	00098513          	mv	a0,s3
    34a0:	5b0030ef          	jal	ra,6a50 <_malloc_r>
    34a4:	00050413          	mv	s0,a0
    34a8:	02050663          	beqz	a0,34d4 <__sfp+0x128>
    34ac:	00c50513          	addi	a0,a0,12
    34b0:	00042023          	sw	zero,0(s0)
    34b4:	01442223          	sw	s4,4(s0)
    34b8:	00a42423          	sw	a0,8(s0)
    34bc:	1a000613          	li	a2,416
    34c0:	00000593          	li	a1,0
    34c4:	695030ef          	jal	ra,7358 <memset>
    34c8:	00892023          	sw	s0,0(s2)
    34cc:	00040913          	mv	s2,s0
    34d0:	f19ff06f          	j	33e8 <__sfp+0x3c>
    34d4:	00092023          	sw	zero,0(s2)
    34d8:	00c00793          	li	a5,12
    34dc:	00f9a023          	sw	a5,0(s3)
    34e0:	f79ff06f          	j	3458 <__sfp+0xac>

000034e4 <_cleanup>:
    34e4:	0000a597          	auipc	a1,0xa
    34e8:	9c858593          	addi	a1,a1,-1592 # ceac <_fclose_r>
    34ec:	0001d517          	auipc	a0,0x1d
    34f0:	b2452503          	lw	a0,-1244(a0) # 20010 <_global_impure_ptr>
    34f4:	5440006f          	j	3a38 <_fwalk_reent>

000034f8 <__sinit>:
    34f8:	03852783          	lw	a5,56(a0)
    34fc:	00078463          	beqz	a5,3504 <__sinit+0xc>
    3500:	00008067          	ret
    3504:	cb9ff06f          	j	31bc <__sinit.part.0>

00003508 <__sfp_lock_acquire>:
    3508:	00008067          	ret

0000350c <__sfp_lock_release>:
    350c:	00008067          	ret

00003510 <__sinit_lock_acquire>:
    3510:	00008067          	ret

00003514 <__sinit_lock_release>:
    3514:	00008067          	ret

00003518 <__fp_lock_all>:
    3518:	00000597          	auipc	a1,0x0
    351c:	c8858593          	addi	a1,a1,-888 # 31a0 <__fp_lock>
    3520:	0001d517          	auipc	a0,0x1d
    3524:	b1052503          	lw	a0,-1264(a0) # 20030 <_impure_ptr>
    3528:	46c0006f          	j	3994 <_fwalk>

0000352c <__fp_unlock_all>:
    352c:	00000597          	auipc	a1,0x0
    3530:	c8858593          	addi	a1,a1,-888 # 31b4 <__fp_unlock>
    3534:	0001d517          	auipc	a0,0x1d
    3538:	afc52503          	lw	a0,-1284(a0) # 20030 <_impure_ptr>
    353c:	4580006f          	j	3994 <_fwalk>

00003540 <_malloc_trim_r>:
    3540:	fe010113          	addi	sp,sp,-32
    3544:	00812c23          	sw	s0,24(sp)
    3548:	00912a23          	sw	s1,20(sp)
    354c:	01212823          	sw	s2,16(sp)
    3550:	01312623          	sw	s3,12(sp)
    3554:	01412423          	sw	s4,8(sp)
    3558:	00058993          	mv	s3,a1
    355c:	00112e23          	sw	ra,28(sp)
    3560:	0001ea17          	auipc	s4,0x1e
    3564:	f1ca0a13          	addi	s4,s4,-228 # 2147c <__malloc_av_>
    3568:	00050913          	mv	s2,a0
    356c:	6c9030ef          	jal	ra,7434 <__malloc_lock>
    3570:	008a2703          	lw	a4,8(s4)
    3574:	000017b7          	lui	a5,0x1
    3578:	fef78413          	addi	s0,a5,-17 # fef <_vfprintf_r+0xe43>
    357c:	00472483          	lw	s1,4(a4)
    3580:	41340433          	sub	s0,s0,s3
    3584:	ffc4f493          	andi	s1,s1,-4
    3588:	00940433          	add	s0,s0,s1
    358c:	00c45413          	srli	s0,s0,0xc
    3590:	fff40413          	addi	s0,s0,-1
    3594:	00c41413          	slli	s0,s0,0xc
    3598:	00f44e63          	blt	s0,a5,35b4 <_malloc_trim_r+0x74>
    359c:	00000593          	li	a1,0
    35a0:	00090513          	mv	a0,s2
    35a4:	0a0050ef          	jal	ra,8644 <_sbrk_r>
    35a8:	008a2783          	lw	a5,8(s4)
    35ac:	009787b3          	add	a5,a5,s1
    35b0:	02f50863          	beq	a0,a5,35e0 <_malloc_trim_r+0xa0>
    35b4:	00090513          	mv	a0,s2
    35b8:	681030ef          	jal	ra,7438 <__malloc_unlock>
    35bc:	01c12083          	lw	ra,28(sp)
    35c0:	01812403          	lw	s0,24(sp)
    35c4:	01412483          	lw	s1,20(sp)
    35c8:	01012903          	lw	s2,16(sp)
    35cc:	00c12983          	lw	s3,12(sp)
    35d0:	00812a03          	lw	s4,8(sp)
    35d4:	00000513          	li	a0,0
    35d8:	02010113          	addi	sp,sp,32
    35dc:	00008067          	ret
    35e0:	408005b3          	neg	a1,s0
    35e4:	00090513          	mv	a0,s2
    35e8:	05c050ef          	jal	ra,8644 <_sbrk_r>
    35ec:	fff00793          	li	a5,-1
    35f0:	04f50a63          	beq	a0,a5,3644 <_malloc_trim_r+0x104>
    35f4:	0001e717          	auipc	a4,0x1e
    35f8:	2a870713          	addi	a4,a4,680 # 2189c <__malloc_current_mallinfo>
    35fc:	00072783          	lw	a5,0(a4)
    3600:	008a2683          	lw	a3,8(s4)
    3604:	408484b3          	sub	s1,s1,s0
    3608:	0014e493          	ori	s1,s1,1
    360c:	40878433          	sub	s0,a5,s0
    3610:	00090513          	mv	a0,s2
    3614:	0096a223          	sw	s1,4(a3) # 1004 <_vfprintf_r+0xe58>
    3618:	00872023          	sw	s0,0(a4)
    361c:	61d030ef          	jal	ra,7438 <__malloc_unlock>
    3620:	01c12083          	lw	ra,28(sp)
    3624:	01812403          	lw	s0,24(sp)
    3628:	01412483          	lw	s1,20(sp)
    362c:	01012903          	lw	s2,16(sp)
    3630:	00c12983          	lw	s3,12(sp)
    3634:	00812a03          	lw	s4,8(sp)
    3638:	00100513          	li	a0,1
    363c:	02010113          	addi	sp,sp,32
    3640:	00008067          	ret
    3644:	00000593          	li	a1,0
    3648:	00090513          	mv	a0,s2
    364c:	7f9040ef          	jal	ra,8644 <_sbrk_r>
    3650:	008a2703          	lw	a4,8(s4)
    3654:	00f00693          	li	a3,15
    3658:	40e507b3          	sub	a5,a0,a4
    365c:	f4f6dce3          	bge	a3,a5,35b4 <_malloc_trim_r+0x74>
    3660:	0001d697          	auipc	a3,0x1d
    3664:	9d46a683          	lw	a3,-1580(a3) # 20034 <__malloc_sbrk_base>
    3668:	40d50533          	sub	a0,a0,a3
    366c:	0017e793          	ori	a5,a5,1
    3670:	0001e697          	auipc	a3,0x1e
    3674:	22a6a623          	sw	a0,556(a3) # 2189c <__malloc_current_mallinfo>
    3678:	00f72223          	sw	a5,4(a4)
    367c:	f39ff06f          	j	35b4 <_malloc_trim_r+0x74>

00003680 <_free_r>:
    3680:	12058a63          	beqz	a1,37b4 <_free_r+0x134>
    3684:	ff010113          	addi	sp,sp,-16
    3688:	00812423          	sw	s0,8(sp)
    368c:	00912223          	sw	s1,4(sp)
    3690:	00058413          	mv	s0,a1
    3694:	00050493          	mv	s1,a0
    3698:	00112623          	sw	ra,12(sp)
    369c:	599030ef          	jal	ra,7434 <__malloc_lock>
    36a0:	ffc42583          	lw	a1,-4(s0)
    36a4:	ff840713          	addi	a4,s0,-8
    36a8:	0001e817          	auipc	a6,0x1e
    36ac:	dd480813          	addi	a6,a6,-556 # 2147c <__malloc_av_>
    36b0:	ffe5f793          	andi	a5,a1,-2
    36b4:	00f70633          	add	a2,a4,a5
    36b8:	00462683          	lw	a3,4(a2)
    36bc:	00882503          	lw	a0,8(a6)
    36c0:	ffc6f693          	andi	a3,a3,-4
    36c4:	1ac50a63          	beq	a0,a2,3878 <_free_r+0x1f8>
    36c8:	00d62223          	sw	a3,4(a2)
    36cc:	0015f593          	andi	a1,a1,1
    36d0:	00d60533          	add	a0,a2,a3
    36d4:	0a059063          	bnez	a1,3774 <_free_r+0xf4>
    36d8:	ff842303          	lw	t1,-8(s0)
    36dc:	00452583          	lw	a1,4(a0)
    36e0:	0001e897          	auipc	a7,0x1e
    36e4:	da488893          	addi	a7,a7,-604 # 21484 <__malloc_av_+0x8>
    36e8:	40670733          	sub	a4,a4,t1
    36ec:	00872503          	lw	a0,8(a4)
    36f0:	006787b3          	add	a5,a5,t1
    36f4:	0015f593          	andi	a1,a1,1
    36f8:	15150063          	beq	a0,a7,3838 <_free_r+0x1b8>
    36fc:	00c72303          	lw	t1,12(a4)
    3700:	00652623          	sw	t1,12(a0)
    3704:	00a32423          	sw	a0,8(t1)
    3708:	1e058463          	beqz	a1,38f0 <_free_r+0x270>
    370c:	0017e693          	ori	a3,a5,1
    3710:	00d72223          	sw	a3,4(a4)
    3714:	00f62023          	sw	a5,0(a2)
    3718:	1ff00693          	li	a3,511
    371c:	0af6e863          	bltu	a3,a5,37cc <_free_r+0x14c>
    3720:	ff87f693          	andi	a3,a5,-8
    3724:	00868693          	addi	a3,a3,8
    3728:	00482583          	lw	a1,4(a6)
    372c:	00d806b3          	add	a3,a6,a3
    3730:	0006a603          	lw	a2,0(a3)
    3734:	0057d513          	srli	a0,a5,0x5
    3738:	00100793          	li	a5,1
    373c:	00a797b3          	sll	a5,a5,a0
    3740:	00b7e7b3          	or	a5,a5,a1
    3744:	ff868593          	addi	a1,a3,-8
    3748:	00b72623          	sw	a1,12(a4)
    374c:	00c72423          	sw	a2,8(a4)
    3750:	00f82223          	sw	a5,4(a6)
    3754:	00e6a023          	sw	a4,0(a3)
    3758:	00e62623          	sw	a4,12(a2)
    375c:	00812403          	lw	s0,8(sp)
    3760:	00c12083          	lw	ra,12(sp)
    3764:	00048513          	mv	a0,s1
    3768:	00412483          	lw	s1,4(sp)
    376c:	01010113          	addi	sp,sp,16
    3770:	4c90306f          	j	7438 <__malloc_unlock>
    3774:	00452583          	lw	a1,4(a0)
    3778:	0015f593          	andi	a1,a1,1
    377c:	02059e63          	bnez	a1,37b8 <_free_r+0x138>
    3780:	00d787b3          	add	a5,a5,a3
    3784:	0001e897          	auipc	a7,0x1e
    3788:	d0088893          	addi	a7,a7,-768 # 21484 <__malloc_av_+0x8>
    378c:	00862683          	lw	a3,8(a2)
    3790:	0017e513          	ori	a0,a5,1
    3794:	00f705b3          	add	a1,a4,a5
    3798:	17168863          	beq	a3,a7,3908 <_free_r+0x288>
    379c:	00c62603          	lw	a2,12(a2)
    37a0:	00c6a623          	sw	a2,12(a3)
    37a4:	00d62423          	sw	a3,8(a2)
    37a8:	00a72223          	sw	a0,4(a4)
    37ac:	00f5a023          	sw	a5,0(a1)
    37b0:	f69ff06f          	j	3718 <_free_r+0x98>
    37b4:	00008067          	ret
    37b8:	0017e693          	ori	a3,a5,1
    37bc:	fed42e23          	sw	a3,-4(s0)
    37c0:	00f62023          	sw	a5,0(a2)
    37c4:	1ff00693          	li	a3,511
    37c8:	f4f6fce3          	bgeu	a3,a5,3720 <_free_r+0xa0>
    37cc:	0097d693          	srli	a3,a5,0x9
    37d0:	00400613          	li	a2,4
    37d4:	0ed66c63          	bltu	a2,a3,38cc <_free_r+0x24c>
    37d8:	0067d693          	srli	a3,a5,0x6
    37dc:	03968593          	addi	a1,a3,57
    37e0:	03868613          	addi	a2,a3,56
    37e4:	00359593          	slli	a1,a1,0x3
    37e8:	00b805b3          	add	a1,a6,a1
    37ec:	0005a683          	lw	a3,0(a1)
    37f0:	ff858593          	addi	a1,a1,-8
    37f4:	12d58863          	beq	a1,a3,3924 <_free_r+0x2a4>
    37f8:	0046a603          	lw	a2,4(a3)
    37fc:	ffc67613          	andi	a2,a2,-4
    3800:	00c7f663          	bgeu	a5,a2,380c <_free_r+0x18c>
    3804:	0086a683          	lw	a3,8(a3)
    3808:	fed598e3          	bne	a1,a3,37f8 <_free_r+0x178>
    380c:	00c6a583          	lw	a1,12(a3)
    3810:	00b72623          	sw	a1,12(a4)
    3814:	00d72423          	sw	a3,8(a4)
    3818:	00812403          	lw	s0,8(sp)
    381c:	00c12083          	lw	ra,12(sp)
    3820:	00e5a423          	sw	a4,8(a1)
    3824:	00048513          	mv	a0,s1
    3828:	00412483          	lw	s1,4(sp)
    382c:	00e6a623          	sw	a4,12(a3)
    3830:	01010113          	addi	sp,sp,16
    3834:	4050306f          	j	7438 <__malloc_unlock>
    3838:	14059663          	bnez	a1,3984 <_free_r+0x304>
    383c:	00c62583          	lw	a1,12(a2)
    3840:	00862603          	lw	a2,8(a2)
    3844:	00f687b3          	add	a5,a3,a5
    3848:	00812403          	lw	s0,8(sp)
    384c:	00b62623          	sw	a1,12(a2)
    3850:	00c5a423          	sw	a2,8(a1)
    3854:	0017e693          	ori	a3,a5,1
    3858:	00c12083          	lw	ra,12(sp)
    385c:	00d72223          	sw	a3,4(a4)
    3860:	00048513          	mv	a0,s1
    3864:	00f70733          	add	a4,a4,a5
    3868:	00412483          	lw	s1,4(sp)
    386c:	00f72023          	sw	a5,0(a4)
    3870:	01010113          	addi	sp,sp,16
    3874:	3c50306f          	j	7438 <__malloc_unlock>
    3878:	0015f593          	andi	a1,a1,1
    387c:	00d787b3          	add	a5,a5,a3
    3880:	02059063          	bnez	a1,38a0 <_free_r+0x220>
    3884:	ff842583          	lw	a1,-8(s0)
    3888:	40b70733          	sub	a4,a4,a1
    388c:	00c72683          	lw	a3,12(a4)
    3890:	00872603          	lw	a2,8(a4)
    3894:	00b787b3          	add	a5,a5,a1
    3898:	00d62623          	sw	a3,12(a2)
    389c:	00c6a423          	sw	a2,8(a3)
    38a0:	0017e693          	ori	a3,a5,1
    38a4:	00d72223          	sw	a3,4(a4)
    38a8:	00e82423          	sw	a4,8(a6)
    38ac:	0001c717          	auipc	a4,0x1c
    38b0:	78c72703          	lw	a4,1932(a4) # 20038 <__malloc_trim_threshold>
    38b4:	eae7e4e3          	bltu	a5,a4,375c <_free_r+0xdc>
    38b8:	0001e597          	auipc	a1,0x1e
    38bc:	fd85a583          	lw	a1,-40(a1) # 21890 <__malloc_top_pad>
    38c0:	00048513          	mv	a0,s1
    38c4:	c7dff0ef          	jal	ra,3540 <_malloc_trim_r>
    38c8:	e95ff06f          	j	375c <_free_r+0xdc>
    38cc:	01400613          	li	a2,20
    38d0:	02d67463          	bgeu	a2,a3,38f8 <_free_r+0x278>
    38d4:	05400613          	li	a2,84
    38d8:	06d66463          	bltu	a2,a3,3940 <_free_r+0x2c0>
    38dc:	00c7d693          	srli	a3,a5,0xc
    38e0:	06f68593          	addi	a1,a3,111
    38e4:	06e68613          	addi	a2,a3,110
    38e8:	00359593          	slli	a1,a1,0x3
    38ec:	efdff06f          	j	37e8 <_free_r+0x168>
    38f0:	00d787b3          	add	a5,a5,a3
    38f4:	e99ff06f          	j	378c <_free_r+0x10c>
    38f8:	05c68593          	addi	a1,a3,92
    38fc:	05b68613          	addi	a2,a3,91
    3900:	00359593          	slli	a1,a1,0x3
    3904:	ee5ff06f          	j	37e8 <_free_r+0x168>
    3908:	00e82a23          	sw	a4,20(a6)
    390c:	00e82823          	sw	a4,16(a6)
    3910:	01172623          	sw	a7,12(a4)
    3914:	01172423          	sw	a7,8(a4)
    3918:	00a72223          	sw	a0,4(a4)
    391c:	00f5a023          	sw	a5,0(a1)
    3920:	e3dff06f          	j	375c <_free_r+0xdc>
    3924:	00482503          	lw	a0,4(a6)
    3928:	40265613          	srai	a2,a2,0x2
    392c:	00100793          	li	a5,1
    3930:	00c79633          	sll	a2,a5,a2
    3934:	00a66633          	or	a2,a2,a0
    3938:	00c82223          	sw	a2,4(a6)
    393c:	ed5ff06f          	j	3810 <_free_r+0x190>
    3940:	15400613          	li	a2,340
    3944:	00d66c63          	bltu	a2,a3,395c <_free_r+0x2dc>
    3948:	00f7d693          	srli	a3,a5,0xf
    394c:	07868593          	addi	a1,a3,120
    3950:	07768613          	addi	a2,a3,119
    3954:	00359593          	slli	a1,a1,0x3
    3958:	e91ff06f          	j	37e8 <_free_r+0x168>
    395c:	55400613          	li	a2,1364
    3960:	00d66c63          	bltu	a2,a3,3978 <_free_r+0x2f8>
    3964:	0127d693          	srli	a3,a5,0x12
    3968:	07d68593          	addi	a1,a3,125
    396c:	07c68613          	addi	a2,a3,124
    3970:	00359593          	slli	a1,a1,0x3
    3974:	e75ff06f          	j	37e8 <_free_r+0x168>
    3978:	3f800593          	li	a1,1016
    397c:	07e00613          	li	a2,126
    3980:	e69ff06f          	j	37e8 <_free_r+0x168>
    3984:	0017e693          	ori	a3,a5,1
    3988:	00d72223          	sw	a3,4(a4)
    398c:	00f62023          	sw	a5,0(a2)
    3990:	dcdff06f          	j	375c <_free_r+0xdc>

00003994 <_fwalk>:
    3994:	fe010113          	addi	sp,sp,-32
    3998:	01212823          	sw	s2,16(sp)
    399c:	01312623          	sw	s3,12(sp)
    39a0:	01412423          	sw	s4,8(sp)
    39a4:	01512223          	sw	s5,4(sp)
    39a8:	01612023          	sw	s6,0(sp)
    39ac:	00112e23          	sw	ra,28(sp)
    39b0:	00812c23          	sw	s0,24(sp)
    39b4:	00912a23          	sw	s1,20(sp)
    39b8:	00058b13          	mv	s6,a1
    39bc:	2e050a93          	addi	s5,a0,736
    39c0:	00000a13          	li	s4,0
    39c4:	00100993          	li	s3,1
    39c8:	fff00913          	li	s2,-1
    39cc:	004aa483          	lw	s1,4(s5)
    39d0:	008aa403          	lw	s0,8(s5)
    39d4:	fff48493          	addi	s1,s1,-1
    39d8:	0204c663          	bltz	s1,3a04 <_fwalk+0x70>
    39dc:	00c45783          	lhu	a5,12(s0)
    39e0:	fff48493          	addi	s1,s1,-1
    39e4:	00f9fc63          	bgeu	s3,a5,39fc <_fwalk+0x68>
    39e8:	00e41783          	lh	a5,14(s0)
    39ec:	00040513          	mv	a0,s0
    39f0:	01278663          	beq	a5,s2,39fc <_fwalk+0x68>
    39f4:	000b00e7          	jalr	s6
    39f8:	00aa6a33          	or	s4,s4,a0
    39fc:	06840413          	addi	s0,s0,104
    3a00:	fd249ee3          	bne	s1,s2,39dc <_fwalk+0x48>
    3a04:	000aaa83          	lw	s5,0(s5)
    3a08:	fc0a92e3          	bnez	s5,39cc <_fwalk+0x38>
    3a0c:	01c12083          	lw	ra,28(sp)
    3a10:	01812403          	lw	s0,24(sp)
    3a14:	01412483          	lw	s1,20(sp)
    3a18:	01012903          	lw	s2,16(sp)
    3a1c:	00c12983          	lw	s3,12(sp)
    3a20:	00412a83          	lw	s5,4(sp)
    3a24:	00012b03          	lw	s6,0(sp)
    3a28:	000a0513          	mv	a0,s4
    3a2c:	00812a03          	lw	s4,8(sp)
    3a30:	02010113          	addi	sp,sp,32
    3a34:	00008067          	ret

00003a38 <_fwalk_reent>:
    3a38:	fd010113          	addi	sp,sp,-48
    3a3c:	03212023          	sw	s2,32(sp)
    3a40:	01312e23          	sw	s3,28(sp)
    3a44:	01412c23          	sw	s4,24(sp)
    3a48:	01512a23          	sw	s5,20(sp)
    3a4c:	01612823          	sw	s6,16(sp)
    3a50:	01712623          	sw	s7,12(sp)
    3a54:	02112623          	sw	ra,44(sp)
    3a58:	02812423          	sw	s0,40(sp)
    3a5c:	02912223          	sw	s1,36(sp)
    3a60:	00050a93          	mv	s5,a0
    3a64:	00058b93          	mv	s7,a1
    3a68:	2e050b13          	addi	s6,a0,736
    3a6c:	00000a13          	li	s4,0
    3a70:	00100993          	li	s3,1
    3a74:	fff00913          	li	s2,-1
    3a78:	004b2483          	lw	s1,4(s6)
    3a7c:	008b2403          	lw	s0,8(s6)
    3a80:	fff48493          	addi	s1,s1,-1
    3a84:	0204c863          	bltz	s1,3ab4 <_fwalk_reent+0x7c>
    3a88:	00c45783          	lhu	a5,12(s0)
    3a8c:	fff48493          	addi	s1,s1,-1
    3a90:	00f9fe63          	bgeu	s3,a5,3aac <_fwalk_reent+0x74>
    3a94:	00e41783          	lh	a5,14(s0)
    3a98:	00040593          	mv	a1,s0
    3a9c:	000a8513          	mv	a0,s5
    3aa0:	01278663          	beq	a5,s2,3aac <_fwalk_reent+0x74>
    3aa4:	000b80e7          	jalr	s7
    3aa8:	00aa6a33          	or	s4,s4,a0
    3aac:	06840413          	addi	s0,s0,104
    3ab0:	fd249ce3          	bne	s1,s2,3a88 <_fwalk_reent+0x50>
    3ab4:	000b2b03          	lw	s6,0(s6)
    3ab8:	fc0b10e3          	bnez	s6,3a78 <_fwalk_reent+0x40>
    3abc:	02c12083          	lw	ra,44(sp)
    3ac0:	02812403          	lw	s0,40(sp)
    3ac4:	02412483          	lw	s1,36(sp)
    3ac8:	02012903          	lw	s2,32(sp)
    3acc:	01c12983          	lw	s3,28(sp)
    3ad0:	01412a83          	lw	s5,20(sp)
    3ad4:	01012b03          	lw	s6,16(sp)
    3ad8:	00c12b83          	lw	s7,12(sp)
    3adc:	000a0513          	mv	a0,s4
    3ae0:	01812a03          	lw	s4,24(sp)
    3ae4:	03010113          	addi	sp,sp,48
    3ae8:	00008067          	ret

00003aec <eshdn1>:
    3aec:	00450693          	addi	a3,a0,4
    3af0:	00000793          	li	a5,0
    3af4:	01a50513          	addi	a0,a0,26
    3af8:	ffff8837          	lui	a6,0xffff8
    3afc:	01c0006f          	j	3b18 <eshdn1+0x2c>
    3b00:	00179793          	slli	a5,a5,0x1
    3b04:	00e69023          	sh	a4,0(a3)
    3b08:	01079793          	slli	a5,a5,0x10
    3b0c:	00268693          	addi	a3,a3,2
    3b10:	0107d793          	srli	a5,a5,0x10
    3b14:	02d50e63          	beq	a0,a3,3b50 <eshdn1+0x64>
    3b18:	0006d703          	lhu	a4,0(a3)
    3b1c:	00177613          	andi	a2,a4,1
    3b20:	00060463          	beqz	a2,3b28 <eshdn1+0x3c>
    3b24:	0017e793          	ori	a5,a5,1
    3b28:	00175713          	srli	a4,a4,0x1
    3b2c:	0027f613          	andi	a2,a5,2
    3b30:	010765b3          	or	a1,a4,a6
    3b34:	fc0606e3          	beqz	a2,3b00 <eshdn1+0x14>
    3b38:	00179793          	slli	a5,a5,0x1
    3b3c:	00b69023          	sh	a1,0(a3)
    3b40:	01079793          	slli	a5,a5,0x10
    3b44:	00268693          	addi	a3,a3,2
    3b48:	0107d793          	srli	a5,a5,0x10
    3b4c:	fcd516e3          	bne	a0,a3,3b18 <eshdn1+0x2c>
    3b50:	00008067          	ret

00003b54 <eshup1>:
    3b54:	01850693          	addi	a3,a0,24
    3b58:	00000713          	li	a4,0
    3b5c:	00250513          	addi	a0,a0,2
    3b60:	01c0006f          	j	3b7c <eshup1+0x28>
    3b64:	00171713          	slli	a4,a4,0x1
    3b68:	00f69023          	sh	a5,0(a3)
    3b6c:	01071713          	slli	a4,a4,0x10
    3b70:	ffe68693          	addi	a3,a3,-2
    3b74:	01075713          	srli	a4,a4,0x10
    3b78:	04d50463          	beq	a0,a3,3bc0 <eshup1+0x6c>
    3b7c:	0006d783          	lhu	a5,0(a3)
    3b80:	01079613          	slli	a2,a5,0x10
    3b84:	41065613          	srai	a2,a2,0x10
    3b88:	00179793          	slli	a5,a5,0x1
    3b8c:	00065463          	bgez	a2,3b94 <eshup1+0x40>
    3b90:	00176713          	ori	a4,a4,1
    3b94:	01079793          	slli	a5,a5,0x10
    3b98:	0107d793          	srli	a5,a5,0x10
    3b9c:	00277613          	andi	a2,a4,2
    3ba0:	0017e593          	ori	a1,a5,1
    3ba4:	fc0600e3          	beqz	a2,3b64 <eshup1+0x10>
    3ba8:	00171713          	slli	a4,a4,0x1
    3bac:	00b69023          	sh	a1,0(a3)
    3bb0:	01071713          	slli	a4,a4,0x10
    3bb4:	ffe68693          	addi	a3,a3,-2
    3bb8:	01075713          	srli	a4,a4,0x10
    3bbc:	fcd510e3          	bne	a0,a3,3b7c <eshup1+0x28>
    3bc0:	00008067          	ret

00003bc4 <m16m>:
    3bc4:	fe010113          	addi	sp,sp,-32
    3bc8:	00010e37          	lui	t3,0x10
    3bcc:	00011d23          	sh	zero,26(sp)
    3bd0:	00011e23          	sh	zero,28(sp)
    3bd4:	01858593          	addi	a1,a1,24
    3bd8:	01c10793          	addi	a5,sp,28
    3bdc:	00810813          	addi	a6,sp,8
    3be0:	fffe0e13          	addi	t3,t3,-1 # ffff <__udivdi3+0x3b3>
    3be4:	0005d703          	lhu	a4,0(a1)
    3be8:	ffe78793          	addi	a5,a5,-2
    3bec:	ffe58593          	addi	a1,a1,-2
    3bf0:	02071863          	bnez	a4,3c20 <m16m+0x5c>
    3bf4:	fe079f23          	sh	zero,-2(a5)
    3bf8:	ff0796e3          	bne	a5,a6,3be4 <m16m+0x20>
    3bfc:	00460613          	addi	a2,a2,4
    3c00:	01e10693          	addi	a3,sp,30
    3c04:	0007d703          	lhu	a4,0(a5)
    3c08:	00278793          	addi	a5,a5,2
    3c0c:	00260613          	addi	a2,a2,2
    3c10:	fee61f23          	sh	a4,-2(a2)
    3c14:	fed798e3          	bne	a5,a3,3c04 <m16m+0x40>
    3c18:	02010113          	addi	sp,sp,32
    3c1c:	00008067          	ret
    3c20:	02a70733          	mul	a4,a4,a0
    3c24:	0027d883          	lhu	a7,2(a5)
    3c28:	0007d303          	lhu	t1,0(a5)
    3c2c:	01c776b3          	and	a3,a4,t3
    3c30:	011686b3          	add	a3,a3,a7
    3c34:	01075713          	srli	a4,a4,0x10
    3c38:	0106d893          	srli	a7,a3,0x10
    3c3c:	00670733          	add	a4,a4,t1
    3c40:	01170733          	add	a4,a4,a7
    3c44:	01075893          	srli	a7,a4,0x10
    3c48:	00d79123          	sh	a3,2(a5)
    3c4c:	00e79023          	sh	a4,0(a5)
    3c50:	ff179f23          	sh	a7,-2(a5)
    3c54:	f90798e3          	bne	a5,a6,3be4 <m16m+0x20>
    3c58:	fa5ff06f          	j	3bfc <m16m+0x38>

00003c5c <emovo.constprop.0>:
    3c5c:	00055703          	lhu	a4,0(a0)
    3c60:	00255783          	lhu	a5,2(a0)
    3c64:	00070663          	beqz	a4,3c70 <emovo.constprop.0+0x14>
    3c68:	00008737          	lui	a4,0x8
    3c6c:	00e7e7b3          	or	a5,a5,a4
    3c70:	00f59923          	sh	a5,18(a1)
    3c74:	00255703          	lhu	a4,2(a0)
    3c78:	000087b7          	lui	a5,0x8
    3c7c:	fff78793          	addi	a5,a5,-1 # 7fff <__mdiff+0xfb>
    3c80:	02f70463          	beq	a4,a5,3ca8 <emovo.constprop.0+0x4c>
    3c84:	00650793          	addi	a5,a0,6
    3c88:	01058593          	addi	a1,a1,16
    3c8c:	01850513          	addi	a0,a0,24
    3c90:	0007d703          	lhu	a4,0(a5)
    3c94:	00278793          	addi	a5,a5,2
    3c98:	ffe58593          	addi	a1,a1,-2
    3c9c:	00e59123          	sh	a4,2(a1)
    3ca0:	fea798e3          	bne	a5,a0,3c90 <emovo.constprop.0+0x34>
    3ca4:	00008067          	ret
    3ca8:	00650793          	addi	a5,a0,6
    3cac:	01a50513          	addi	a0,a0,26
    3cb0:	0007d703          	lhu	a4,0(a5)
    3cb4:	00278793          	addi	a5,a5,2
    3cb8:	02071a63          	bnez	a4,3cec <emovo.constprop.0+0x90>
    3cbc:	fea79ae3          	bne	a5,a0,3cb0 <emovo.constprop.0+0x54>
    3cc0:	01258713          	addi	a4,a1,18
    3cc4:	00058793          	mv	a5,a1
    3cc8:	00278793          	addi	a5,a5,2
    3ccc:	fe079f23          	sh	zero,-2(a5)
    3cd0:	fef71ce3          	bne	a4,a5,3cc8 <emovo.constprop.0+0x6c>
    3cd4:	0125d783          	lhu	a5,18(a1)
    3cd8:	00008737          	lui	a4,0x8
    3cdc:	fff70713          	addi	a4,a4,-1 # 7fff <__mdiff+0xfb>
    3ce0:	00e7e7b3          	or	a5,a5,a4
    3ce4:	00f59923          	sh	a5,18(a1)
    3ce8:	00008067          	ret
    3cec:	01058713          	addi	a4,a1,16
    3cf0:	00058793          	mv	a5,a1
    3cf4:	00278793          	addi	a5,a5,2
    3cf8:	fe079f23          	sh	zero,-2(a5)
    3cfc:	fef71ce3          	bne	a4,a5,3cf4 <emovo.constprop.0+0x98>
    3d00:	ffffc7b7          	lui	a5,0xffffc
    3d04:	00f59823          	sh	a5,16(a1)
    3d08:	ffff87b7          	lui	a5,0xffff8
    3d0c:	fff7c793          	not	a5,a5
    3d10:	00f59923          	sh	a5,18(a1)
    3d14:	00008067          	ret

00003d18 <enormlz>:
    3d18:	00455783          	lhu	a5,4(a0)
    3d1c:	ff010113          	addi	sp,sp,-16
    3d20:	00912223          	sw	s1,4(sp)
    3d24:	00112623          	sw	ra,12(sp)
    3d28:	00812423          	sw	s0,8(sp)
    3d2c:	01212023          	sw	s2,0(sp)
    3d30:	00050493          	mv	s1,a0
    3d34:	0c079c63          	bnez	a5,3e0c <enormlz+0xf4>
    3d38:	00655703          	lhu	a4,6(a0)
    3d3c:	00000413          	li	s0,0
    3d40:	01071793          	slli	a5,a4,0x10
    3d44:	4107d793          	srai	a5,a5,0x10
    3d48:	0a07c463          	bltz	a5,3df0 <enormlz+0xd8>
    3d4c:	01a50693          	addi	a3,a0,26
    3d50:	0a000613          	li	a2,160
    3d54:	02071863          	bnez	a4,3d84 <enormlz+0x6c>
    3d58:	00648793          	addi	a5,s1,6
    3d5c:	0080006f          	j	3d64 <enormlz+0x4c>
    3d60:	0007d703          	lhu	a4,0(a5) # ffff8000 <_stack+0xfffb8000>
    3d64:	00278793          	addi	a5,a5,2
    3d68:	fee79e23          	sh	a4,-4(a5)
    3d6c:	fed79ae3          	bne	a5,a3,3d60 <enormlz+0x48>
    3d70:	00049c23          	sh	zero,24(s1)
    3d74:	01040413          	addi	s0,s0,16
    3d78:	06c40c63          	beq	s0,a2,3df0 <enormlz+0xd8>
    3d7c:	0064d703          	lhu	a4,6(s1)
    3d80:	fc070ce3          	beqz	a4,3d58 <enormlz+0x40>
    3d84:	f0077793          	andi	a5,a4,-256
    3d88:	04079063          	bnez	a5,3dc8 <enormlz+0xb0>
    3d8c:	01848513          	addi	a0,s1,24
    3d90:	00248593          	addi	a1,s1,2
    3d94:	00000793          	li	a5,0
    3d98:	00050713          	mv	a4,a0
    3d9c:	00075683          	lhu	a3,0(a4)
    3da0:	ffe70713          	addi	a4,a4,-2
    3da4:	00869613          	slli	a2,a3,0x8
    3da8:	00c7e7b3          	or	a5,a5,a2
    3dac:	00f71123          	sh	a5,2(a4)
    3db0:	0086d793          	srli	a5,a3,0x8
    3db4:	fee594e3          	bne	a1,a4,3d9c <enormlz+0x84>
    3db8:	0064d703          	lhu	a4,6(s1)
    3dbc:	00840413          	addi	s0,s0,8
    3dc0:	f0077793          	andi	a5,a4,-256
    3dc4:	fc0788e3          	beqz	a5,3d94 <enormlz+0x7c>
    3dc8:	0a000913          	li	s2,160
    3dcc:	0140006f          	j	3de0 <enormlz+0xc8>
    3dd0:	00140413          	addi	s0,s0,1
    3dd4:	d81ff0ef          	jal	ra,3b54 <eshup1>
    3dd8:	00894c63          	blt	s2,s0,3df0 <enormlz+0xd8>
    3ddc:	0064d703          	lhu	a4,6(s1)
    3de0:	01071713          	slli	a4,a4,0x10
    3de4:	41075713          	srai	a4,a4,0x10
    3de8:	00048513          	mv	a0,s1
    3dec:	fe0752e3          	bgez	a4,3dd0 <enormlz+0xb8>
    3df0:	00c12083          	lw	ra,12(sp)
    3df4:	00040513          	mv	a0,s0
    3df8:	00812403          	lw	s0,8(sp)
    3dfc:	00412483          	lw	s1,4(sp)
    3e00:	00012903          	lw	s2,0(sp)
    3e04:	01010113          	addi	sp,sp,16
    3e08:	00008067          	ret
    3e0c:	f007f713          	andi	a4,a5,-256
    3e10:	00000413          	li	s0,0
    3e14:	04071063          	bnez	a4,3e54 <enormlz+0x13c>
    3e18:	f6f00913          	li	s2,-145
    3e1c:	0140006f          	j	3e30 <enormlz+0x118>
    3e20:	fff40413          	addi	s0,s0,-1
    3e24:	cc9ff0ef          	jal	ra,3aec <eshdn1>
    3e28:	fd2404e3          	beq	s0,s2,3df0 <enormlz+0xd8>
    3e2c:	0044d783          	lhu	a5,4(s1)
    3e30:	00048513          	mv	a0,s1
    3e34:	fe0796e3          	bnez	a5,3e20 <enormlz+0x108>
    3e38:	00c12083          	lw	ra,12(sp)
    3e3c:	00040513          	mv	a0,s0
    3e40:	00812403          	lw	s0,8(sp)
    3e44:	00412483          	lw	s1,4(sp)
    3e48:	00012903          	lw	s2,0(sp)
    3e4c:	01010113          	addi	sp,sp,16
    3e50:	00008067          	ret
    3e54:	00450693          	addi	a3,a0,4
    3e58:	01a50593          	addi	a1,a0,26
    3e5c:	00000713          	li	a4,0
    3e60:	0080006f          	j	3e68 <enormlz+0x150>
    3e64:	0006d783          	lhu	a5,0(a3)
    3e68:	0087d613          	srli	a2,a5,0x8
    3e6c:	00c76733          	or	a4,a4,a2
    3e70:	00879793          	slli	a5,a5,0x8
    3e74:	00e69023          	sh	a4,0(a3)
    3e78:	01079713          	slli	a4,a5,0x10
    3e7c:	00268693          	addi	a3,a3,2
    3e80:	01075713          	srli	a4,a4,0x10
    3e84:	fed590e3          	bne	a1,a3,3e64 <enormlz+0x14c>
    3e88:	0044d783          	lhu	a5,4(s1)
    3e8c:	ff800413          	li	s0,-8
    3e90:	f89ff06f          	j	3e18 <enormlz+0x100>

00003e94 <eshift.part.0>:
    3e94:	fe010113          	addi	sp,sp,-32
    3e98:	00812c23          	sw	s0,24(sp)
    3e9c:	00912a23          	sw	s1,20(sp)
    3ea0:	00112e23          	sw	ra,28(sp)
    3ea4:	01212823          	sw	s2,16(sp)
    3ea8:	01312623          	sw	s3,12(sp)
    3eac:	00058493          	mv	s1,a1
    3eb0:	00050413          	mv	s0,a0
    3eb4:	0a05c463          	bltz	a1,3f5c <eshift.part.0+0xc8>
    3eb8:	00f00793          	li	a5,15
    3ebc:	00058613          	mv	a2,a1
    3ec0:	00450513          	addi	a0,a0,4
    3ec4:	01840693          	addi	a3,s0,24
    3ec8:	00f00593          	li	a1,15
    3ecc:	0297d463          	bge	a5,s1,3ef4 <eshift.part.0+0x60>
    3ed0:	00050793          	mv	a5,a0
    3ed4:	0027d703          	lhu	a4,2(a5)
    3ed8:	00278793          	addi	a5,a5,2
    3edc:	fee79f23          	sh	a4,-2(a5)
    3ee0:	fef69ae3          	bne	a3,a5,3ed4 <eshift.part.0+0x40>
    3ee4:	00041c23          	sh	zero,24(s0)
    3ee8:	ff060613          	addi	a2,a2,-16
    3eec:	fec5c2e3          	blt	a1,a2,3ed0 <eshift.part.0+0x3c>
    3ef0:	00f4f493          	andi	s1,s1,15
    3ef4:	00700793          	li	a5,7
    3ef8:	0297d863          	bge	a5,s1,3f28 <eshift.part.0+0x94>
    3efc:	01840713          	addi	a4,s0,24
    3f00:	00240593          	addi	a1,s0,2
    3f04:	00000793          	li	a5,0
    3f08:	00075683          	lhu	a3,0(a4)
    3f0c:	ffe70713          	addi	a4,a4,-2
    3f10:	00869613          	slli	a2,a3,0x8
    3f14:	00c7e7b3          	or	a5,a5,a2
    3f18:	00f71123          	sh	a5,2(a4)
    3f1c:	0086d793          	srli	a5,a3,0x8
    3f20:	fee594e3          	bne	a1,a4,3f08 <eshift.part.0+0x74>
    3f24:	ff848493          	addi	s1,s1,-8
    3f28:	00048a63          	beqz	s1,3f3c <eshift.part.0+0xa8>
    3f2c:	fff48493          	addi	s1,s1,-1
    3f30:	00040513          	mv	a0,s0
    3f34:	c21ff0ef          	jal	ra,3b54 <eshup1>
    3f38:	fe049ae3          	bnez	s1,3f2c <eshift.part.0+0x98>
    3f3c:	00000513          	li	a0,0
    3f40:	01c12083          	lw	ra,28(sp)
    3f44:	01812403          	lw	s0,24(sp)
    3f48:	01412483          	lw	s1,20(sp)
    3f4c:	01012903          	lw	s2,16(sp)
    3f50:	00c12983          	lw	s3,12(sp)
    3f54:	02010113          	addi	sp,sp,32
    3f58:	00008067          	ret
    3f5c:	ff100793          	li	a5,-15
    3f60:	40b00933          	neg	s2,a1
    3f64:	12f5de63          	bge	a1,a5,40a0 <eshift.part.0+0x20c>
    3f68:	01850593          	addi	a1,a0,24
    3f6c:	00000993          	li	s3,0
    3f70:	00450693          	addi	a3,a0,4
    3f74:	00f00613          	li	a2,15
    3f78:	01845703          	lhu	a4,24(s0)
    3f7c:	00058793          	mv	a5,a1
    3f80:	00e9e9b3          	or	s3,s3,a4
    3f84:	ffe7d703          	lhu	a4,-2(a5)
    3f88:	ffe78793          	addi	a5,a5,-2
    3f8c:	00e79123          	sh	a4,2(a5)
    3f90:	fed79ae3          	bne	a5,a3,3f84 <eshift.part.0+0xf0>
    3f94:	00041223          	sh	zero,4(s0)
    3f98:	ff090913          	addi	s2,s2,-16
    3f9c:	fd264ee3          	blt	a2,s2,3f78 <eshift.part.0+0xe4>
    3fa0:	ff000913          	li	s2,-16
    3fa4:	ff100713          	li	a4,-15
    3fa8:	40990933          	sub	s2,s2,s1
    3fac:	00000793          	li	a5,0
    3fb0:	0ae4c663          	blt	s1,a4,405c <eshift.part.0+0x1c8>
    3fb4:	00f90933          	add	s2,s2,a5
    3fb8:	00700793          	li	a5,7
    3fbc:	0527ca63          	blt	a5,s2,4010 <eshift.part.0+0x17c>
    3fc0:	0c090263          	beqz	s2,4084 <eshift.part.0+0x1f0>
    3fc4:	01845783          	lhu	a5,24(s0)
    3fc8:	fff90913          	addi	s2,s2,-1
    3fcc:	00040513          	mv	a0,s0
    3fd0:	0017f793          	andi	a5,a5,1
    3fd4:	0137e9b3          	or	s3,a5,s3
    3fd8:	b15ff0ef          	jal	ra,3aec <eshdn1>
    3fdc:	fe0914e3          	bnez	s2,3fc4 <eshift.part.0+0x130>
    3fe0:	01099793          	slli	a5,s3,0x10
    3fe4:	4107d793          	srai	a5,a5,0x10
    3fe8:	08079663          	bnez	a5,4074 <eshift.part.0+0x1e0>
    3fec:	01099513          	slli	a0,s3,0x10
    3ff0:	01055513          	srli	a0,a0,0x10
    3ff4:	01c12083          	lw	ra,28(sp)
    3ff8:	01812403          	lw	s0,24(sp)
    3ffc:	01412483          	lw	s1,20(sp)
    4000:	01012903          	lw	s2,16(sp)
    4004:	00c12983          	lw	s3,12(sp)
    4008:	02010113          	addi	sp,sp,32
    400c:	00008067          	ret
    4010:	01099993          	slli	s3,s3,0x10
    4014:	4109d993          	srai	s3,s3,0x10
    4018:	01844783          	lbu	a5,24(s0)
    401c:	01a40593          	addi	a1,s0,26
    4020:	00f9e9b3          	or	s3,s3,a5
    4024:	01099993          	slli	s3,s3,0x10
    4028:	0109d993          	srli	s3,s3,0x10
    402c:	00000793          	li	a5,0
    4030:	0006d703          	lhu	a4,0(a3)
    4034:	00268693          	addi	a3,a3,2
    4038:	00875613          	srli	a2,a4,0x8
    403c:	00c7e7b3          	or	a5,a5,a2
    4040:	00871713          	slli	a4,a4,0x8
    4044:	fef69f23          	sh	a5,-2(a3)
    4048:	01071793          	slli	a5,a4,0x10
    404c:	0107d793          	srli	a5,a5,0x10
    4050:	fed590e3          	bne	a1,a3,4030 <eshift.part.0+0x19c>
    4054:	ff890913          	addi	s2,s2,-8
    4058:	f69ff06f          	j	3fc0 <eshift.part.0+0x12c>
    405c:	ff097793          	andi	a5,s2,-16
    4060:	40f007b3          	neg	a5,a5
    4064:	00f90933          	add	s2,s2,a5
    4068:	00700793          	li	a5,7
    406c:	f527dae3          	bge	a5,s2,3fc0 <eshift.part.0+0x12c>
    4070:	fa1ff06f          	j	4010 <eshift.part.0+0x17c>
    4074:	00100993          	li	s3,1
    4078:	01099513          	slli	a0,s3,0x10
    407c:	01055513          	srli	a0,a0,0x10
    4080:	f75ff06f          	j	3ff4 <eshift.part.0+0x160>
    4084:	00098513          	mv	a0,s3
    4088:	00099863          	bnez	s3,4098 <eshift.part.0+0x204>
    408c:	01051513          	slli	a0,a0,0x10
    4090:	01055513          	srli	a0,a0,0x10
    4094:	eadff06f          	j	3f40 <eshift.part.0+0xac>
    4098:	00100513          	li	a0,1
    409c:	ff1ff06f          	j	408c <eshift.part.0+0x1f8>
    40a0:	ff900793          	li	a5,-7
    40a4:	00000993          	li	s3,0
    40a8:	00450693          	addi	a3,a0,4
    40ac:	f6f5c6e3          	blt	a1,a5,4018 <eshift.part.0+0x184>
    40b0:	f15ff06f          	j	3fc4 <eshift.part.0+0x130>

000040b4 <emovi>:
    40b4:	01255783          	lhu	a5,18(a0)
    40b8:	00008637          	lui	a2,0x8
    40bc:	fff60613          	addi	a2,a2,-1 # 7fff <__mdiff+0xfb>
    40c0:	00f7d793          	srli	a5,a5,0xf
    40c4:	40f007b3          	neg	a5,a5
    40c8:	00f59023          	sh	a5,0(a1)
    40cc:	01255683          	lhu	a3,18(a0)
    40d0:	01050793          	addi	a5,a0,16
    40d4:	00458713          	addi	a4,a1,4
    40d8:	00d676b3          	and	a3,a2,a3
    40dc:	00d59123          	sh	a3,2(a1)
    40e0:	02c68663          	beq	a3,a2,410c <emovi+0x58>
    40e4:	00658713          	addi	a4,a1,6
    40e8:	00059223          	sh	zero,4(a1)
    40ec:	ffe50513          	addi	a0,a0,-2
    40f0:	0007d683          	lhu	a3,0(a5)
    40f4:	ffe78793          	addi	a5,a5,-2
    40f8:	00270713          	addi	a4,a4,2
    40fc:	fed71f23          	sh	a3,-2(a4)
    4100:	fef518e3          	bne	a0,a5,40f0 <emovi+0x3c>
    4104:	00059c23          	sh	zero,24(a1)
    4108:	00008067          	ret
    410c:	01255603          	lhu	a2,18(a0)
    4110:	00c6f633          	and	a2,a3,a2
    4114:	00d61e63          	bne	a2,a3,4130 <emovi+0x7c>
    4118:	01250813          	addi	a6,a0,18
    411c:	00050693          	mv	a3,a0
    4120:	0006d603          	lhu	a2,0(a3)
    4124:	00268693          	addi	a3,a3,2
    4128:	00061e63          	bnez	a2,4144 <emovi+0x90>
    412c:	ff069ae3          	bne	a3,a6,4120 <emovi+0x6c>
    4130:	01a58593          	addi	a1,a1,26
    4134:	00270713          	addi	a4,a4,2
    4138:	fe071f23          	sh	zero,-2(a4)
    413c:	fee59ce3          	bne	a1,a4,4134 <emovi+0x80>
    4140:	00008067          	ret
    4144:	00658713          	addi	a4,a1,6
    4148:	00059223          	sh	zero,4(a1)
    414c:	ffc50513          	addi	a0,a0,-4
    4150:	0007d683          	lhu	a3,0(a5)
    4154:	ffe78793          	addi	a5,a5,-2
    4158:	00270713          	addi	a4,a4,2
    415c:	fed71f23          	sh	a3,-2(a4)
    4160:	fea798e3          	bne	a5,a0,4150 <emovi+0x9c>
    4164:	00008067          	ret

00004168 <ecmp>:
    4168:	01255783          	lhu	a5,18(a0)
    416c:	fb010113          	addi	sp,sp,-80
    4170:	04812423          	sw	s0,72(sp)
    4174:	fff7c793          	not	a5,a5
    4178:	04112623          	sw	ra,76(sp)
    417c:	01179713          	slli	a4,a5,0x11
    4180:	00058413          	mv	s0,a1
    4184:	00071e63          	bnez	a4,41a0 <ecmp+0x38>
    4188:	01250693          	addi	a3,a0,18
    418c:	00050793          	mv	a5,a0
    4190:	0007d703          	lhu	a4,0(a5)
    4194:	00278793          	addi	a5,a5,2
    4198:	08071c63          	bnez	a4,4230 <ecmp+0xc8>
    419c:	fed79ae3          	bne	a5,a3,4190 <ecmp+0x28>
    41a0:	01245783          	lhu	a5,18(s0)
    41a4:	fff7c793          	not	a5,a5
    41a8:	01179713          	slli	a4,a5,0x11
    41ac:	06070063          	beqz	a4,420c <ecmp+0xa4>
    41b0:	00810593          	addi	a1,sp,8
    41b4:	f01ff0ef          	jal	ra,40b4 <emovi>
    41b8:	02410593          	addi	a1,sp,36
    41bc:	00040513          	mv	a0,s0
    41c0:	ef5ff0ef          	jal	ra,40b4 <emovi>
    41c4:	00815583          	lhu	a1,8(sp)
    41c8:	02415503          	lhu	a0,36(sp)
    41cc:	06b50c63          	beq	a0,a1,4244 <ecmp+0xdc>
    41d0:	00a10793          	addi	a5,sp,10
    41d4:	02610713          	addi	a4,sp,38
    41d8:	02010613          	addi	a2,sp,32
    41dc:	0007d683          	lhu	a3,0(a5)
    41e0:	00278793          	addi	a5,a5,2
    41e4:	0a069863          	bnez	a3,4294 <ecmp+0x12c>
    41e8:	00075683          	lhu	a3,0(a4)
    41ec:	00270713          	addi	a4,a4,2
    41f0:	0a069263          	bnez	a3,4294 <ecmp+0x12c>
    41f4:	fef614e3          	bne	a2,a5,41dc <ecmp+0x74>
    41f8:	00000513          	li	a0,0
    41fc:	04c12083          	lw	ra,76(sp)
    4200:	04812403          	lw	s0,72(sp)
    4204:	05010113          	addi	sp,sp,80
    4208:	00008067          	ret
    420c:	00040793          	mv	a5,s0
    4210:	0007d703          	lhu	a4,0(a5)
    4214:	01240693          	addi	a3,s0,18
    4218:	00278793          	addi	a5,a5,2
    421c:	00071a63          	bnez	a4,4230 <ecmp+0xc8>
    4220:	f8d788e3          	beq	a5,a3,41b0 <ecmp+0x48>
    4224:	0007d703          	lhu	a4,0(a5)
    4228:	00278793          	addi	a5,a5,2
    422c:	fe070ae3          	beqz	a4,4220 <ecmp+0xb8>
    4230:	04c12083          	lw	ra,76(sp)
    4234:	04812403          	lw	s0,72(sp)
    4238:	ffe00513          	li	a0,-2
    423c:	05010113          	addi	sp,sp,80
    4240:	00008067          	ret
    4244:	00a15603          	lhu	a2,10(sp)
    4248:	02615683          	lhu	a3,38(sp)
    424c:	00153513          	seqz	a0,a0
    4250:	00a10713          	addi	a4,sp,10
    4254:	02610793          	addi	a5,sp,38
    4258:	00151513          	slli	a0,a0,0x1
    425c:	fff50513          	addi	a0,a0,-1
    4260:	03c10593          	addi	a1,sp,60
    4264:	00278793          	addi	a5,a5,2
    4268:	00270713          	addi	a4,a4,2
    426c:	00d61e63          	bne	a2,a3,4288 <ecmp+0x120>
    4270:	f8b784e3          	beq	a5,a1,41f8 <ecmp+0x90>
    4274:	00075603          	lhu	a2,0(a4)
    4278:	0007d683          	lhu	a3,0(a5)
    427c:	00270713          	addi	a4,a4,2
    4280:	00278793          	addi	a5,a5,2
    4284:	fed606e3          	beq	a2,a3,4270 <ecmp+0x108>
    4288:	f6c6eae3          	bltu	a3,a2,41fc <ecmp+0x94>
    428c:	40a00533          	neg	a0,a0
    4290:	f6dff06f          	j	41fc <ecmp+0x94>
    4294:	00100513          	li	a0,1
    4298:	f60582e3          	beqz	a1,41fc <ecmp+0x94>
    429c:	fff00513          	li	a0,-1
    42a0:	f5dff06f          	j	41fc <ecmp+0x94>

000042a4 <emdnorm>:
    42a4:	fe010113          	addi	sp,sp,-32
    42a8:	00812c23          	sw	s0,24(sp)
    42ac:	00912a23          	sw	s1,20(sp)
    42b0:	01212823          	sw	s2,16(sp)
    42b4:	01312623          	sw	s3,12(sp)
    42b8:	01412423          	sw	s4,8(sp)
    42bc:	01512223          	sw	s5,4(sp)
    42c0:	00068913          	mv	s2,a3
    42c4:	00078493          	mv	s1,a5
    42c8:	00112e23          	sw	ra,28(sp)
    42cc:	00050413          	mv	s0,a0
    42d0:	00058993          	mv	s3,a1
    42d4:	00060a13          	mv	s4,a2
    42d8:	00070a93          	mv	s5,a4
    42dc:	a3dff0ef          	jal	ra,3d18 <enormlz>
    42e0:	09000793          	li	a5,144
    42e4:	40a90933          	sub	s2,s2,a0
    42e8:	18a7dc63          	bge	a5,a0,4480 <emdnorm+0x1dc>
    42ec:	000087b7          	lui	a5,0x8
    42f0:	ffe78793          	addi	a5,a5,-2 # 7ffe <__mdiff+0xfa>
    42f4:	2127da63          	bge	a5,s2,4508 <emdnorm+0x264>
    42f8:	1e0a8463          	beqz	s5,44e0 <emdnorm+0x23c>
    42fc:	0044a503          	lw	a0,4(s1)
    4300:	0004a783          	lw	a5,0(s1)
    4304:	06f50a63          	beq	a0,a5,4378 <emdnorm+0xd4>
    4308:	01a48713          	addi	a4,s1,26
    430c:	03448793          	addi	a5,s1,52
    4310:	00270713          	addi	a4,a4,2
    4314:	fe071f23          	sh	zero,-2(a4)
    4318:	fef71ce3          	bne	a4,a5,4310 <emdnorm+0x6c>
    431c:	03800793          	li	a5,56
    4320:	36f50063          	beq	a0,a5,4680 <emdnorm+0x3dc>
    4324:	18a7d063          	bge	a5,a0,44a4 <emdnorm+0x200>
    4328:	04000793          	li	a5,64
    432c:	2ef50e63          	beq	a0,a5,4628 <emdnorm+0x384>
    4330:	07100793          	li	a5,113
    4334:	32f51063          	bne	a0,a5,4654 <emdnorm+0x3b0>
    4338:	400087b7          	lui	a5,0x40008
    433c:	fff78793          	addi	a5,a5,-1 # 40007fff <_stack+0x3ffc7fff>
    4340:	00a00713          	li	a4,10
    4344:	00f4aa23          	sw	a5,20(s1)
    4348:	ffff87b7          	lui	a5,0xffff8
    434c:	00e4a423          	sw	a4,8(s1)
    4350:	00f49c23          	sh	a5,24(s1)
    4354:	00e4a623          	sw	a4,12(s1)
    4358:	00a00793          	li	a5,10
    435c:	00008737          	lui	a4,0x8
    4360:	00878793          	addi	a5,a5,8 # ffff8008 <_stack+0xfffb8008>
    4364:	00179793          	slli	a5,a5,0x1
    4368:	00f487b3          	add	a5,s1,a5
    436c:	00e79523          	sh	a4,10(a5)
    4370:	00a4a023          	sw	a0,0(s1)
    4374:	1d205863          	blez	s2,4544 <emdnorm+0x2a0>
    4378:	0084a583          	lw	a1,8(s1)
    437c:	0144d783          	lhu	a5,20(s1)
    4380:	08f00813          	li	a6,143
    4384:	00159613          	slli	a2,a1,0x1
    4388:	00c40633          	add	a2,s0,a2
    438c:	00065703          	lhu	a4,0(a2)
    4390:	00f776b3          	and	a3,a4,a5
    4394:	02a84a63          	blt	a6,a0,43c8 <emdnorm+0x124>
    4398:	00b00813          	li	a6,11
    439c:	02b84663          	blt	a6,a1,43c8 <emdnorm+0x124>
    43a0:	00060793          	mv	a5,a2
    43a4:	01840593          	addi	a1,s0,24
    43a8:	0027d703          	lhu	a4,2(a5)
    43ac:	00070463          	beqz	a4,43b4 <emdnorm+0x110>
    43b0:	0016e693          	ori	a3,a3,1
    43b4:	00079123          	sh	zero,2(a5)
    43b8:	00278793          	addi	a5,a5,2
    43bc:	fef596e3          	bne	a1,a5,43a8 <emdnorm+0x104>
    43c0:	00065703          	lhu	a4,0(a2)
    43c4:	0144d783          	lhu	a5,20(s1)
    43c8:	fff7c793          	not	a5,a5
    43cc:	00e7f7b3          	and	a5,a5,a4
    43d0:	00f61023          	sh	a5,0(a2)
    43d4:	0164d783          	lhu	a5,22(s1)
    43d8:	00d7f733          	and	a4,a5,a3
    43dc:	06070063          	beqz	a4,443c <emdnorm+0x198>
    43e0:	02d79263          	bne	a5,a3,4404 <emdnorm+0x160>
    43e4:	20099863          	bnez	s3,45f4 <emdnorm+0x350>
    43e8:	00c4a783          	lw	a5,12(s1)
    43ec:	0184d703          	lhu	a4,24(s1)
    43f0:	00179793          	slli	a5,a5,0x1
    43f4:	00f407b3          	add	a5,s0,a5
    43f8:	0007d783          	lhu	a5,0(a5)
    43fc:	00e7f7b3          	and	a5,a5,a4
    4400:	02078e63          	beqz	a5,443c <emdnorm+0x198>
    4404:	03248613          	addi	a2,s1,50
    4408:	01840693          	addi	a3,s0,24
    440c:	01c48493          	addi	s1,s1,28
    4410:	00000713          	li	a4,0
    4414:	00065783          	lhu	a5,0(a2)
    4418:	0006d583          	lhu	a1,0(a3)
    441c:	ffe68693          	addi	a3,a3,-2
    4420:	ffe60613          	addi	a2,a2,-2
    4424:	00b787b3          	add	a5,a5,a1
    4428:	00e787b3          	add	a5,a5,a4
    442c:	0107d713          	srli	a4,a5,0x10
    4430:	00f69123          	sh	a5,2(a3)
    4434:	00177713          	andi	a4,a4,1
    4438:	fc961ee3          	bne	a2,s1,4414 <emdnorm+0x170>
    443c:	17205663          	blez	s2,45a8 <emdnorm+0x304>
    4440:	00445783          	lhu	a5,4(s0)
    4444:	12079e63          	bnez	a5,4580 <emdnorm+0x2dc>
    4448:	000087b7          	lui	a5,0x8
    444c:	00041c23          	sh	zero,24(s0)
    4450:	ffe78793          	addi	a5,a5,-2 # 7ffe <__mdiff+0xfa>
    4454:	0927c863          	blt	a5,s2,44e4 <emdnorm+0x240>
    4458:	01241123          	sh	s2,2(s0)
    445c:	01c12083          	lw	ra,28(sp)
    4460:	01812403          	lw	s0,24(sp)
    4464:	01412483          	lw	s1,20(sp)
    4468:	01012903          	lw	s2,16(sp)
    446c:	00c12983          	lw	s3,12(sp)
    4470:	00812a03          	lw	s4,8(sp)
    4474:	00412a83          	lw	s5,4(sp)
    4478:	02010113          	addi	sp,sp,32
    447c:	00008067          	ret
    4480:	0e095463          	bgez	s2,4568 <emdnorm+0x2c4>
    4484:	f7000793          	li	a5,-144
    4488:	08f95c63          	bge	s2,a5,4520 <emdnorm+0x27c>
    448c:	00240793          	addi	a5,s0,2
    4490:	01a40413          	addi	s0,s0,26
    4494:	00278793          	addi	a5,a5,2
    4498:	fe079f23          	sh	zero,-2(a5)
    449c:	fe879ce3          	bne	a5,s0,4494 <emdnorm+0x1f0>
    44a0:	fbdff06f          	j	445c <emdnorm+0x1b8>
    44a4:	01800793          	li	a5,24
    44a8:	14f50a63          	beq	a0,a5,45fc <emdnorm+0x358>
    44ac:	03500793          	li	a5,53
    44b0:	1af51263          	bne	a0,a5,4654 <emdnorm+0x3b0>
    44b4:	00001737          	lui	a4,0x1
    44b8:	040007b7          	lui	a5,0x4000
    44bc:	00600693          	li	a3,6
    44c0:	7ff78793          	addi	a5,a5,2047 # 40007ff <_stack+0x3fc07ff>
    44c4:	80070713          	addi	a4,a4,-2048 # 800 <_vfprintf_r+0x654>
    44c8:	00f4aa23          	sw	a5,20(s1)
    44cc:	00d4a423          	sw	a3,8(s1)
    44d0:	00e49c23          	sh	a4,24(s1)
    44d4:	00d4a623          	sw	a3,12(s1)
    44d8:	00600793          	li	a5,6
    44dc:	e85ff06f          	j	4360 <emdnorm+0xbc>
    44e0:	00041c23          	sh	zero,24(s0)
    44e4:	ffff87b7          	lui	a5,0xffff8
    44e8:	fff7c793          	not	a5,a5
    44ec:	00f41123          	sh	a5,2(s0)
    44f0:	00440793          	addi	a5,s0,4
    44f4:	01840413          	addi	s0,s0,24
    44f8:	00079023          	sh	zero,0(a5) # ffff8000 <_stack+0xfffb8000>
    44fc:	00278793          	addi	a5,a5,2
    4500:	fef41ce3          	bne	s0,a5,44f8 <emdnorm+0x254>
    4504:	f59ff06f          	j	445c <emdnorm+0x1b8>
    4508:	00240793          	addi	a5,s0,2
    450c:	01a40413          	addi	s0,s0,26
    4510:	00278793          	addi	a5,a5,2
    4514:	fe079f23          	sh	zero,-2(a5)
    4518:	fe879ce3          	bne	a5,s0,4510 <emdnorm+0x26c>
    451c:	f41ff06f          	j	445c <emdnorm+0x1b8>
    4520:	00090593          	mv	a1,s2
    4524:	00040513          	mv	a0,s0
    4528:	96dff0ef          	jal	ra,3e94 <eshift.part.0>
    452c:	00050463          	beqz	a0,4534 <emdnorm+0x290>
    4530:	00100993          	li	s3,1
    4534:	0a0a8a63          	beqz	s5,45e8 <emdnorm+0x344>
    4538:	0044a503          	lw	a0,4(s1)
    453c:	0004a783          	lw	a5,0(s1)
    4540:	dcf514e3          	bne	a0,a5,4308 <emdnorm+0x64>
    4544:	09000793          	li	a5,144
    4548:	08f50263          	beq	a0,a5,45cc <emdnorm+0x328>
    454c:	01845783          	lhu	a5,24(s0)
    4550:	00040513          	mv	a0,s0
    4554:	0017f793          	andi	a5,a5,1
    4558:	00f9e9b3          	or	s3,s3,a5
    455c:	d90ff0ef          	jal	ra,3aec <eshdn1>
    4560:	0044a503          	lw	a0,4(s1)
    4564:	e15ff06f          	j	4378 <emdnorm+0xd4>
    4568:	ee0a80e3          	beqz	s5,4448 <emdnorm+0x1a4>
    456c:	0044a503          	lw	a0,4(s1)
    4570:	0004a783          	lw	a5,0(s1)
    4574:	d8f51ae3          	bne	a0,a5,4308 <emdnorm+0x64>
    4578:	e12040e3          	bgtz	s2,4378 <emdnorm+0xd4>
    457c:	fc9ff06f          	j	4544 <emdnorm+0x2a0>
    4580:	00040513          	mv	a0,s0
    4584:	d68ff0ef          	jal	ra,3aec <eshdn1>
    4588:	000087b7          	lui	a5,0x8
    458c:	00190913          	addi	s2,s2,1
    4590:	00041c23          	sh	zero,24(s0)
    4594:	ffe78793          	addi	a5,a5,-2 # 7ffe <__mdiff+0xfa>
    4598:	f527c6e3          	blt	a5,s2,44e4 <emdnorm+0x240>
    459c:	ea095ee3          	bgez	s2,4458 <emdnorm+0x1b4>
    45a0:	00041123          	sh	zero,2(s0)
    45a4:	eb9ff06f          	j	445c <emdnorm+0x1b8>
    45a8:	09000793          	li	a5,144
    45ac:	00f50663          	beq	a0,a5,45b8 <emdnorm+0x314>
    45b0:	00040513          	mv	a0,s0
    45b4:	da0ff0ef          	jal	ra,3b54 <eshup1>
    45b8:	00445783          	lhu	a5,4(s0)
    45bc:	fc0792e3          	bnez	a5,4580 <emdnorm+0x2dc>
    45c0:	00041c23          	sh	zero,24(s0)
    45c4:	fc094ee3          	bltz	s2,45a0 <emdnorm+0x2fc>
    45c8:	e91ff06f          	j	4458 <emdnorm+0x1b4>
    45cc:	0084a603          	lw	a2,8(s1)
    45d0:	0144d783          	lhu	a5,20(s1)
    45d4:	00161613          	slli	a2,a2,0x1
    45d8:	00c40633          	add	a2,s0,a2
    45dc:	00065703          	lhu	a4,0(a2)
    45e0:	00e7f6b3          	and	a3,a5,a4
    45e4:	de5ff06f          	j	43c8 <emdnorm+0x124>
    45e8:	00041c23          	sh	zero,24(s0)
    45ec:	00041123          	sh	zero,2(s0)
    45f0:	e6dff06f          	j	445c <emdnorm+0x1b8>
    45f4:	e00a08e3          	beqz	s4,4404 <emdnorm+0x160>
    45f8:	e45ff06f          	j	443c <emdnorm+0x198>
    45fc:	008007b7          	lui	a5,0x800
    4600:	0ff78793          	addi	a5,a5,255 # 8000ff <_stack+0x7c00ff>
    4604:	00400713          	li	a4,4
    4608:	00f4aa23          	sw	a5,20(s1)
    460c:	10000793          	li	a5,256
    4610:	00e4a423          	sw	a4,8(s1)
    4614:	00f49c23          	sh	a5,24(s1)
    4618:	00e4a623          	sw	a4,12(s1)
    461c:	00400793          	li	a5,4
    4620:	10000713          	li	a4,256
    4624:	d3dff06f          	j	4360 <emdnorm+0xbc>
    4628:	00700793          	li	a5,7
    462c:	00f4a423          	sw	a5,8(s1)
    4630:	800107b7          	lui	a5,0x80010
    4634:	fff78793          	addi	a5,a5,-1 # 8000ffff <_stack+0x7ffcffff>
    4638:	00f4aa23          	sw	a5,20(s1)
    463c:	00100793          	li	a5,1
    4640:	00f49c23          	sh	a5,24(s1)
    4644:	00600793          	li	a5,6
    4648:	00f4a623          	sw	a5,12(s1)
    464c:	00100713          	li	a4,1
    4650:	d11ff06f          	j	4360 <emdnorm+0xbc>
    4654:	00c00793          	li	a5,12
    4658:	00f4a423          	sw	a5,8(s1)
    465c:	800107b7          	lui	a5,0x80010
    4660:	fff78793          	addi	a5,a5,-1 # 8000ffff <_stack+0x7ffcffff>
    4664:	00f4aa23          	sw	a5,20(s1)
    4668:	00100793          	li	a5,1
    466c:	00f49c23          	sh	a5,24(s1)
    4670:	00b00793          	li	a5,11
    4674:	00f4a623          	sw	a5,12(s1)
    4678:	00100713          	li	a4,1
    467c:	ce5ff06f          	j	4360 <emdnorm+0xbc>
    4680:	008007b7          	lui	a5,0x800
    4684:	0ff78793          	addi	a5,a5,255 # 8000ff <_stack+0x7c00ff>
    4688:	00600713          	li	a4,6
    468c:	00f4aa23          	sw	a5,20(s1)
    4690:	10000793          	li	a5,256
    4694:	00e4a423          	sw	a4,8(s1)
    4698:	00f49c23          	sh	a5,24(s1)
    469c:	00e4a623          	sw	a4,12(s1)
    46a0:	00600793          	li	a5,6
    46a4:	10000713          	li	a4,256
    46a8:	cb9ff06f          	j	4360 <emdnorm+0xbc>

000046ac <eiremain>:
    46ac:	fd010113          	addi	sp,sp,-48
    46b0:	03212023          	sw	s2,32(sp)
    46b4:	01312e23          	sw	s3,28(sp)
    46b8:	00058913          	mv	s2,a1
    46bc:	00255983          	lhu	s3,2(a0)
    46c0:	02112623          	sw	ra,44(sp)
    46c4:	02812423          	sw	s0,40(sp)
    46c8:	02912223          	sw	s1,36(sp)
    46cc:	01412c23          	sw	s4,24(sp)
    46d0:	00060493          	mv	s1,a2
    46d4:	01712623          	sw	s7,12(sp)
    46d8:	01512a23          	sw	s5,20(sp)
    46dc:	01612823          	sw	s6,16(sp)
    46e0:	01812423          	sw	s8,8(sp)
    46e4:	01912223          	sw	s9,4(sp)
    46e8:	01a12023          	sw	s10,0(sp)
    46ec:	00050b93          	mv	s7,a0
    46f0:	e28ff0ef          	jal	ra,3d18 <enormlz>
    46f4:	00295403          	lhu	s0,2(s2)
    46f8:	00050793          	mv	a5,a0
    46fc:	00090513          	mv	a0,s2
    4700:	40f989b3          	sub	s3,s3,a5
    4704:	03448a13          	addi	s4,s1,52
    4708:	e10ff0ef          	jal	ra,3d18 <enormlz>
    470c:	40a40433          	sub	s0,s0,a0
    4710:	04e48713          	addi	a4,s1,78
    4714:	000a0793          	mv	a5,s4
    4718:	00278793          	addi	a5,a5,2
    471c:	fe079f23          	sh	zero,-2(a5)
    4720:	fee79ce3          	bne	a5,a4,4718 <eiremain+0x6c>
    4724:	09344863          	blt	s0,s3,47b4 <eiremain+0x108>
    4728:	004b8b13          	addi	s6,s7,4
    472c:	00490a93          	addi	s5,s2,4
    4730:	01ab8c13          	addi	s8,s7,26
    4734:	00290d13          	addi	s10,s2,2
    4738:	000a8713          	mv	a4,s5
    473c:	000b0793          	mv	a5,s6
    4740:	0007d603          	lhu	a2,0(a5)
    4744:	00075683          	lhu	a3,0(a4)
    4748:	00278793          	addi	a5,a5,2
    474c:	00270713          	addi	a4,a4,2
    4750:	0ad61a63          	bne	a2,a3,4804 <eiremain+0x158>
    4754:	ff8796e3          	bne	a5,s8,4740 <eiremain+0x94>
    4758:	018b8613          	addi	a2,s7,24
    475c:	01890713          	addi	a4,s2,24
    4760:	00000693          	li	a3,0
    4764:	00075783          	lhu	a5,0(a4)
    4768:	00065583          	lhu	a1,0(a2)
    476c:	ffe70713          	addi	a4,a4,-2
    4770:	40d787b3          	sub	a5,a5,a3
    4774:	40b787b3          	sub	a5,a5,a1
    4778:	0107d693          	srli	a3,a5,0x10
    477c:	00f71123          	sh	a5,2(a4)
    4780:	0016f693          	andi	a3,a3,1
    4784:	ffe60613          	addi	a2,a2,-2
    4788:	fced1ee3          	bne	s10,a4,4764 <eiremain+0xb8>
    478c:	00100c93          	li	s9,1
    4790:	000a0513          	mv	a0,s4
    4794:	bc0ff0ef          	jal	ra,3b54 <eshup1>
    4798:	04c4d783          	lhu	a5,76(s1)
    479c:	fff40413          	addi	s0,s0,-1
    47a0:	00090513          	mv	a0,s2
    47a4:	00fce7b3          	or	a5,s9,a5
    47a8:	04f49623          	sh	a5,76(s1)
    47ac:	ba8ff0ef          	jal	ra,3b54 <eshup1>
    47b0:	f93454e3          	bge	s0,s3,4738 <eiremain+0x8c>
    47b4:	00040693          	mv	a3,s0
    47b8:	02812403          	lw	s0,40(sp)
    47bc:	02c12083          	lw	ra,44(sp)
    47c0:	01c12983          	lw	s3,28(sp)
    47c4:	01812a03          	lw	s4,24(sp)
    47c8:	01412a83          	lw	s5,20(sp)
    47cc:	01012b03          	lw	s6,16(sp)
    47d0:	00c12b83          	lw	s7,12(sp)
    47d4:	00812c03          	lw	s8,8(sp)
    47d8:	00412c83          	lw	s9,4(sp)
    47dc:	00012d03          	lw	s10,0(sp)
    47e0:	00048793          	mv	a5,s1
    47e4:	00090513          	mv	a0,s2
    47e8:	02412483          	lw	s1,36(sp)
    47ec:	02012903          	lw	s2,32(sp)
    47f0:	00000713          	li	a4,0
    47f4:	00000613          	li	a2,0
    47f8:	00000593          	li	a1,0
    47fc:	03010113          	addi	sp,sp,48
    4800:	aa5ff06f          	j	42a4 <emdnorm>
    4804:	00000c93          	li	s9,0
    4808:	f8c6e4e3          	bltu	a3,a2,4790 <eiremain+0xe4>
    480c:	f4dff06f          	j	4758 <eiremain+0xac>

00004810 <emul>:
    4810:	f7010113          	addi	sp,sp,-144
    4814:	08912223          	sw	s1,132(sp)
    4818:	00050493          	mv	s1,a0
    481c:	01255503          	lhu	a0,18(a0)
    4820:	00008737          	lui	a4,0x8
    4824:	fff70713          	addi	a4,a4,-1 # 7fff <__mdiff+0xfb>
    4828:	08812423          	sw	s0,136(sp)
    482c:	09212023          	sw	s2,128(sp)
    4830:	07412c23          	sw	s4,120(sp)
    4834:	08112623          	sw	ra,140(sp)
    4838:	07312e23          	sw	s3,124(sp)
    483c:	07512a23          	sw	s5,116(sp)
    4840:	07612823          	sw	s6,112(sp)
    4844:	07712623          	sw	s7,108(sp)
    4848:	07812423          	sw	s8,104(sp)
    484c:	07912223          	sw	s9,100(sp)
    4850:	00a77533          	and	a0,a4,a0
    4854:	00058913          	mv	s2,a1
    4858:	00060413          	mv	s0,a2
    485c:	00068a13          	mv	s4,a3
    4860:	00e51e63          	bne	a0,a4,487c <emul+0x6c>
    4864:	01248993          	addi	s3,s1,18
    4868:	00048713          	mv	a4,s1
    486c:	00075603          	lhu	a2,0(a4)
    4870:	00270713          	addi	a4,a4,2
    4874:	22061e63          	bnez	a2,4ab0 <emul+0x2a0>
    4878:	ff371ae3          	bne	a4,s3,486c <emul+0x5c>
    487c:	01295603          	lhu	a2,18(s2)
    4880:	000087b7          	lui	a5,0x8
    4884:	fff78793          	addi	a5,a5,-1 # 7fff <__mdiff+0xfb>
    4888:	00f675b3          	and	a1,a2,a5
    488c:	12f59463          	bne	a1,a5,49b4 <emul+0x1a4>
    4890:	01290693          	addi	a3,s2,18
    4894:	00090713          	mv	a4,s2
    4898:	00075783          	lhu	a5,0(a4)
    489c:	00270713          	addi	a4,a4,2
    48a0:	22079663          	bnez	a5,4acc <emul+0x2bc>
    48a4:	fee69ae3          	bne	a3,a4,4898 <emul+0x88>
    48a8:	000087b7          	lui	a5,0x8
    48ac:	fff78793          	addi	a5,a5,-1 # 7fff <__mdiff+0xfb>
    48b0:	10f50463          	beq	a0,a5,49b8 <emul+0x1a8>
    48b4:	00090793          	mv	a5,s2
    48b8:	0007d703          	lhu	a4,0(a5)
    48bc:	00278793          	addi	a5,a5,2
    48c0:	1c071863          	bnez	a4,4a90 <emul+0x280>
    48c4:	fef69ae3          	bne	a3,a5,48b8 <emul+0xa8>
    48c8:	0001c597          	auipc	a1,0x1c
    48cc:	cb058593          	addi	a1,a1,-848 # 20578 <ezero>
    48d0:	00048513          	mv	a0,s1
    48d4:	895ff0ef          	jal	ra,4168 <ecmp>
    48d8:	20050863          	beqz	a0,4ae8 <emul+0x2d8>
    48dc:	0124d503          	lhu	a0,18(s1)
    48e0:	01295603          	lhu	a2,18(s2)
    48e4:	000087b7          	lui	a5,0x8
    48e8:	fff78793          	addi	a5,a5,-1 # 7fff <__mdiff+0xfb>
    48ec:	00f57833          	and	a6,a0,a5
    48f0:	00f675b3          	and	a1,a2,a5
    48f4:	1af80a63          	beq	a6,a5,4aa8 <emul+0x298>
    48f8:	000087b7          	lui	a5,0x8
    48fc:	fff78793          	addi	a5,a5,-1 # 7fff <__mdiff+0xfb>
    4900:	14f59063          	bne	a1,a5,4a40 <emul+0x230>
    4904:	01290693          	addi	a3,s2,18
    4908:	00090793          	mv	a5,s2
    490c:	0007d703          	lhu	a4,0(a5)
    4910:	00278793          	addi	a5,a5,2
    4914:	12071663          	bnez	a4,4a40 <emul+0x230>
    4918:	fed79ae3          	bne	a5,a3,490c <emul+0xfc>
    491c:	00008737          	lui	a4,0x8
    4920:	fff70713          	addi	a4,a4,-1 # 7fff <__mdiff+0xfb>
    4924:	00f55893          	srli	a7,a0,0xf
    4928:	00080593          	mv	a1,a6
    492c:	01248993          	addi	s3,s1,18
    4930:	0ee80463          	beq	a6,a4,4a18 <emul+0x208>
    4934:	00095703          	lhu	a4,0(s2)
    4938:	00290913          	addi	s2,s2,2
    493c:	32071863          	bnez	a4,4c6c <emul+0x45c>
    4940:	fed91ae3          	bne	s2,a3,4934 <emul+0x124>
    4944:	00f65793          	srli	a5,a2,0xf
    4948:	411787b3          	sub	a5,a5,a7
    494c:	00f037b3          	snez	a5,a5
    4950:	00f79793          	slli	a5,a5,0xf
    4954:	00f41923          	sh	a5,18(s0)
    4958:	01240713          	addi	a4,s0,18
    495c:	00040793          	mv	a5,s0
    4960:	00278793          	addi	a5,a5,2
    4964:	fe079f23          	sh	zero,-2(a5)
    4968:	fee79ce3          	bne	a5,a4,4960 <emul+0x150>
    496c:	01245783          	lhu	a5,18(s0)
    4970:	00008737          	lui	a4,0x8
    4974:	fff70713          	addi	a4,a4,-1 # 7fff <__mdiff+0xfb>
    4978:	00e7e7b3          	or	a5,a5,a4
    497c:	00f41923          	sh	a5,18(s0)
    4980:	08c12083          	lw	ra,140(sp)
    4984:	08812403          	lw	s0,136(sp)
    4988:	08412483          	lw	s1,132(sp)
    498c:	08012903          	lw	s2,128(sp)
    4990:	07c12983          	lw	s3,124(sp)
    4994:	07812a03          	lw	s4,120(sp)
    4998:	07412a83          	lw	s5,116(sp)
    499c:	07012b03          	lw	s6,112(sp)
    49a0:	06c12b83          	lw	s7,108(sp)
    49a4:	06812c03          	lw	s8,104(sp)
    49a8:	06412c83          	lw	s9,100(sp)
    49ac:	09010113          	addi	sp,sp,144
    49b0:	00008067          	ret
    49b4:	08f51663          	bne	a0,a5,4a40 <emul+0x230>
    49b8:	01248993          	addi	s3,s1,18
    49bc:	00048793          	mv	a5,s1
    49c0:	0007d703          	lhu	a4,0(a5)
    49c4:	00278793          	addi	a5,a5,2
    49c8:	2a071a63          	bnez	a4,4c7c <emul+0x46c>
    49cc:	fef99ae3          	bne	s3,a5,49c0 <emul+0x1b0>
    49d0:	0001c597          	auipc	a1,0x1c
    49d4:	ba858593          	addi	a1,a1,-1112 # 20578 <ezero>
    49d8:	00090513          	mv	a0,s2
    49dc:	f8cff0ef          	jal	ra,4168 <ecmp>
    49e0:	10050463          	beqz	a0,4ae8 <emul+0x2d8>
    49e4:	01295603          	lhu	a2,18(s2)
    49e8:	000087b7          	lui	a5,0x8
    49ec:	fff78793          	addi	a5,a5,-1 # 7fff <__mdiff+0xfb>
    49f0:	00f675b3          	and	a1,a2,a5
    49f4:	12f58063          	beq	a1,a5,4b14 <emul+0x304>
    49f8:	0124d503          	lhu	a0,18(s1)
    49fc:	00f57733          	and	a4,a0,a5
    4a00:	04f71063          	bne	a4,a5,4a40 <emul+0x230>
    4a04:	00048793          	mv	a5,s1
    4a08:	0007d703          	lhu	a4,0(a5)
    4a0c:	00278793          	addi	a5,a5,2
    4a10:	2a071463          	bnez	a4,4cb8 <emul+0x4a8>
    4a14:	fef99ae3          	bne	s3,a5,4a08 <emul+0x1f8>
    4a18:	0004d783          	lhu	a5,0(s1)
    4a1c:	00248493          	addi	s1,s1,2
    4a20:	24079a63          	bnez	a5,4c74 <emul+0x464>
    4a24:	ff349ae3          	bne	s1,s3,4a18 <emul+0x208>
    4a28:	00f55893          	srli	a7,a0,0xf
    4a2c:	00008737          	lui	a4,0x8
    4a30:	fff70713          	addi	a4,a4,-1 # 7fff <__mdiff+0xfb>
    4a34:	f0e598e3          	bne	a1,a4,4944 <emul+0x134>
    4a38:	01290693          	addi	a3,s2,18
    4a3c:	ef9ff06f          	j	4934 <emul+0x124>
    4a40:	00048513          	mv	a0,s1
    4a44:	00c10593          	addi	a1,sp,12
    4a48:	e6cff0ef          	jal	ra,40b4 <emovi>
    4a4c:	02810593          	addi	a1,sp,40
    4a50:	00090513          	mv	a0,s2
    4a54:	e60ff0ef          	jal	ra,40b4 <emovi>
    4a58:	00e15483          	lhu	s1,14(sp)
    4a5c:	02a15983          	lhu	s3,42(sp)
    4a60:	0a049e63          	bnez	s1,4b1c <emul+0x30c>
    4a64:	01010793          	addi	a5,sp,16
    4a68:	02410693          	addi	a3,sp,36
    4a6c:	22d78263          	beq	a5,a3,4c90 <emul+0x480>
    4a70:	0007d703          	lhu	a4,0(a5)
    4a74:	00278793          	addi	a5,a5,2
    4a78:	fe070ae3          	beqz	a4,4a6c <emul+0x25c>
    4a7c:	00c10513          	addi	a0,sp,12
    4a80:	a98ff0ef          	jal	ra,3d18 <enormlz>
    4a84:	02a15703          	lhu	a4,42(sp)
    4a88:	40a004b3          	neg	s1,a0
    4a8c:	0940006f          	j	4b20 <emul+0x310>
    4a90:	0124d503          	lhu	a0,18(s1)
    4a94:	000087b7          	lui	a5,0x8
    4a98:	fff78793          	addi	a5,a5,-1 # 7fff <__mdiff+0xfb>
    4a9c:	00f575b3          	and	a1,a0,a5
    4aa0:	00058813          	mv	a6,a1
    4aa4:	e6f592e3          	bne	a1,a5,4908 <emul+0xf8>
    4aa8:	01248993          	addi	s3,s1,18
    4aac:	f59ff06f          	j	4a04 <emul+0x1f4>
    4ab0:	01448713          	addi	a4,s1,20
    4ab4:	0004d783          	lhu	a5,0(s1)
    4ab8:	00248493          	addi	s1,s1,2
    4abc:	00240413          	addi	s0,s0,2
    4ac0:	fef41f23          	sh	a5,-2(s0)
    4ac4:	fee498e3          	bne	s1,a4,4ab4 <emul+0x2a4>
    4ac8:	eb9ff06f          	j	4980 <emul+0x170>
    4acc:	01440713          	addi	a4,s0,20
    4ad0:	00095783          	lhu	a5,0(s2)
    4ad4:	00240413          	addi	s0,s0,2
    4ad8:	00290913          	addi	s2,s2,2
    4adc:	fef41f23          	sh	a5,-2(s0)
    4ae0:	fee418e3          	bne	s0,a4,4ad0 <emul+0x2c0>
    4ae4:	e9dff06f          	j	4980 <emul+0x170>
    4ae8:	01040713          	addi	a4,s0,16
    4aec:	00040793          	mv	a5,s0
    4af0:	00278793          	addi	a5,a5,2
    4af4:	fe079f23          	sh	zero,-2(a5)
    4af8:	fee79ce3          	bne	a5,a4,4af0 <emul+0x2e0>
    4afc:	ffffc7b7          	lui	a5,0xffffc
    4b00:	00f41823          	sh	a5,16(s0)
    4b04:	ffff87b7          	lui	a5,0xffff8
    4b08:	fff7c793          	not	a5,a5
    4b0c:	00f41923          	sh	a5,18(s0)
    4b10:	e71ff06f          	j	4980 <emul+0x170>
    4b14:	01290693          	addi	a3,s2,18
    4b18:	d9dff06f          	j	48b4 <emul+0xa4>
    4b1c:	00098713          	mv	a4,s3
    4b20:	00098913          	mv	s2,s3
    4b24:	02c10793          	addi	a5,sp,44
    4b28:	04010693          	addi	a3,sp,64
    4b2c:	02071263          	bnez	a4,4b50 <emul+0x340>
    4b30:	16f68a63          	beq	a3,a5,4ca4 <emul+0x494>
    4b34:	0007d703          	lhu	a4,0(a5) # ffff8000 <_stack+0xfffb8000>
    4b38:	00278793          	addi	a5,a5,2
    4b3c:	fe070ae3          	beqz	a4,4b30 <emul+0x320>
    4b40:	02810513          	addi	a0,sp,40
    4b44:	9d4ff0ef          	jal	ra,3d18 <enormlz>
    4b48:	02a15703          	lhu	a4,42(sp)
    4b4c:	40a98933          	sub	s2,s3,a0
    4b50:	02815783          	lhu	a5,40(sp)
    4b54:	038a0993          	addi	s3,s4,56
    4b58:	02ea1b23          	sh	a4,54(s4)
    4b5c:	02fa1a23          	sh	a5,52(s4)
    4b60:	04ea0713          	addi	a4,s4,78
    4b64:	00098793          	mv	a5,s3
    4b68:	00079023          	sh	zero,0(a5)
    4b6c:	00278793          	addi	a5,a5,2
    4b70:	fef71ce3          	bne	a4,a5,4b68 <emul+0x358>
    4b74:	04ca0c13          	addi	s8,s4,76
    4b78:	00000b93          	li	s7,0
    4b7c:	02410a93          	addi	s5,sp,36
    4b80:	01010c93          	addi	s9,sp,16
    4b84:	04610b13          	addi	s6,sp,70
    4b88:	000ad503          	lhu	a0,0(s5)
    4b8c:	ffea8a93          	addi	s5,s5,-2
    4b90:	08051c63          	bnez	a0,4c28 <emul+0x418>
    4b94:	04ca5783          	lhu	a5,76(s4)
    4b98:	000c0713          	mv	a4,s8
    4b9c:	00fbebb3          	or	s7,s7,a5
    4ba0:	ffe75603          	lhu	a2,-2(a4)
    4ba4:	ffe70713          	addi	a4,a4,-2
    4ba8:	00c71123          	sh	a2,2(a4)
    4bac:	fee99ae3          	bne	s3,a4,4ba0 <emul+0x390>
    4bb0:	020a1c23          	sh	zero,56(s4)
    4bb4:	fd9a9ae3          	bne	s5,s9,4b88 <emul+0x378>
    4bb8:	034a0713          	addi	a4,s4,52
    4bbc:	02810793          	addi	a5,sp,40
    4bc0:	04210613          	addi	a2,sp,66
    4bc4:	00075683          	lhu	a3,0(a4)
    4bc8:	00278793          	addi	a5,a5,2
    4bcc:	00270713          	addi	a4,a4,2
    4bd0:	fed79f23          	sh	a3,-2(a5)
    4bd4:	fef618e3          	bne	a2,a5,4bc4 <emul+0x3b4>
    4bd8:	ffffc6b7          	lui	a3,0xffffc
    4bdc:	012484b3          	add	s1,s1,s2
    4be0:	00268693          	addi	a3,a3,2 # ffffc002 <_stack+0xfffbc002>
    4be4:	000b8593          	mv	a1,s7
    4be8:	02810513          	addi	a0,sp,40
    4bec:	000a0793          	mv	a5,s4
    4bf0:	04000713          	li	a4,64
    4bf4:	00d486b3          	add	a3,s1,a3
    4bf8:	00000613          	li	a2,0
    4bfc:	ea8ff0ef          	jal	ra,42a4 <emdnorm>
    4c00:	02815703          	lhu	a4,40(sp)
    4c04:	00c15783          	lhu	a5,12(sp)
    4c08:	00040593          	mv	a1,s0
    4c0c:	02810513          	addi	a0,sp,40
    4c10:	40e787b3          	sub	a5,a5,a4
    4c14:	00f037b3          	snez	a5,a5
    4c18:	40f007b3          	neg	a5,a5
    4c1c:	02f11423          	sh	a5,40(sp)
    4c20:	83cff0ef          	jal	ra,3c5c <emovo.constprop.0>
    4c24:	d5dff06f          	j	4980 <emul+0x170>
    4c28:	04410613          	addi	a2,sp,68
    4c2c:	02810593          	addi	a1,sp,40
    4c30:	f95fe0ef          	jal	ra,3bc4 <m16m>
    4c34:	000c0513          	mv	a0,s8
    4c38:	00000593          	li	a1,0
    4c3c:	05c10613          	addi	a2,sp,92
    4c40:	00055783          	lhu	a5,0(a0)
    4c44:	00065703          	lhu	a4,0(a2)
    4c48:	ffe50513          	addi	a0,a0,-2
    4c4c:	ffe60613          	addi	a2,a2,-2
    4c50:	00f70733          	add	a4,a4,a5
    4c54:	00b70733          	add	a4,a4,a1
    4c58:	01075593          	srli	a1,a4,0x10
    4c5c:	00e51123          	sh	a4,2(a0)
    4c60:	0015f593          	andi	a1,a1,1
    4c64:	fd661ee3          	bne	a2,s6,4c40 <emul+0x430>
    4c68:	f2dff06f          	j	4b94 <emul+0x384>
    4c6c:	00000793          	li	a5,0
    4c70:	cd9ff06f          	j	4948 <emul+0x138>
    4c74:	00000893          	li	a7,0
    4c78:	db5ff06f          	j	4a2c <emul+0x21c>
    4c7c:	000087b7          	lui	a5,0x8
    4c80:	fff78793          	addi	a5,a5,-1 # 7fff <__mdiff+0xfb>
    4c84:	e8f588e3          	beq	a1,a5,4b14 <emul+0x304>
    4c88:	0124d503          	lhu	a0,18(s1)
    4c8c:	d79ff06f          	j	4a04 <emul+0x1f4>
    4c90:	01440793          	addi	a5,s0,20
    4c94:	00240413          	addi	s0,s0,2
    4c98:	fe041f23          	sh	zero,-2(s0)
    4c9c:	fef41ce3          	bne	s0,a5,4c94 <emul+0x484>
    4ca0:	ce1ff06f          	j	4980 <emul+0x170>
    4ca4:	01440793          	addi	a5,s0,20
    4ca8:	00240413          	addi	s0,s0,2
    4cac:	fe041f23          	sh	zero,-2(s0)
    4cb0:	fef41ce3          	bne	s0,a5,4ca8 <emul+0x498>
    4cb4:	ccdff06f          	j	4980 <emul+0x170>
    4cb8:	00008837          	lui	a6,0x8
    4cbc:	fff80813          	addi	a6,a6,-1 # 7fff <__mdiff+0xfb>
    4cc0:	c39ff06f          	j	48f8 <emul+0xe8>

00004cc4 <ediv>:
    4cc4:	01255783          	lhu	a5,18(a0)
    4cc8:	f5010113          	addi	sp,sp,-176
    4ccc:	0a812423          	sw	s0,168(sp)
    4cd0:	fff7c793          	not	a5,a5
    4cd4:	0a912223          	sw	s1,164(sp)
    4cd8:	0b212023          	sw	s2,160(sp)
    4cdc:	09312e23          	sw	s3,156(sp)
    4ce0:	0a112623          	sw	ra,172(sp)
    4ce4:	09412c23          	sw	s4,152(sp)
    4ce8:	09512a23          	sw	s5,148(sp)
    4cec:	09612823          	sw	s6,144(sp)
    4cf0:	09712623          	sw	s7,140(sp)
    4cf4:	09812423          	sw	s8,136(sp)
    4cf8:	09912223          	sw	s9,132(sp)
    4cfc:	09a12023          	sw	s10,128(sp)
    4d00:	07b12e23          	sw	s11,124(sp)
    4d04:	01179713          	slli	a4,a5,0x11
    4d08:	00050493          	mv	s1,a0
    4d0c:	00058913          	mv	s2,a1
    4d10:	00060413          	mv	s0,a2
    4d14:	00068993          	mv	s3,a3
    4d18:	00071e63          	bnez	a4,4d34 <ediv+0x70>
    4d1c:	01250693          	addi	a3,a0,18
    4d20:	00050793          	mv	a5,a0
    4d24:	0007d703          	lhu	a4,0(a5)
    4d28:	00278793          	addi	a5,a5,2
    4d2c:	30071263          	bnez	a4,5030 <ediv+0x36c>
    4d30:	fed79ae3          	bne	a5,a3,4d24 <ediv+0x60>
    4d34:	01295783          	lhu	a5,18(s2)
    4d38:	fff7c793          	not	a5,a5
    4d3c:	01179713          	slli	a4,a5,0x11
    4d40:	00071e63          	bnez	a4,4d5c <ediv+0x98>
    4d44:	01290693          	addi	a3,s2,18
    4d48:	00090793          	mv	a5,s2
    4d4c:	0007d703          	lhu	a4,0(a5)
    4d50:	00278793          	addi	a5,a5,2
    4d54:	2e071c63          	bnez	a4,504c <ediv+0x388>
    4d58:	fef69ae3          	bne	a3,a5,4d4c <ediv+0x88>
    4d5c:	0001c597          	auipc	a1,0x1c
    4d60:	81c58593          	addi	a1,a1,-2020 # 20578 <ezero>
    4d64:	00048513          	mv	a0,s1
    4d68:	c00ff0ef          	jal	ra,4168 <ecmp>
    4d6c:	2e050e63          	beqz	a0,5068 <ediv+0x3a4>
    4d70:	0124d603          	lhu	a2,18(s1)
    4d74:	01295583          	lhu	a1,18(s2)
    4d78:	000087b7          	lui	a5,0x8
    4d7c:	fff78793          	addi	a5,a5,-1 # 7fff <__mdiff+0xfb>
    4d80:	00f67533          	and	a0,a2,a5
    4d84:	00f5f6b3          	and	a3,a1,a5
    4d88:	0af51663          	bne	a0,a5,4e34 <ediv+0x170>
    4d8c:	01248813          	addi	a6,s1,18
    4d90:	00048793          	mv	a5,s1
    4d94:	0007d703          	lhu	a4,0(a5)
    4d98:	00278793          	addi	a5,a5,2
    4d9c:	08071863          	bnez	a4,4e2c <ediv+0x168>
    4da0:	ff079ae3          	bne	a5,a6,4d94 <ediv+0xd0>
    4da4:	000087b7          	lui	a5,0x8
    4da8:	fff78793          	addi	a5,a5,-1 # 7fff <__mdiff+0xfb>
    4dac:	2cf69c63          	bne	a3,a5,5084 <ediv+0x3c0>
    4db0:	01290693          	addi	a3,s2,18
    4db4:	00090793          	mv	a5,s2
    4db8:	0007d703          	lhu	a4,0(a5)
    4dbc:	00278793          	addi	a5,a5,2
    4dc0:	48071e63          	bnez	a4,525c <ediv+0x598>
    4dc4:	fed79ae3          	bne	a5,a3,4db8 <ediv+0xf4>
    4dc8:	01040713          	addi	a4,s0,16
    4dcc:	00040793          	mv	a5,s0
    4dd0:	00278793          	addi	a5,a5,2
    4dd4:	fe079f23          	sh	zero,-2(a5)
    4dd8:	fee79ce3          	bne	a5,a4,4dd0 <ediv+0x10c>
    4ddc:	ffffc7b7          	lui	a5,0xffffc
    4de0:	00f41823          	sh	a5,16(s0)
    4de4:	ffff87b7          	lui	a5,0xffff8
    4de8:	fff7c793          	not	a5,a5
    4dec:	00f41923          	sh	a5,18(s0)
    4df0:	0ac12083          	lw	ra,172(sp)
    4df4:	0a812403          	lw	s0,168(sp)
    4df8:	0a412483          	lw	s1,164(sp)
    4dfc:	0a012903          	lw	s2,160(sp)
    4e00:	09c12983          	lw	s3,156(sp)
    4e04:	09812a03          	lw	s4,152(sp)
    4e08:	09412a83          	lw	s5,148(sp)
    4e0c:	09012b03          	lw	s6,144(sp)
    4e10:	08c12b83          	lw	s7,140(sp)
    4e14:	08812c03          	lw	s8,136(sp)
    4e18:	08412c83          	lw	s9,132(sp)
    4e1c:	08012d03          	lw	s10,128(sp)
    4e20:	07c12d83          	lw	s11,124(sp)
    4e24:	0b010113          	addi	sp,sp,176
    4e28:	00008067          	ret
    4e2c:	000087b7          	lui	a5,0x8
    4e30:	fff78793          	addi	a5,a5,-1 # 7fff <__mdiff+0xfb>
    4e34:	26f68263          	beq	a3,a5,5098 <ediv+0x3d4>
    4e38:	00048513          	mv	a0,s1
    4e3c:	01c10593          	addi	a1,sp,28
    4e40:	a74ff0ef          	jal	ra,40b4 <emovi>
    4e44:	03810593          	addi	a1,sp,56
    4e48:	00090513          	mv	a0,s2
    4e4c:	a68ff0ef          	jal	ra,40b4 <emovi>
    4e50:	03a15a83          	lhu	s5,58(sp)
    4e54:	01e15483          	lhu	s1,30(sp)
    4e58:	2c0a8863          	beqz	s5,5128 <ediv+0x464>
    4e5c:	01512623          	sw	s5,12(sp)
    4e60:	00048613          	mv	a2,s1
    4e64:	00912423          	sw	s1,8(sp)
    4e68:	02010793          	addi	a5,sp,32
    4e6c:	03410693          	addi	a3,sp,52
    4e70:	02061263          	bnez	a2,4e94 <ediv+0x1d0>
    4e74:	3af68663          	beq	a3,a5,5220 <ediv+0x55c>
    4e78:	0007d703          	lhu	a4,0(a5)
    4e7c:	00278793          	addi	a5,a5,2
    4e80:	fe070ae3          	beqz	a4,4e74 <ediv+0x1b0>
    4e84:	01c10513          	addi	a0,sp,28
    4e88:	e91fe0ef          	jal	ra,3d18 <enormlz>
    4e8c:	40a487b3          	sub	a5,s1,a0
    4e90:	00f12423          	sw	a5,8(sp)
    4e94:	03812703          	lw	a4,56(sp)
    4e98:	03898a93          	addi	s5,s3,56
    4e9c:	000a8793          	mv	a5,s5
    4ea0:	02e9aa23          	sw	a4,52(s3)
    4ea4:	04e98493          	addi	s1,s3,78
    4ea8:	00278793          	addi	a5,a5,2
    4eac:	fe079f23          	sh	zero,-2(a5)
    4eb0:	fe979ce3          	bne	a5,s1,4ea8 <ediv+0x1e4>
    4eb4:	03810513          	addi	a0,sp,56
    4eb8:	c35fe0ef          	jal	ra,3aec <eshdn1>
    4ebc:	02215b03          	lhu	s6,34(sp)
    4ec0:	00010937          	lui	s2,0x10
    4ec4:	05010c13          	addi	s8,sp,80
    4ec8:	010b1a13          	slli	s4,s6,0x10
    4ecc:	416a0a33          	sub	s4,s4,s6
    4ed0:	03a10c93          	addi	s9,sp,58
    4ed4:	fff90913          	addi	s2,s2,-1 # ffff <__udivdi3+0x3b3>
    4ed8:	06e10d13          	addi	s10,sp,110
    4edc:	05610d93          	addi	s11,sp,86
    4ee0:	03c15783          	lhu	a5,60(sp)
    4ee4:	03e15703          	lhu	a4,62(sp)
    4ee8:	00090b93          	mv	s7,s2
    4eec:	01079793          	slli	a5,a5,0x10
    4ef0:	00e787b3          	add	a5,a5,a4
    4ef4:	00fa6863          	bltu	s4,a5,4f04 <ediv+0x240>
    4ef8:	0367d533          	divu	a0,a5,s6
    4efc:	01051b93          	slli	s7,a0,0x10
    4f00:	010bdb93          	srli	s7,s7,0x10
    4f04:	05410613          	addi	a2,sp,84
    4f08:	01c10593          	addi	a1,sp,28
    4f0c:	000b8513          	mv	a0,s7
    4f10:	cb5fe0ef          	jal	ra,3bc4 <m16m>
    4f14:	03c10713          	addi	a4,sp,60
    4f18:	05810793          	addi	a5,sp,88
    4f1c:	0007d603          	lhu	a2,0(a5)
    4f20:	00075683          	lhu	a3,0(a4)
    4f24:	00278793          	addi	a5,a5,2
    4f28:	00270713          	addi	a4,a4,2
    4f2c:	22d61663          	bne	a2,a3,5158 <ediv+0x494>
    4f30:	ffa796e3          	bne	a5,s10,4f1c <ediv+0x258>
    4f34:	00000793          	li	a5,0
    4f38:	06c10693          	addi	a3,sp,108
    4f3c:	000c0613          	mv	a2,s8
    4f40:	00065703          	lhu	a4,0(a2)
    4f44:	0006d583          	lhu	a1,0(a3)
    4f48:	ffe60613          	addi	a2,a2,-2
    4f4c:	40f70733          	sub	a4,a4,a5
    4f50:	40b70733          	sub	a4,a4,a1
    4f54:	01075793          	srli	a5,a4,0x10
    4f58:	00e61123          	sh	a4,2(a2)
    4f5c:	0017f793          	andi	a5,a5,1
    4f60:	ffe68693          	addi	a3,a3,-2
    4f64:	fd961ee3          	bne	a2,s9,4f40 <ediv+0x27c>
    4f68:	017a9023          	sh	s7,0(s5)
    4f6c:	03c10793          	addi	a5,sp,60
    4f70:	0027d703          	lhu	a4,2(a5)
    4f74:	00278793          	addi	a5,a5,2
    4f78:	fee79f23          	sh	a4,-2(a5)
    4f7c:	ff879ae3          	bne	a5,s8,4f70 <ediv+0x2ac>
    4f80:	04011823          	sh	zero,80(sp)
    4f84:	002a8a93          	addi	s5,s5,2
    4f88:	f5549ce3          	bne	s1,s5,4ee0 <ediv+0x21c>
    4f8c:	00000713          	li	a4,0
    4f90:	03c10793          	addi	a5,sp,60
    4f94:	05210613          	addi	a2,sp,82
    4f98:	0007d683          	lhu	a3,0(a5)
    4f9c:	00278793          	addi	a5,a5,2
    4fa0:	00d76733          	or	a4,a4,a3
    4fa4:	fec79ae3          	bne	a5,a2,4f98 <ediv+0x2d4>
    4fa8:	01071793          	slli	a5,a4,0x10
    4fac:	4107d793          	srai	a5,a5,0x10
    4fb0:	00078463          	beqz	a5,4fb8 <ediv+0x2f4>
    4fb4:	00100713          	li	a4,1
    4fb8:	01071593          	slli	a1,a4,0x10
    4fbc:	0105d593          	srli	a1,a1,0x10
    4fc0:	03498713          	addi	a4,s3,52
    4fc4:	03810793          	addi	a5,sp,56
    4fc8:	00075683          	lhu	a3,0(a4)
    4fcc:	00278793          	addi	a5,a5,2
    4fd0:	00270713          	addi	a4,a4,2
    4fd4:	fed79f23          	sh	a3,-2(a5)
    4fd8:	fef618e3          	bne	a2,a5,4fc8 <ediv+0x304>
    4fdc:	00c12783          	lw	a5,12(sp)
    4fe0:	00812703          	lw	a4,8(sp)
    4fe4:	000046b7          	lui	a3,0x4
    4fe8:	fff68693          	addi	a3,a3,-1 # 3fff <eshift.part.0+0x16b>
    4fec:	40e78ab3          	sub	s5,a5,a4
    4ff0:	03810513          	addi	a0,sp,56
    4ff4:	00098793          	mv	a5,s3
    4ff8:	04000713          	li	a4,64
    4ffc:	00da86b3          	add	a3,s5,a3
    5000:	00000613          	li	a2,0
    5004:	aa0ff0ef          	jal	ra,42a4 <emdnorm>
    5008:	03815703          	lhu	a4,56(sp)
    500c:	01c15783          	lhu	a5,28(sp)
    5010:	00040593          	mv	a1,s0
    5014:	03810513          	addi	a0,sp,56
    5018:	40e787b3          	sub	a5,a5,a4
    501c:	00f037b3          	snez	a5,a5
    5020:	40f007b3          	neg	a5,a5
    5024:	02f11c23          	sh	a5,56(sp)
    5028:	c35fe0ef          	jal	ra,3c5c <emovo.constprop.0>
    502c:	dc5ff06f          	j	4df0 <ediv+0x12c>
    5030:	01448713          	addi	a4,s1,20
    5034:	0004d783          	lhu	a5,0(s1)
    5038:	00248493          	addi	s1,s1,2
    503c:	00240413          	addi	s0,s0,2
    5040:	fef41f23          	sh	a5,-2(s0)
    5044:	fee498e3          	bne	s1,a4,5034 <ediv+0x370>
    5048:	da9ff06f          	j	4df0 <ediv+0x12c>
    504c:	01490713          	addi	a4,s2,20
    5050:	00095783          	lhu	a5,0(s2)
    5054:	00290913          	addi	s2,s2,2
    5058:	00240413          	addi	s0,s0,2
    505c:	fef41f23          	sh	a5,-2(s0)
    5060:	fee918e3          	bne	s2,a4,5050 <ediv+0x38c>
    5064:	d8dff06f          	j	4df0 <ediv+0x12c>
    5068:	0001b597          	auipc	a1,0x1b
    506c:	51058593          	addi	a1,a1,1296 # 20578 <ezero>
    5070:	00090513          	mv	a0,s2
    5074:	8f4ff0ef          	jal	ra,4168 <ecmp>
    5078:	ce051ce3          	bnez	a0,4d70 <ediv+0xac>
    507c:	d4dff06f          	j	4dc8 <ediv+0x104>
    5080:	da080ce3          	beqz	a6,4e38 <ediv+0x174>
    5084:	01440793          	addi	a5,s0,20
    5088:	00240413          	addi	s0,s0,2
    508c:	fe041f23          	sh	zero,-2(s0)
    5090:	fef41ce3          	bne	s0,a5,5088 <ediv+0x3c4>
    5094:	d5dff06f          	j	4df0 <ediv+0x12c>
    5098:	00000813          	li	a6,0
    509c:	01290693          	addi	a3,s2,18
    50a0:	00090793          	mv	a5,s2
    50a4:	0007d703          	lhu	a4,0(a5)
    50a8:	00278793          	addi	a5,a5,2
    50ac:	fc071ae3          	bnez	a4,5080 <ediv+0x3bc>
    50b0:	fed79ae3          	bne	a5,a3,50a4 <ediv+0x3e0>
    50b4:	000087b7          	lui	a5,0x8
    50b8:	fff78793          	addi	a5,a5,-1 # 7fff <__mdiff+0xfb>
    50bc:	04f50a63          	beq	a0,a5,5110 <ediv+0x44c>
    50c0:	00f65613          	srli	a2,a2,0xf
    50c4:	00095783          	lhu	a5,0(s2)
    50c8:	00290913          	addi	s2,s2,2
    50cc:	18079063          	bnez	a5,524c <ediv+0x588>
    50d0:	fed91ae3          	bne	s2,a3,50c4 <ediv+0x400>
    50d4:	00f5d593          	srli	a1,a1,0xf
    50d8:	00c58463          	beq	a1,a2,50e0 <ediv+0x41c>
    50dc:	00008737          	lui	a4,0x8
    50e0:	00e41923          	sh	a4,18(s0)
    50e4:	00040793          	mv	a5,s0
    50e8:	01240713          	addi	a4,s0,18
    50ec:	00278793          	addi	a5,a5,2
    50f0:	fe079f23          	sh	zero,-2(a5)
    50f4:	fee79ce3          	bne	a5,a4,50ec <ediv+0x428>
    50f8:	01245783          	lhu	a5,18(s0)
    50fc:	00008737          	lui	a4,0x8
    5100:	fff70713          	addi	a4,a4,-1 # 7fff <__mdiff+0xfb>
    5104:	00e7e7b3          	or	a5,a5,a4
    5108:	00f41923          	sh	a5,18(s0)
    510c:	ce5ff06f          	j	4df0 <ediv+0x12c>
    5110:	01248513          	addi	a0,s1,18
    5114:	0004d783          	lhu	a5,0(s1)
    5118:	00248493          	addi	s1,s1,2
    511c:	12079c63          	bnez	a5,5254 <ediv+0x590>
    5120:	fea49ae3          	bne	s1,a0,5114 <ediv+0x450>
    5124:	f9dff06f          	j	50c0 <ediv+0x3fc>
    5128:	03c10793          	addi	a5,sp,60
    512c:	05010c13          	addi	s8,sp,80
    5130:	0cfc0e63          	beq	s8,a5,520c <ediv+0x548>
    5134:	0007d703          	lhu	a4,0(a5)
    5138:	00278793          	addi	a5,a5,2
    513c:	fe070ae3          	beqz	a4,5130 <ediv+0x46c>
    5140:	03810513          	addi	a0,sp,56
    5144:	bd5fe0ef          	jal	ra,3d18 <enormlz>
    5148:	40a007b3          	neg	a5,a0
    514c:	01e15603          	lhu	a2,30(sp)
    5150:	00f12623          	sw	a5,12(sp)
    5154:	d11ff06f          	j	4e64 <ediv+0x1a0>
    5158:	dcc6fee3          	bgeu	a3,a2,4f34 <ediv+0x270>
    515c:	fffb8793          	addi	a5,s7,-1
    5160:	01079893          	slli	a7,a5,0x10
    5164:	0108d893          	srli	a7,a7,0x10
    5168:	00000693          	li	a3,0
    516c:	03410613          	addi	a2,sp,52
    5170:	06c10713          	addi	a4,sp,108
    5174:	00075783          	lhu	a5,0(a4)
    5178:	00065583          	lhu	a1,0(a2)
    517c:	ffe70713          	addi	a4,a4,-2
    5180:	40d787b3          	sub	a5,a5,a3
    5184:	40b787b3          	sub	a5,a5,a1
    5188:	0107d693          	srli	a3,a5,0x10
    518c:	00f71123          	sh	a5,2(a4)
    5190:	0016f693          	andi	a3,a3,1
    5194:	ffe60613          	addi	a2,a2,-2
    5198:	fdb71ee3          	bne	a4,s11,5174 <ediv+0x4b0>
    519c:	03c10713          	addi	a4,sp,60
    51a0:	05810793          	addi	a5,sp,88
    51a4:	0007d603          	lhu	a2,0(a5)
    51a8:	00075683          	lhu	a3,0(a4)
    51ac:	00278793          	addi	a5,a5,2
    51b0:	00270713          	addi	a4,a4,2
    51b4:	00d61863          	bne	a2,a3,51c4 <ediv+0x500>
    51b8:	ffa796e3          	bne	a5,s10,51a4 <ediv+0x4e0>
    51bc:	00088b93          	mv	s7,a7
    51c0:	d75ff06f          	j	4f34 <ediv+0x270>
    51c4:	fec6fce3          	bgeu	a3,a2,51bc <ediv+0x4f8>
    51c8:	ffeb8513          	addi	a0,s7,-2
    51cc:	01051b93          	slli	s7,a0,0x10
    51d0:	010bdb93          	srli	s7,s7,0x10
    51d4:	00000693          	li	a3,0
    51d8:	03410613          	addi	a2,sp,52
    51dc:	06c10713          	addi	a4,sp,108
    51e0:	00075783          	lhu	a5,0(a4)
    51e4:	00065583          	lhu	a1,0(a2)
    51e8:	ffe70713          	addi	a4,a4,-2
    51ec:	40d787b3          	sub	a5,a5,a3
    51f0:	40b787b3          	sub	a5,a5,a1
    51f4:	0107d693          	srli	a3,a5,0x10
    51f8:	00f71123          	sh	a5,2(a4)
    51fc:	0016f693          	andi	a3,a3,1
    5200:	ffe60613          	addi	a2,a2,-2
    5204:	fdb71ee3          	bne	a4,s11,51e0 <ediv+0x51c>
    5208:	d2dff06f          	j	4f34 <ediv+0x270>
    520c:	01440793          	addi	a5,s0,20
    5210:	00240413          	addi	s0,s0,2
    5214:	fe041f23          	sh	zero,-2(s0)
    5218:	fef41ce3          	bne	s0,a5,5210 <ediv+0x54c>
    521c:	bd5ff06f          	j	4df0 <ediv+0x12c>
    5220:	01c15703          	lhu	a4,28(sp)
    5224:	03815783          	lhu	a5,56(sp)
    5228:	00f70463          	beq	a4,a5,5230 <ediv+0x56c>
    522c:	00008637          	lui	a2,0x8
    5230:	00c41923          	sh	a2,18(s0)
    5234:	01240713          	addi	a4,s0,18
    5238:	00040793          	mv	a5,s0
    523c:	00278793          	addi	a5,a5,2
    5240:	fe079f23          	sh	zero,-2(a5)
    5244:	fee79ce3          	bne	a5,a4,523c <ediv+0x578>
    5248:	eb1ff06f          	j	50f8 <ediv+0x434>
    524c:	00000593          	li	a1,0
    5250:	e89ff06f          	j	50d8 <ediv+0x414>
    5254:	00000613          	li	a2,0
    5258:	e6dff06f          	j	50c4 <ediv+0x400>
    525c:	00100813          	li	a6,1
    5260:	e41ff06f          	j	50a0 <ediv+0x3dc>

00005264 <e113toe.isra.0>:
    5264:	fd010113          	addi	sp,sp,-48
    5268:	02812423          	sw	s0,40(sp)
    526c:	02112623          	sw	ra,44(sp)
    5270:	00058413          	mv	s0,a1
    5274:	00410793          	addi	a5,sp,4
    5278:	01e10713          	addi	a4,sp,30
    527c:	00278793          	addi	a5,a5,2
    5280:	fe079f23          	sh	zero,-2(a5)
    5284:	fee79ce3          	bne	a5,a4,527c <e113toe.isra.0+0x18>
    5288:	00e55603          	lhu	a2,14(a0)
    528c:	01061793          	slli	a5,a2,0x10
    5290:	4107d793          	srai	a5,a5,0x10
    5294:	0607ca63          	bltz	a5,5308 <e113toe.isra.0+0xa4>
    5298:	000087b7          	lui	a5,0x8
    529c:	fff78793          	addi	a5,a5,-1 # 7fff <__mdiff+0xfb>
    52a0:	00011223          	sh	zero,4(sp)
    52a4:	00f67633          	and	a2,a2,a5
    52a8:	06f60c63          	beq	a2,a5,5320 <e113toe.isra.0+0xbc>
    52ac:	00e50793          	addi	a5,a0,14
    52b0:	00c11323          	sh	a2,6(sp)
    52b4:	00a10713          	addi	a4,sp,10
    52b8:	ffe7d683          	lhu	a3,-2(a5)
    52bc:	ffe78793          	addi	a5,a5,-2
    52c0:	00270713          	addi	a4,a4,2
    52c4:	fed71f23          	sh	a3,-2(a4)
    52c8:	fef518e3          	bne	a0,a5,52b8 <e113toe.isra.0+0x54>
    52cc:	02061263          	bnez	a2,52f0 <e113toe.isra.0+0x8c>
    52d0:	00011423          	sh	zero,8(sp)
    52d4:	00040593          	mv	a1,s0
    52d8:	00410513          	addi	a0,sp,4
    52dc:	981fe0ef          	jal	ra,3c5c <emovo.constprop.0>
    52e0:	02c12083          	lw	ra,44(sp)
    52e4:	02812403          	lw	s0,40(sp)
    52e8:	03010113          	addi	sp,sp,48
    52ec:	00008067          	ret
    52f0:	00100793          	li	a5,1
    52f4:	fff00593          	li	a1,-1
    52f8:	00410513          	addi	a0,sp,4
    52fc:	00f11423          	sh	a5,8(sp)
    5300:	b95fe0ef          	jal	ra,3e94 <eshift.part.0>
    5304:	fd1ff06f          	j	52d4 <e113toe.isra.0+0x70>
    5308:	fff00793          	li	a5,-1
    530c:	00f11223          	sh	a5,4(sp)
    5310:	000087b7          	lui	a5,0x8
    5314:	fff78793          	addi	a5,a5,-1 # 7fff <__mdiff+0xfb>
    5318:	00f67633          	and	a2,a2,a5
    531c:	f8f618e3          	bne	a2,a5,52ac <e113toe.isra.0+0x48>
    5320:	00050793          	mv	a5,a0
    5324:	00e50693          	addi	a3,a0,14
    5328:	0007d703          	lhu	a4,0(a5)
    532c:	00278793          	addi	a5,a5,2
    5330:	06071c63          	bnez	a4,53a8 <e113toe.isra.0+0x144>
    5334:	fef69ae3          	bne	a3,a5,5328 <e113toe.isra.0+0xc4>
    5338:	01440713          	addi	a4,s0,20
    533c:	00040793          	mv	a5,s0
    5340:	00278793          	addi	a5,a5,2
    5344:	fe079f23          	sh	zero,-2(a5)
    5348:	fee79ce3          	bne	a5,a4,5340 <e113toe.isra.0+0xdc>
    534c:	01240713          	addi	a4,s0,18
    5350:	00040793          	mv	a5,s0
    5354:	00278793          	addi	a5,a5,2
    5358:	fe079f23          	sh	zero,-2(a5)
    535c:	fef71ce3          	bne	a4,a5,5354 <e113toe.isra.0+0xf0>
    5360:	01245783          	lhu	a5,18(s0)
    5364:	000086b7          	lui	a3,0x8
    5368:	fff68693          	addi	a3,a3,-1 # 7fff <__mdiff+0xfb>
    536c:	00d7e7b3          	or	a5,a5,a3
    5370:	01079793          	slli	a5,a5,0x10
    5374:	0107d793          	srli	a5,a5,0x10
    5378:	00f41923          	sh	a5,18(s0)
    537c:	00e51683          	lh	a3,14(a0)
    5380:	f606d0e3          	bgez	a3,52e0 <e113toe.isra.0+0x7c>
    5384:	00040693          	mv	a3,s0
    5388:	0006d603          	lhu	a2,0(a3)
    538c:	00268693          	addi	a3,a3,2
    5390:	f40618e3          	bnez	a2,52e0 <e113toe.isra.0+0x7c>
    5394:	fed71ae3          	bne	a4,a3,5388 <e113toe.isra.0+0x124>
    5398:	ffff8737          	lui	a4,0xffff8
    539c:	00e7c7b3          	xor	a5,a5,a4
    53a0:	00f41923          	sh	a5,18(s0)
    53a4:	f3dff06f          	j	52e0 <e113toe.isra.0+0x7c>
    53a8:	01040713          	addi	a4,s0,16
    53ac:	00040793          	mv	a5,s0
    53b0:	00278793          	addi	a5,a5,2
    53b4:	fe079f23          	sh	zero,-2(a5)
    53b8:	fee79ce3          	bne	a5,a4,53b0 <e113toe.isra.0+0x14c>
    53bc:	ffffc7b7          	lui	a5,0xffffc
    53c0:	00f41823          	sh	a5,16(s0)
    53c4:	ffff87b7          	lui	a5,0xffff8
    53c8:	fff7c793          	not	a5,a5
    53cc:	00f41923          	sh	a5,18(s0)
    53d0:	f11ff06f          	j	52e0 <e113toe.isra.0+0x7c>

000053d4 <_ldtoa_r>:
    53d4:	00c5a883          	lw	a7,12(a1)
    53d8:	e1010113          	addi	sp,sp,-496
    53dc:	0005ae83          	lw	t4,0(a1)
    53e0:	0045ae03          	lw	t3,4(a1)
    53e4:	0085a303          	lw	t1,8(a1)
    53e8:	03112e23          	sw	a7,60(sp)
    53ec:	04052583          	lw	a1,64(a0)
    53f0:	fff00893          	li	a7,-1
    53f4:	17112023          	sw	a7,352(sp)
    53f8:	09000893          	li	a7,144
    53fc:	1e812423          	sw	s0,488(sp)
    5400:	1d412c23          	sw	s4,472(sp)
    5404:	1e112623          	sw	ra,492(sp)
    5408:	1e912223          	sw	s1,484(sp)
    540c:	1f212023          	sw	s2,480(sp)
    5410:	1d312e23          	sw	s3,476(sp)
    5414:	1d512a23          	sw	s5,468(sp)
    5418:	1d612823          	sw	s6,464(sp)
    541c:	1d712623          	sw	s7,460(sp)
    5420:	1d812423          	sw	s8,456(sp)
    5424:	1d912223          	sw	s9,452(sp)
    5428:	1da12023          	sw	s10,448(sp)
    542c:	1bb12e23          	sw	s11,444(sp)
    5430:	03d12823          	sw	t4,48(sp)
    5434:	03c12a23          	sw	t3,52(sp)
    5438:	02612c23          	sw	t1,56(sp)
    543c:	17112223          	sw	a7,356(sp)
    5440:	00c12623          	sw	a2,12(sp)
    5444:	00d12a23          	sw	a3,20(sp)
    5448:	00e12c23          	sw	a4,24(sp)
    544c:	03012023          	sw	a6,32(sp)
    5450:	00050a13          	mv	s4,a0
    5454:	00078413          	mv	s0,a5
    5458:	02058063          	beqz	a1,5478 <_ldtoa_r+0xa4>
    545c:	04452703          	lw	a4,68(a0)
    5460:	00100793          	li	a5,1
    5464:	00e797b3          	sll	a5,a5,a4
    5468:	00e5a223          	sw	a4,4(a1)
    546c:	00f5a423          	sw	a5,8(a1)
    5470:	074020ef          	jal	ra,74e4 <_Bfree>
    5474:	040a2023          	sw	zero,64(s4)
    5478:	06010913          	addi	s2,sp,96
    547c:	00090593          	mv	a1,s2
    5480:	03010513          	addi	a0,sp,48
    5484:	de1ff0ef          	jal	ra,5264 <e113toe.isra.0>
    5488:	07215603          	lhu	a2,114(sp)
    548c:	00008737          	lui	a4,0x8
    5490:	fff70713          	addi	a4,a4,-1 # 7fff <__mdiff+0xfb>
    5494:	00e675b3          	and	a1,a2,a4
    5498:	00e59e63          	bne	a1,a4,54b4 <_ldtoa_r+0xe0>
    549c:	00090713          	mv	a4,s2
    54a0:	07210793          	addi	a5,sp,114
    54a4:	00075683          	lhu	a3,0(a4)
    54a8:	00270713          	addi	a4,a4,2
    54ac:	3c0698e3          	bnez	a3,607c <_ldtoa_r+0xca8>
    54b0:	fef71ae3          	bne	a4,a5,54a4 <_ldtoa_r+0xd0>
    54b4:	00f65613          	srli	a2,a2,0xf
    54b8:	00c12703          	lw	a4,12(sp)
    54bc:	00c42023          	sw	a2,0(s0)
    54c0:	00300793          	li	a5,3
    54c4:	0af704e3          	beq	a4,a5,5d6c <_ldtoa_r+0x998>
    54c8:	01400793          	li	a5,20
    54cc:	00f12823          	sw	a5,16(sp)
    54d0:	3a071ae3          	bnez	a4,6084 <_ldtoa_r+0xcb0>
    54d4:	16412703          	lw	a4,356(sp)
    54d8:	000087b7          	lui	a5,0x8
    54dc:	fff78793          	addi	a5,a5,-1 # 7fff <__mdiff+0xfb>
    54e0:	00e12e23          	sw	a4,28(sp)
    54e4:	00f59e63          	bne	a1,a5,5500 <_ldtoa_r+0x12c>
    54e8:	00090793          	mv	a5,s2
    54ec:	07210693          	addi	a3,sp,114
    54f0:	0007d703          	lhu	a4,0(a5)
    54f4:	00278793          	addi	a5,a5,2
    54f8:	0e0712e3          	bnez	a4,5ddc <_ldtoa_r+0xa08>
    54fc:	fed79ae3          	bne	a5,a3,54f0 <_ldtoa_r+0x11c>
    5500:	09000793          	li	a5,144
    5504:	16f12223          	sw	a5,356(sp)
    5508:	07c10713          	addi	a4,sp,124
    550c:	00090793          	mv	a5,s2
    5510:	07410613          	addi	a2,sp,116
    5514:	0007d683          	lhu	a3,0(a5)
    5518:	00278793          	addi	a5,a5,2
    551c:	00270713          	addi	a4,a4,2
    5520:	fed71f23          	sh	a3,-2(a4)
    5524:	fec798e3          	bne	a5,a2,5514 <_ldtoa_r+0x140>
    5528:	08e15603          	lhu	a2,142(sp)
    552c:	00000b93          	li	s7,0
    5530:	01061793          	slli	a5,a2,0x10
    5534:	4107d793          	srai	a5,a5,0x10
    5538:	5807c063          	bltz	a5,5ab8 <_ldtoa_r+0x6e4>
    553c:	00000693          	li	a3,0
    5540:	09810793          	addi	a5,sp,152
    5544:	0001b717          	auipc	a4,0x1b
    5548:	f1c70713          	addi	a4,a4,-228 # 20460 <eone>
