
me.elf:     file format elf32-littleriscv


Disassembly of section .text:

00000000 <_start>:
       0:	00014297          	auipc	t0,0x14
       4:	59028293          	addi	t0,t0,1424 # 14590 <trap_handler>
       8:	30529073          	csrw	mtvec,t0
       c:	3050e073          	csrsi	mtvec,1
      10:	00022297          	auipc	t0,0x22
      14:	87428293          	addi	t0,t0,-1932 # 21884 <_PathLocale>
      18:	00022317          	auipc	t1,0x22
      1c:	8ac30313          	addi	t1,t1,-1876 # 218c4 <_bss_end>

00000020 <_bss_clear>:
      20:	0002a023          	sw	zero,0(t0)
      24:	00428293          	addi	t0,t0,4
      28:	fe62ece3          	bltu	t0,t1,20 <_bss_clear>
      2c:	00040117          	auipc	sp,0x40
      30:	fd410113          	addi	sp,sp,-44 # 40000 <_stack>
      34:	05c000ef          	jal	ra,90 <main>
      38:	0691406f          	j	148a0 <exit>

0000003c <majorityElement>:
      3c:	00050613          	mv	a2,a0
      40:	00052503          	lw	a0,0(a0)
      44:	00100793          	li	a5,1
      48:	04b7d263          	bge	a5,a1,8c <majorityElement+0x50>
      4c:	00460793          	addi	a5,a2,4
      50:	00259593          	slli	a1,a1,0x2
      54:	00b60633          	add	a2,a2,a1
      58:	00100713          	li	a4,1
      5c:	0100006f          	j	6c <majorityElement+0x30>
      60:	00170713          	addi	a4,a4,1
      64:	00478793          	addi	a5,a5,4
      68:	02c78263          	beq	a5,a2,8c <majorityElement+0x50>
      6c:	0007a683          	lw	a3,0(a5)
      70:	fea688e3          	beq	a3,a0,60 <majorityElement+0x24>
      74:	00070663          	beqz	a4,80 <majorityElement+0x44>
      78:	fff70713          	addi	a4,a4,-1
      7c:	fe9ff06f          	j	64 <majorityElement+0x28>
      80:	00068513          	mv	a0,a3
      84:	00100713          	li	a4,1
      88:	fddff06f          	j	64 <majorityElement+0x28>
      8c:	00008067          	ret

00000090 <main>:
      90:	fc010113          	addi	sp,sp,-64
      94:	02112e23          	sw	ra,60(sp)
      98:	000207b7          	lui	a5,0x20
      9c:	05878793          	addi	a5,a5,88 # 20058 <__malloc_trim_threshold+0x20>
      a0:	0007ae03          	lw	t3,0(a5)
      a4:	0047a303          	lw	t1,4(a5)
      a8:	0087a883          	lw	a7,8(a5)
      ac:	00c7a803          	lw	a6,12(a5)
      b0:	0107a503          	lw	a0,16(a5)
      b4:	0147a583          	lw	a1,20(a5)
      b8:	0187a603          	lw	a2,24(a5)
      bc:	01c7a683          	lw	a3,28(a5)
      c0:	0207a703          	lw	a4,32(a5)
      c4:	0247a783          	lw	a5,36(a5)
      c8:	01c12423          	sw	t3,8(sp)
      cc:	00612623          	sw	t1,12(sp)
      d0:	01112823          	sw	a7,16(sp)
      d4:	01012a23          	sw	a6,20(sp)
      d8:	00a12c23          	sw	a0,24(sp)
      dc:	00b12e23          	sw	a1,28(sp)
      e0:	02c12023          	sw	a2,32(sp)
      e4:	02d12223          	sw	a3,36(sp)
      e8:	02e12423          	sw	a4,40(sp)
      ec:	02f12623          	sw	a5,44(sp)
      f0:	00a00593          	li	a1,10
      f4:	00810513          	addi	a0,sp,8
      f8:	f45ff0ef          	jal	ra,3c <majorityElement>
      fc:	00050593          	mv	a1,a0
     100:	00020537          	lui	a0,0x20
     104:	03c50513          	addi	a0,a0,60 # 2003c <__malloc_trim_threshold+0x4>
     108:	054000ef          	jal	ra,15c <printf>
     10c:	00000513          	li	a0,0
     110:	03c12083          	lw	ra,60(sp)
     114:	04010113          	addi	sp,sp,64
     118:	00008067          	ret

0000011c <_printf_r>:
     11c:	fc010113          	addi	sp,sp,-64
     120:	02c12423          	sw	a2,40(sp)
     124:	02d12623          	sw	a3,44(sp)
     128:	02e12823          	sw	a4,48(sp)
     12c:	02f12a23          	sw	a5,52(sp)
     130:	03012c23          	sw	a6,56(sp)
     134:	03112e23          	sw	a7,60(sp)
     138:	00058613          	mv	a2,a1
     13c:	00852583          	lw	a1,8(a0)
     140:	02810693          	addi	a3,sp,40
     144:	00112e23          	sw	ra,28(sp)
     148:	00d12623          	sw	a3,12(sp)
     14c:	060000ef          	jal	ra,1ac <_vfprintf_r>
     150:	01c12083          	lw	ra,28(sp)
     154:	04010113          	addi	sp,sp,64
     158:	00008067          	ret

0000015c <printf>:
     15c:	fc010113          	addi	sp,sp,-64
     160:	02c12423          	sw	a2,40(sp)
     164:	02d12623          	sw	a3,44(sp)
     168:	00020317          	auipc	t1,0x20
     16c:	ec832303          	lw	t1,-312(t1) # 20030 <_impure_ptr>
     170:	02b12223          	sw	a1,36(sp)
     174:	02e12823          	sw	a4,48(sp)
     178:	02f12a23          	sw	a5,52(sp)
     17c:	03012c23          	sw	a6,56(sp)
     180:	03112e23          	sw	a7,60(sp)
     184:	00832583          	lw	a1,8(t1)
     188:	02410693          	addi	a3,sp,36
     18c:	00050613          	mv	a2,a0
     190:	00030513          	mv	a0,t1
     194:	00112e23          	sw	ra,28(sp)
     198:	00d12623          	sw	a3,12(sp)
     19c:	010000ef          	jal	ra,1ac <_vfprintf_r>
     1a0:	01c12083          	lw	ra,28(sp)
     1a4:	04010113          	addi	sp,sp,64
     1a8:	00008067          	ret

000001ac <_vfprintf_r>:
     1ac:	e0010113          	addi	sp,sp,-512
     1b0:	1e112e23          	sw	ra,508(sp)
     1b4:	1f212823          	sw	s2,496(sp)
     1b8:	1d812c23          	sw	s8,472(sp)
     1bc:	1da12823          	sw	s10,464(sp)
     1c0:	00058c13          	mv	s8,a1
     1c4:	00060913          	mv	s2,a2
     1c8:	00d12a23          	sw	a3,20(sp)
     1cc:	1e812c23          	sw	s0,504(sp)
     1d0:	1e912a23          	sw	s1,500(sp)
     1d4:	1f312623          	sw	s3,492(sp)
     1d8:	1f412423          	sw	s4,488(sp)
     1dc:	1f512223          	sw	s5,484(sp)
     1e0:	1f612023          	sw	s6,480(sp)
     1e4:	1d712e23          	sw	s7,476(sp)
     1e8:	1d912a23          	sw	s9,468(sp)
     1ec:	1db12623          	sw	s11,460(sp)
     1f0:	00050d13          	mv	s10,a0
     1f4:	4e0060ef          	jal	ra,66d4 <_localeconv_r>
     1f8:	00052783          	lw	a5,0(a0)
     1fc:	00078513          	mv	a0,a5
     200:	02f12623          	sw	a5,44(sp)
     204:	1b9080ef          	jal	ra,8bbc <strlen>
     208:	02a12423          	sw	a0,40(sp)
     20c:	10012023          	sw	zero,256(sp)
     210:	10012223          	sw	zero,260(sp)
     214:	10012423          	sw	zero,264(sp)
     218:	10012623          	sw	zero,268(sp)
     21c:	000d0663          	beqz	s10,228 <_vfprintf_r+0x7c>
     220:	038d2783          	lw	a5,56(s10)
     224:	0e0788e3          	beqz	a5,b14 <_vfprintf_r+0x968>
     228:	00cc1703          	lh	a4,12(s8)
     22c:	000026b7          	lui	a3,0x2
     230:	01071793          	slli	a5,a4,0x10
     234:	0107d793          	srli	a5,a5,0x10
     238:	00d7f633          	and	a2,a5,a3
     23c:	02061863          	bnez	a2,26c <_vfprintf_r+0xc0>
     240:	064c2603          	lw	a2,100(s8)
     244:	00d767b3          	or	a5,a4,a3
     248:	01079793          	slli	a5,a5,0x10
     24c:	ffffe737          	lui	a4,0xffffe
     250:	4107d793          	srai	a5,a5,0x10
     254:	fff70713          	addi	a4,a4,-1 # ffffdfff <_stack+0xfffbdfff>
     258:	00e67733          	and	a4,a2,a4
     25c:	00fc1623          	sh	a5,12(s8)
     260:	01079793          	slli	a5,a5,0x10
     264:	06ec2223          	sw	a4,100(s8)
     268:	0107d793          	srli	a5,a5,0x10
     26c:	0087f713          	andi	a4,a5,8
     270:	2e070063          	beqz	a4,550 <_vfprintf_r+0x3a4>
     274:	010c2703          	lw	a4,16(s8)
     278:	2c070c63          	beqz	a4,550 <_vfprintf_r+0x3a4>
     27c:	01a7f793          	andi	a5,a5,26
     280:	00a00713          	li	a4,10
     284:	2ee78863          	beq	a5,a4,574 <_vfprintf_r+0x3c8>
     288:	11c10793          	addi	a5,sp,284
     28c:	00090b93          	mv	s7,s2
     290:	0ef12a23          	sw	a5,244(sp)
     294:	00078893          	mv	a7,a5
     298:	000bc783          	lbu	a5,0(s7)
     29c:	0e012e23          	sw	zero,252(sp)
     2a0:	0e012c23          	sw	zero,248(sp)
     2a4:	00012e23          	sw	zero,28(sp)
     2a8:	02012823          	sw	zero,48(sp)
     2ac:	02012a23          	sw	zero,52(sp)
     2b0:	02012c23          	sw	zero,56(sp)
     2b4:	04012223          	sw	zero,68(sp)
     2b8:	04012423          	sw	zero,72(sp)
     2bc:	00012623          	sw	zero,12(sp)
     2c0:	01000a13          	li	s4,16
     2c4:	22078863          	beqz	a5,4f4 <_vfprintf_r+0x348>
     2c8:	000b8413          	mv	s0,s7
     2cc:	02500713          	li	a4,37
     2d0:	30e78c63          	beq	a5,a4,5e8 <_vfprintf_r+0x43c>
     2d4:	00144783          	lbu	a5,1(s0)
     2d8:	00140413          	addi	s0,s0,1
     2dc:	fe079ae3          	bnez	a5,2d0 <_vfprintf_r+0x124>
     2e0:	417404b3          	sub	s1,s0,s7
     2e4:	21740863          	beq	s0,s7,4f4 <_vfprintf_r+0x348>
     2e8:	0fc12703          	lw	a4,252(sp)
     2ec:	0f812783          	lw	a5,248(sp)
     2f0:	0178a023          	sw	s7,0(a7)
     2f4:	00970733          	add	a4,a4,s1
     2f8:	00178793          	addi	a5,a5,1
     2fc:	0098a223          	sw	s1,4(a7)
     300:	0ee12e23          	sw	a4,252(sp)
     304:	0ef12c23          	sw	a5,248(sp)
     308:	00700713          	li	a4,7
     30c:	00888893          	addi	a7,a7,8
     310:	2ef74463          	blt	a4,a5,5f8 <_vfprintf_r+0x44c>
     314:	00c12703          	lw	a4,12(sp)
     318:	00044783          	lbu	a5,0(s0)
     31c:	00970733          	add	a4,a4,s1
     320:	00e12623          	sw	a4,12(sp)
     324:	1c078863          	beqz	a5,4f4 <_vfprintf_r+0x348>
     328:	00144483          	lbu	s1,1(s0)
     32c:	0c010ba3          	sb	zero,215(sp)
     330:	00140413          	addi	s0,s0,1
     334:	fff00c93          	li	s9,-1
     338:	00000993          	li	s3,0
     33c:	00000a93          	li	s5,0
     340:	00900913          	li	s2,9
     344:	02a00b13          	li	s6,42
     348:	00088d93          	mv	s11,a7
     34c:	00140413          	addi	s0,s0,1
     350:	05a00713          	li	a4,90
     354:	fe048793          	addi	a5,s1,-32
     358:	04f76863          	bltu	a4,a5,3a8 <_vfprintf_r+0x1fc>
     35c:	00020697          	auipc	a3,0x20
     360:	d6868693          	addi	a3,a3,-664 # 200c4 <__malloc_trim_threshold+0x8c>
     364:	00279793          	slli	a5,a5,0x2
     368:	00d787b3          	add	a5,a5,a3
     36c:	0007a783          	lw	a5,0(a5)
     370:	00d787b3          	add	a5,a5,a3
     374:	00078067          	jr	a5
     378:	00000993          	li	s3,0
     37c:	fd048613          	addi	a2,s1,-48
     380:	00044483          	lbu	s1,0(s0)
     384:	00299793          	slli	a5,s3,0x2
     388:	013787b3          	add	a5,a5,s3
     38c:	00179793          	slli	a5,a5,0x1
     390:	00f609b3          	add	s3,a2,a5
     394:	fd048613          	addi	a2,s1,-48
     398:	00140413          	addi	s0,s0,1
     39c:	fec972e3          	bgeu	s2,a2,380 <_vfprintf_r+0x1d4>
     3a0:	fe048793          	addi	a5,s1,-32
     3a4:	faf77ce3          	bgeu	a4,a5,35c <_vfprintf_r+0x1b0>
     3a8:	000d8893          	mv	a7,s11
     3ac:	14048463          	beqz	s1,4f4 <_vfprintf_r+0x348>
     3b0:	14910e23          	sb	s1,348(sp)
     3b4:	0c010ba3          	sb	zero,215(sp)
     3b8:	00100b13          	li	s6,1
     3bc:	00100913          	li	s2,1
     3c0:	15c10b93          	addi	s7,sp,348
     3c4:	00012823          	sw	zero,16(sp)
     3c8:	00000c93          	li	s9,0
     3cc:	02012223          	sw	zero,36(sp)
     3d0:	02012023          	sw	zero,32(sp)
     3d4:	00012c23          	sw	zero,24(sp)
     3d8:	002aff13          	andi	t5,s5,2
     3dc:	000f0463          	beqz	t5,3e4 <_vfprintf_r+0x238>
     3e0:	002b0b13          	addi	s6,s6,2
     3e4:	084afe93          	andi	t4,s5,132
     3e8:	0fc12783          	lw	a5,252(sp)
     3ec:	000e9663          	bnez	t4,3f8 <_vfprintf_r+0x24c>
     3f0:	416986b3          	sub	a3,s3,s6
     3f4:	62d048e3          	bgtz	a3,1224 <_vfprintf_r+0x1078>
     3f8:	0d714703          	lbu	a4,215(sp)
     3fc:	02070a63          	beqz	a4,430 <_vfprintf_r+0x284>
     400:	0f812703          	lw	a4,248(sp)
     404:	0d710693          	addi	a3,sp,215
     408:	00d8a023          	sw	a3,0(a7)
     40c:	00178793          	addi	a5,a5,1
     410:	00100693          	li	a3,1
     414:	00170713          	addi	a4,a4,1
     418:	00d8a223          	sw	a3,4(a7)
     41c:	0ef12e23          	sw	a5,252(sp)
     420:	0ee12c23          	sw	a4,248(sp)
     424:	00700693          	li	a3,7
     428:	00888893          	addi	a7,a7,8
     42c:	4ee6c063          	blt	a3,a4,90c <_vfprintf_r+0x760>
     430:	020f0a63          	beqz	t5,464 <_vfprintf_r+0x2b8>
     434:	0f812703          	lw	a4,248(sp)
     438:	0d810693          	addi	a3,sp,216
     43c:	00d8a023          	sw	a3,0(a7)
     440:	00278793          	addi	a5,a5,2
     444:	00200693          	li	a3,2
     448:	00170713          	addi	a4,a4,1
     44c:	00d8a223          	sw	a3,4(a7)
     450:	0ef12e23          	sw	a5,252(sp)
     454:	0ee12c23          	sw	a4,248(sp)
     458:	00700693          	li	a3,7
     45c:	00888893          	addi	a7,a7,8
     460:	6ee6c6e3          	blt	a3,a4,134c <_vfprintf_r+0x11a0>
     464:	08000713          	li	a4,128
     468:	42ee80e3          	beq	t4,a4,1088 <_vfprintf_r+0xedc>
     46c:	412c8cb3          	sub	s9,s9,s2
     470:	4d904ce3          	bgtz	s9,1148 <_vfprintf_r+0xf9c>
     474:	100af713          	andi	a4,s5,256
     478:	2c071ce3          	bnez	a4,f50 <_vfprintf_r+0xda4>
     47c:	0f812703          	lw	a4,248(sp)
     480:	012787b3          	add	a5,a5,s2
     484:	0178a023          	sw	s7,0(a7)
     488:	00170713          	addi	a4,a4,1
     48c:	0128a223          	sw	s2,4(a7)
     490:	0ef12e23          	sw	a5,252(sp)
     494:	0ee12c23          	sw	a4,248(sp)
     498:	00700693          	li	a3,7
     49c:	5ae6ca63          	blt	a3,a4,a50 <_vfprintf_r+0x8a4>
     4a0:	00888893          	addi	a7,a7,8
     4a4:	004afa93          	andi	s5,s5,4
     4a8:	000a8663          	beqz	s5,4b4 <_vfprintf_r+0x308>
     4ac:	416984b3          	sub	s1,s3,s6
     4b0:	5c904063          	bgtz	s1,a70 <_vfprintf_r+0x8c4>
     4b4:	0169d463          	bge	s3,s6,4bc <_vfprintf_r+0x310>
     4b8:	000b0993          	mv	s3,s6
     4bc:	00c12703          	lw	a4,12(sp)
     4c0:	01370733          	add	a4,a4,s3
     4c4:	00e12623          	sw	a4,12(sp)
     4c8:	52079ae3          	bnez	a5,11fc <_vfprintf_r+0x1050>
     4cc:	01012783          	lw	a5,16(sp)
     4d0:	0e012c23          	sw	zero,248(sp)
     4d4:	00078863          	beqz	a5,4e4 <_vfprintf_r+0x338>
     4d8:	01012583          	lw	a1,16(sp)
     4dc:	000d0513          	mv	a0,s10
     4e0:	1a0030ef          	jal	ra,3680 <_free_r>
     4e4:	11c10893          	addi	a7,sp,284
     4e8:	00040b93          	mv	s7,s0
     4ec:	000bc783          	lbu	a5,0(s7)
     4f0:	dc079ce3          	bnez	a5,2c8 <_vfprintf_r+0x11c>
     4f4:	0fc12783          	lw	a5,252(sp)
     4f8:	00078463          	beqz	a5,500 <_vfprintf_r+0x354>
     4fc:	3010106f          	j	1ffc <_vfprintf_r+0x1e50>
     500:	00cc5783          	lhu	a5,12(s8)
     504:	0407f793          	andi	a5,a5,64
     508:	00078463          	beqz	a5,510 <_vfprintf_r+0x364>
     50c:	2e40206f          	j	27f0 <_vfprintf_r+0x2644>
     510:	1fc12083          	lw	ra,508(sp)
     514:	1f812403          	lw	s0,504(sp)
     518:	00c12503          	lw	a0,12(sp)
     51c:	1f412483          	lw	s1,500(sp)
     520:	1f012903          	lw	s2,496(sp)
     524:	1ec12983          	lw	s3,492(sp)
     528:	1e812a03          	lw	s4,488(sp)
     52c:	1e412a83          	lw	s5,484(sp)
     530:	1e012b03          	lw	s6,480(sp)
     534:	1dc12b83          	lw	s7,476(sp)
     538:	1d812c03          	lw	s8,472(sp)
     53c:	1d412c83          	lw	s9,468(sp)
     540:	1d012d03          	lw	s10,464(sp)
     544:	1cc12d83          	lw	s11,460(sp)
     548:	20010113          	addi	sp,sp,512
     54c:	00008067          	ret
     550:	000c0593          	mv	a1,s8
     554:	000d0513          	mv	a0,s10
     558:	794020ef          	jal	ra,2cec <__swsetup_r>
     55c:	00050463          	beqz	a0,564 <_vfprintf_r+0x3b8>
     560:	2900206f          	j	27f0 <_vfprintf_r+0x2644>
     564:	00cc5783          	lhu	a5,12(s8)
     568:	00a00713          	li	a4,10
     56c:	01a7f793          	andi	a5,a5,26
     570:	d0e79ce3          	bne	a5,a4,288 <_vfprintf_r+0xdc>
     574:	00ec1783          	lh	a5,14(s8)
     578:	d007c8e3          	bltz	a5,288 <_vfprintf_r+0xdc>
     57c:	01412683          	lw	a3,20(sp)
     580:	00090613          	mv	a2,s2
     584:	000c0593          	mv	a1,s8
     588:	000d0513          	mv	a0,s10
     58c:	6a0020ef          	jal	ra,2c2c <__sbprintf>
     590:	00a12623          	sw	a0,12(sp)
     594:	f7dff06f          	j	510 <_vfprintf_r+0x364>
     598:	000d0513          	mv	a0,s10
     59c:	138060ef          	jal	ra,66d4 <_localeconv_r>
     5a0:	00452783          	lw	a5,4(a0)
     5a4:	00078513          	mv	a0,a5
     5a8:	04f12423          	sw	a5,72(sp)
     5ac:	610080ef          	jal	ra,8bbc <strlen>
     5b0:	00050793          	mv	a5,a0
     5b4:	000d0513          	mv	a0,s10
     5b8:	00078493          	mv	s1,a5
     5bc:	04f12223          	sw	a5,68(sp)
     5c0:	114060ef          	jal	ra,66d4 <_localeconv_r>
     5c4:	00852783          	lw	a5,8(a0)
     5c8:	02f12c23          	sw	a5,56(sp)
     5cc:	00048463          	beqz	s1,5d4 <_vfprintf_r+0x428>
     5d0:	08c0106f          	j	165c <_vfprintf_r+0x14b0>
     5d4:	00044483          	lbu	s1,0(s0)
     5d8:	d75ff06f          	j	34c <_vfprintf_r+0x1a0>
     5dc:	00044483          	lbu	s1,0(s0)
     5e0:	020aea93          	ori	s5,s5,32
     5e4:	d69ff06f          	j	34c <_vfprintf_r+0x1a0>
     5e8:	417404b3          	sub	s1,s0,s7
     5ec:	cf741ee3          	bne	s0,s7,2e8 <_vfprintf_r+0x13c>
     5f0:	00044783          	lbu	a5,0(s0)
     5f4:	d31ff06f          	j	324 <_vfprintf_r+0x178>
     5f8:	0f410613          	addi	a2,sp,244
     5fc:	000c0593          	mv	a1,s8
     600:	000d0513          	mv	a0,s10
     604:	2040b0ef          	jal	ra,b808 <__sprint_r>
     608:	ee051ce3          	bnez	a0,500 <_vfprintf_r+0x354>
     60c:	11c10893          	addi	a7,sp,284
     610:	d05ff06f          	j	314 <_vfprintf_r+0x168>
     614:	008af793          	andi	a5,s5,8
     618:	000d8893          	mv	a7,s11
     61c:	00078463          	beqz	a5,624 <_vfprintf_r+0x478>
     620:	0780106f          	j	1698 <_vfprintf_r+0x14ec>
     624:	01412783          	lw	a5,20(sp)
     628:	0c010513          	addi	a0,sp,192
     62c:	01b12823          	sw	s11,16(sp)
     630:	00778793          	addi	a5,a5,7
     634:	ff87f793          	andi	a5,a5,-8
     638:	0007a583          	lw	a1,0(a5)
     63c:	0047a603          	lw	a2,4(a5)
     640:	00878793          	addi	a5,a5,8
     644:	00f12a23          	sw	a5,20(sp)
     648:	169130ef          	jal	ra,13fb0 <__extenddftf2>
     64c:	0c012783          	lw	a5,192(sp)
     650:	01012883          	lw	a7,16(sp)
     654:	10f12023          	sw	a5,256(sp)
     658:	0c412783          	lw	a5,196(sp)
     65c:	10f12223          	sw	a5,260(sp)
     660:	0c812783          	lw	a5,200(sp)
     664:	10f12423          	sw	a5,264(sp)
     668:	0cc12783          	lw	a5,204(sp)
     66c:	10f12623          	sw	a5,268(sp)
     670:	10010513          	addi	a0,sp,256
     674:	01112823          	sw	a7,16(sp)
     678:	7dd050ef          	jal	ra,6654 <_ldcheck>
     67c:	0ca12e23          	sw	a0,220(sp)
     680:	00200793          	li	a5,2
     684:	01012883          	lw	a7,16(sp)
     688:	00f51463          	bne	a0,a5,690 <_vfprintf_r+0x4e4>
     68c:	4540106f          	j	1ae0 <_vfprintf_r+0x1934>
     690:	00100793          	li	a5,1
     694:	00f51463          	bne	a0,a5,69c <_vfprintf_r+0x4f0>
     698:	5f80106f          	j	1c90 <_vfprintf_r+0x1ae4>
     69c:	06100793          	li	a5,97
     6a0:	00f49463          	bne	s1,a5,6a8 <_vfprintf_r+0x4fc>
     6a4:	2740206f          	j	2918 <_vfprintf_r+0x276c>
     6a8:	04100793          	li	a5,65
     6ac:	00f49463          	bne	s1,a5,6b4 <_vfprintf_r+0x508>
     6b0:	1890106f          	j	2038 <_vfprintf_r+0x1e8c>
     6b4:	fdf4f713          	andi	a4,s1,-33
     6b8:	fff00793          	li	a5,-1
     6bc:	02e12e23          	sw	a4,60(sp)
     6c0:	00fc9463          	bne	s9,a5,6c8 <_vfprintf_r+0x51c>
     6c4:	29c0206f          	j	2960 <_vfprintf_r+0x27b4>
     6c8:	04700793          	li	a5,71
     6cc:	00f71463          	bne	a4,a5,6d4 <_vfprintf_r+0x528>
     6d0:	2980206f          	j	2968 <_vfprintf_r+0x27bc>
     6d4:	10c12e03          	lw	t3,268(sp)
     6d8:	05512823          	sw	s5,80(sp)
     6dc:	10012e83          	lw	t4,256(sp)
     6e0:	10412f03          	lw	t5,260(sp)
     6e4:	10812f83          	lw	t6,264(sp)
     6e8:	100ae793          	ori	a5,s5,256
     6ec:	000e5463          	bgez	t3,6f4 <_vfprintf_r+0x548>
     6f0:	6190106f          	j	2508 <_vfprintf_r+0x235c>
     6f4:	06012423          	sw	zero,104(sp)
     6f8:	00078a93          	mv	s5,a5
     6fc:	00012823          	sw	zero,16(sp)
     700:	03c12703          	lw	a4,60(sp)
     704:	04600793          	li	a5,70
     708:	00f71463          	bne	a4,a5,710 <_vfprintf_r+0x564>
     70c:	6410106f          	j	254c <_vfprintf_r+0x23a0>
     710:	04500793          	li	a5,69
     714:	05112023          	sw	a7,64(sp)
     718:	00f71463          	bne	a4,a5,720 <_vfprintf_r+0x574>
     71c:	0e00206f          	j	27fc <_vfprintf_r+0x2650>
     720:	0c010b13          	addi	s6,sp,192
     724:	0e010793          	addi	a5,sp,224
     728:	0dc10713          	addi	a4,sp,220
     72c:	0ec10813          	addi	a6,sp,236
     730:	000c8693          	mv	a3,s9
     734:	00200613          	li	a2,2
     738:	000b0593          	mv	a1,s6
     73c:	000d0513          	mv	a0,s10
     740:	0dd12023          	sw	t4,192(sp)
     744:	03d12223          	sw	t4,36(sp)
     748:	0de12223          	sw	t5,196(sp)
     74c:	03e12023          	sw	t5,32(sp)
     750:	0df12423          	sw	t6,200(sp)
     754:	01f12e23          	sw	t6,28(sp)
     758:	0dc12623          	sw	t3,204(sp)
     75c:	01c12c23          	sw	t3,24(sp)
     760:	475040ef          	jal	ra,53d4 <_ldtoa_r>
     764:	03c12703          	lw	a4,60(sp)
     768:	04700793          	li	a5,71
     76c:	01812e03          	lw	t3,24(sp)
     770:	01c12f83          	lw	t6,28(sp)
     774:	02012f03          	lw	t5,32(sp)
     778:	02412e83          	lw	t4,36(sp)
     77c:	04012883          	lw	a7,64(sp)
     780:	00050b93          	mv	s7,a0
     784:	00f70463          	beq	a4,a5,78c <_vfprintf_r+0x5e0>
     788:	45c0206f          	j	2be4 <_vfprintf_r+0x2a38>
     78c:	05012783          	lw	a5,80(sp)
     790:	0017f793          	andi	a5,a5,1
     794:	00078463          	beqz	a5,79c <_vfprintf_r+0x5f0>
     798:	1bc0206f          	j	2954 <_vfprintf_r+0x27a8>
     79c:	0ec12783          	lw	a5,236(sp)
     7a0:	417787b3          	sub	a5,a5,s7
     7a4:	00f12e23          	sw	a5,28(sp)
     7a8:	0dc12703          	lw	a4,220(sp)
     7ac:	04700793          	li	a5,71
     7b0:	00e12c23          	sw	a4,24(sp)
     7b4:	03c12703          	lw	a4,60(sp)
     7b8:	00f71463          	bne	a4,a5,7c0 <_vfprintf_r+0x614>
     7bc:	4bd0106f          	j	2478 <_vfprintf_r+0x22cc>
     7c0:	03c12703          	lw	a4,60(sp)
     7c4:	04600793          	li	a5,70
     7c8:	00f71463          	bne	a4,a5,7d0 <_vfprintf_r+0x624>
     7cc:	7950106f          	j	2760 <_vfprintf_r+0x25b4>
     7d0:	01812783          	lw	a5,24(sp)
     7d4:	03c12583          	lw	a1,60(sp)
     7d8:	04100613          	li	a2,65
     7dc:	fff78793          	addi	a5,a5,-1
     7e0:	0cf12e23          	sw	a5,220(sp)
     7e4:	0ff4f713          	zext.b	a4,s1
     7e8:	00000693          	li	a3,0
     7ec:	00c59863          	bne	a1,a2,7fc <_vfprintf_r+0x650>
     7f0:	00f70713          	addi	a4,a4,15
     7f4:	0ff77713          	zext.b	a4,a4
     7f8:	00100693          	li	a3,1
     7fc:	0ee10223          	sb	a4,228(sp)
     800:	02b00713          	li	a4,43
     804:	0007da63          	bgez	a5,818 <_vfprintf_r+0x66c>
     808:	01812703          	lw	a4,24(sp)
     80c:	00100793          	li	a5,1
     810:	40e787b3          	sub	a5,a5,a4
     814:	02d00713          	li	a4,45
     818:	0ee102a3          	sb	a4,229(sp)
     81c:	00900713          	li	a4,9
     820:	00f74463          	blt	a4,a5,828 <_vfprintf_r+0x67c>
     824:	1e80206f          	j	2a0c <_vfprintf_r+0x2860>
     828:	0f310513          	addi	a0,sp,243
     82c:	00050593          	mv	a1,a0
     830:	00a00693          	li	a3,10
     834:	06300e13          	li	t3,99
     838:	02d7e733          	rem	a4,a5,a3
     83c:	00058613          	mv	a2,a1
     840:	00078813          	mv	a6,a5
     844:	fff58593          	addi	a1,a1,-1
     848:	03070713          	addi	a4,a4,48
     84c:	fee60fa3          	sb	a4,-1(a2)
     850:	02d7c7b3          	div	a5,a5,a3
     854:	ff0e42e3          	blt	t3,a6,838 <_vfprintf_r+0x68c>
     858:	03078793          	addi	a5,a5,48
     85c:	0ff7f693          	zext.b	a3,a5
     860:	fed58fa3          	sb	a3,-1(a1)
     864:	ffe60793          	addi	a5,a2,-2
     868:	00a7e463          	bltu	a5,a0,870 <_vfprintf_r+0x6c4>
     86c:	3900206f          	j	2bfc <_vfprintf_r+0x2a50>
     870:	0e610713          	addi	a4,sp,230
     874:	0080006f          	j	87c <_vfprintf_r+0x6d0>
     878:	0007c683          	lbu	a3,0(a5)
     87c:	00d70023          	sb	a3,0(a4)
     880:	00178793          	addi	a5,a5,1
     884:	00170713          	addi	a4,a4,1
     888:	fea798e3          	bne	a5,a0,878 <_vfprintf_r+0x6cc>
     88c:	0f510793          	addi	a5,sp,245
     890:	0e610713          	addi	a4,sp,230
     894:	40c787b3          	sub	a5,a5,a2
     898:	00f707b3          	add	a5,a4,a5
     89c:	0e410713          	addi	a4,sp,228
     8a0:	40e787b3          	sub	a5,a5,a4
     8a4:	02f12a23          	sw	a5,52(sp)
     8a8:	03412683          	lw	a3,52(sp)
     8ac:	01c12703          	lw	a4,28(sp)
     8b0:	00100793          	li	a5,1
     8b4:	00e68933          	add	s2,a3,a4
     8b8:	00e7c463          	blt	a5,a4,8c0 <_vfprintf_r+0x714>
     8bc:	2b40206f          	j	2b70 <_vfprintf_r+0x29c4>
     8c0:	02812783          	lw	a5,40(sp)
     8c4:	00f90933          	add	s2,s2,a5
     8c8:	05012783          	lw	a5,80(sp)
     8cc:	fff94b13          	not	s6,s2
     8d0:	41fb5b13          	srai	s6,s6,0x1f
     8d4:	bff7fa93          	andi	s5,a5,-1025
     8d8:	100aea93          	ori	s5,s5,256
     8dc:	01697b33          	and	s6,s2,s6
     8e0:	02012223          	sw	zero,36(sp)
     8e4:	02012023          	sw	zero,32(sp)
     8e8:	00012c23          	sw	zero,24(sp)
     8ec:	06812783          	lw	a5,104(sp)
     8f0:	00079463          	bnez	a5,8f8 <_vfprintf_r+0x74c>
     8f4:	3f90106f          	j	24ec <_vfprintf_r+0x2340>
     8f8:	02d00793          	li	a5,45
     8fc:	0cf10ba3          	sb	a5,215(sp)
     900:	00000c93          	li	s9,0
     904:	001b0b13          	addi	s6,s6,1
     908:	ad1ff06f          	j	3d8 <_vfprintf_r+0x22c>
     90c:	0f410613          	addi	a2,sp,244
     910:	000c0593          	mv	a1,s8
     914:	000d0513          	mv	a0,s10
     918:	05d12023          	sw	t4,64(sp)
     91c:	03e12e23          	sw	t5,60(sp)
     920:	6e90a0ef          	jal	ra,b808 <__sprint_r>
     924:	0e0516e3          	bnez	a0,1210 <_vfprintf_r+0x1064>
     928:	0fc12783          	lw	a5,252(sp)
     92c:	04012e83          	lw	t4,64(sp)
     930:	03c12f03          	lw	t5,60(sp)
     934:	11c10893          	addi	a7,sp,284
     938:	af9ff06f          	j	430 <_vfprintf_r+0x284>
     93c:	0f812703          	lw	a4,248(sp)
     940:	00178c93          	addi	s9,a5,1
     944:	01c12783          	lw	a5,28(sp)
     948:	00100693          	li	a3,1
     94c:	0178a023          	sw	s7,0(a7)
     950:	00170493          	addi	s1,a4,1
     954:	00888913          	addi	s2,a7,8
     958:	38f6dce3          	bge	a3,a5,14f0 <_vfprintf_r+0x1344>
     95c:	00100793          	li	a5,1
     960:	00f8a223          	sw	a5,4(a7)
     964:	0f912e23          	sw	s9,252(sp)
     968:	0e912c23          	sw	s1,248(sp)
     96c:	00700793          	li	a5,7
     970:	7697c2e3          	blt	a5,s1,18d4 <_vfprintf_r+0x1728>
     974:	02812783          	lw	a5,40(sp)
     978:	02c12703          	lw	a4,44(sp)
     97c:	00148493          	addi	s1,s1,1
     980:	00fc8cb3          	add	s9,s9,a5
     984:	00f92223          	sw	a5,4(s2)
     988:	00e92023          	sw	a4,0(s2)
     98c:	0f912e23          	sw	s9,252(sp)
     990:	0e912c23          	sw	s1,248(sp)
     994:	00700793          	li	a5,7
     998:	00890913          	addi	s2,s2,8
     99c:	7497cee3          	blt	a5,s1,18f8 <_vfprintf_r+0x174c>
     9a0:	10012783          	lw	a5,256(sp)
     9a4:	00148693          	addi	a3,s1,1
     9a8:	0b010593          	addi	a1,sp,176
     9ac:	0cf12023          	sw	a5,192(sp)
     9b0:	10412783          	lw	a5,260(sp)
     9b4:	0c010513          	addi	a0,sp,192
     9b8:	00d12c23          	sw	a3,24(sp)
     9bc:	0cf12223          	sw	a5,196(sp)
     9c0:	10812783          	lw	a5,264(sp)
     9c4:	0a012823          	sw	zero,176(sp)
     9c8:	0a012a23          	sw	zero,180(sp)
     9cc:	0cf12423          	sw	a5,200(sp)
     9d0:	10c12783          	lw	a5,268(sp)
     9d4:	0a012c23          	sw	zero,184(sp)
     9d8:	0a012e23          	sw	zero,188(sp)
     9dc:	0cf12623          	sw	a5,204(sp)
     9e0:	135100ef          	jal	ra,11314 <__eqtf2>
     9e4:	01812683          	lw	a3,24(sp)
     9e8:	01c12783          	lw	a5,28(sp)
     9ec:	00890893          	addi	a7,s2,8
     9f0:	00068713          	mv	a4,a3
     9f4:	fff78d93          	addi	s11,a5,-1
     9f8:	320500e3          	beqz	a0,1518 <_vfprintf_r+0x136c>
     9fc:	001b8813          	addi	a6,s7,1
     a00:	01bc8cb3          	add	s9,s9,s11
     a04:	01092023          	sw	a6,0(s2)
     a08:	01b92223          	sw	s11,4(s2)
     a0c:	0f912e23          	sw	s9,252(sp)
     a10:	0ed12c23          	sw	a3,248(sp)
     a14:	00700793          	li	a5,7
     a18:	52d7c2e3          	blt	a5,a3,173c <_vfprintf_r+0x1590>
     a1c:	01090793          	addi	a5,s2,16
     a20:	00248713          	addi	a4,s1,2
     a24:	00088913          	mv	s2,a7
     a28:	00078893          	mv	a7,a5
     a2c:	03412603          	lw	a2,52(sp)
     a30:	0e410693          	addi	a3,sp,228
     a34:	00d92023          	sw	a3,0(s2)
     a38:	019607b3          	add	a5,a2,s9
     a3c:	00c92223          	sw	a2,4(s2)
     a40:	0ef12e23          	sw	a5,252(sp)
     a44:	0ee12c23          	sw	a4,248(sp)
     a48:	00700693          	li	a3,7
     a4c:	a4e6dce3          	bge	a3,a4,4a4 <_vfprintf_r+0x2f8>
     a50:	0f410613          	addi	a2,sp,244
     a54:	000c0593          	mv	a1,s8
     a58:	000d0513          	mv	a0,s10
     a5c:	5ad0a0ef          	jal	ra,b808 <__sprint_r>
     a60:	7a051863          	bnez	a0,1210 <_vfprintf_r+0x1064>
     a64:	0fc12783          	lw	a5,252(sp)
     a68:	11c10893          	addi	a7,sp,284
     a6c:	a39ff06f          	j	4a4 <_vfprintf_r+0x2f8>
     a70:	0f812703          	lw	a4,248(sp)
     a74:	0001fd97          	auipc	s11,0x1f
     a78:	7ecd8d93          	addi	s11,s11,2028 # 20260 <blanks.1>
     a7c:	00700913          	li	s2,7
     a80:	009a4863          	blt	s4,s1,a90 <_vfprintf_r+0x8e4>
     a84:	0540006f          	j	ad8 <_vfprintf_r+0x92c>
     a88:	ff048493          	addi	s1,s1,-16
     a8c:	049a5663          	bge	s4,s1,ad8 <_vfprintf_r+0x92c>
     a90:	01078793          	addi	a5,a5,16
     a94:	00170713          	addi	a4,a4,1
     a98:	01b8a023          	sw	s11,0(a7)
     a9c:	0148a223          	sw	s4,4(a7)
     aa0:	0ef12e23          	sw	a5,252(sp)
     aa4:	0ee12c23          	sw	a4,248(sp)
     aa8:	00888893          	addi	a7,a7,8
     aac:	fce95ee3          	bge	s2,a4,a88 <_vfprintf_r+0x8dc>
     ab0:	0f410613          	addi	a2,sp,244
     ab4:	000c0593          	mv	a1,s8
     ab8:	000d0513          	mv	a0,s10
     abc:	54d0a0ef          	jal	ra,b808 <__sprint_r>
     ac0:	74051863          	bnez	a0,1210 <_vfprintf_r+0x1064>
     ac4:	ff048493          	addi	s1,s1,-16
     ac8:	0fc12783          	lw	a5,252(sp)
     acc:	0f812703          	lw	a4,248(sp)
     ad0:	11c10893          	addi	a7,sp,284
     ad4:	fa9a4ee3          	blt	s4,s1,a90 <_vfprintf_r+0x8e4>
     ad8:	009787b3          	add	a5,a5,s1
     adc:	00170713          	addi	a4,a4,1
     ae0:	01b8a023          	sw	s11,0(a7)
     ae4:	0098a223          	sw	s1,4(a7)
     ae8:	0ef12e23          	sw	a5,252(sp)
     aec:	0ee12c23          	sw	a4,248(sp)
     af0:	00700693          	li	a3,7
     af4:	9ce6d0e3          	bge	a3,a4,4b4 <_vfprintf_r+0x308>
     af8:	0f410613          	addi	a2,sp,244
     afc:	000c0593          	mv	a1,s8
     b00:	000d0513          	mv	a0,s10
     b04:	5050a0ef          	jal	ra,b808 <__sprint_r>
     b08:	70051463          	bnez	a0,1210 <_vfprintf_r+0x1064>
     b0c:	0fc12783          	lw	a5,252(sp)
     b10:	9a5ff06f          	j	4b4 <_vfprintf_r+0x308>
     b14:	000d0513          	mv	a0,s10
     b18:	1e1020ef          	jal	ra,34f8 <__sinit>
     b1c:	f0cff06f          	j	228 <_vfprintf_r+0x7c>
     b20:	01412703          	lw	a4,20(sp)
     b24:	000d8893          	mv	a7,s11
     b28:	0c010ba3          	sb	zero,215(sp)
     b2c:	00072783          	lw	a5,0(a4)
     b30:	00470713          	addi	a4,a4,4
     b34:	00e12a23          	sw	a4,20(sp)
     b38:	14f10e23          	sb	a5,348(sp)
     b3c:	00100b13          	li	s6,1
     b40:	00100913          	li	s2,1
     b44:	15c10b93          	addi	s7,sp,348
     b48:	87dff06f          	j	3c4 <_vfprintf_r+0x218>
     b4c:	01412783          	lw	a5,20(sp)
     b50:	0c010ba3          	sb	zero,215(sp)
     b54:	000d8893          	mv	a7,s11
     b58:	0007ab83          	lw	s7,0(a5)
     b5c:	00478d93          	addi	s11,a5,4
     b60:	4c0b88e3          	beqz	s7,1830 <_vfprintf_r+0x1684>
     b64:	fff00793          	li	a5,-1
     b68:	00fc9463          	bne	s9,a5,b70 <_vfprintf_r+0x9c4>
     b6c:	0640106f          	j	1bd0 <_vfprintf_r+0x1a24>
     b70:	000c8613          	mv	a2,s9
     b74:	00000593          	li	a1,0
     b78:	000b8513          	mv	a0,s7
     b7c:	01112a23          	sw	a7,20(sp)
     b80:	710060ef          	jal	ra,7290 <memchr>
     b84:	00a12823          	sw	a0,16(sp)
     b88:	01412883          	lw	a7,20(sp)
     b8c:	00051463          	bnez	a0,b94 <_vfprintf_r+0x9e8>
     b90:	3410106f          	j	26d0 <_vfprintf_r+0x2524>
     b94:	01012783          	lw	a5,16(sp)
     b98:	01b12a23          	sw	s11,20(sp)
     b9c:	00012823          	sw	zero,16(sp)
     ba0:	41778933          	sub	s2,a5,s7
     ba4:	0d714783          	lbu	a5,215(sp)
     ba8:	fff94b13          	not	s6,s2
     bac:	41fb5b13          	srai	s6,s6,0x1f
     bb0:	02012223          	sw	zero,36(sp)
     bb4:	02012023          	sw	zero,32(sp)
     bb8:	00012c23          	sw	zero,24(sp)
     bbc:	01697b33          	and	s6,s2,s6
     bc0:	00000c93          	li	s9,0
     bc4:	80078ae3          	beqz	a5,3d8 <_vfprintf_r+0x22c>
     bc8:	001b0b13          	addi	s6,s6,1
     bcc:	80dff06f          	j	3d8 <_vfprintf_r+0x22c>
     bd0:	00044483          	lbu	s1,0(s0)
     bd4:	06800793          	li	a5,104
     bd8:	3ef48ee3          	beq	s1,a5,17d4 <_vfprintf_r+0x1628>
     bdc:	040aea93          	ori	s5,s5,64
     be0:	f6cff06f          	j	34c <_vfprintf_r+0x1a0>
     be4:	01412683          	lw	a3,20(sp)
     be8:	020af793          	andi	a5,s5,32
     bec:	000d8893          	mv	a7,s11
     bf0:	0006a703          	lw	a4,0(a3)
     bf4:	00468693          	addi	a3,a3,4
     bf8:	00d12a23          	sw	a3,20(sp)
     bfc:	280792e3          	bnez	a5,1680 <_vfprintf_r+0x14d4>
     c00:	010af793          	andi	a5,s5,16
     c04:	74079ee3          	bnez	a5,1b60 <_vfprintf_r+0x19b4>
     c08:	040af793          	andi	a5,s5,64
     c0c:	00078463          	beqz	a5,c14 <_vfprintf_r+0xa68>
     c10:	3780106f          	j	1f88 <_vfprintf_r+0x1ddc>
     c14:	200afa93          	andi	s5,s5,512
     c18:	740a84e3          	beqz	s5,1b60 <_vfprintf_r+0x19b4>
     c1c:	00c12783          	lw	a5,12(sp)
     c20:	00040b93          	mv	s7,s0
     c24:	00f70023          	sb	a5,0(a4)
     c28:	8c5ff06f          	j	4ec <_vfprintf_r+0x340>
     c2c:	00044483          	lbu	s1,0(s0)
     c30:	06c00793          	li	a5,108
     c34:	3ef486e3          	beq	s1,a5,1820 <_vfprintf_r+0x1674>
     c38:	010aea93          	ori	s5,s5,16
     c3c:	f10ff06f          	j	34c <_vfprintf_r+0x1a0>
     c40:	01412703          	lw	a4,20(sp)
     c44:	ffff87b7          	lui	a5,0xffff8
     c48:	8307c793          	xori	a5,a5,-2000
     c4c:	000d8893          	mv	a7,s11
     c50:	0cf11c23          	sh	a5,216(sp)
     c54:	00072d83          	lw	s11,0(a4)
     c58:	00470793          	addi	a5,a4,4
     c5c:	00f12a23          	sw	a5,20(sp)
     c60:	0001f797          	auipc	a5,0x1f
     c64:	43078793          	addi	a5,a5,1072 # 20090 <__malloc_trim_threshold+0x58>
     c68:	02f12823          	sw	a5,48(sp)
     c6c:	00000913          	li	s2,0
     c70:	002aeb13          	ori	s6,s5,2
     c74:	00200793          	li	a5,2
     c78:	07800493          	li	s1,120
     c7c:	0c010ba3          	sb	zero,215(sp)
     c80:	fff00693          	li	a3,-1
     c84:	20dc8263          	beq	s9,a3,e88 <_vfprintf_r+0xcdc>
     c88:	012de6b3          	or	a3,s11,s2
     c8c:	f7fb7a93          	andi	s5,s6,-129
     c90:	1e069a63          	bnez	a3,e84 <_vfprintf_r+0xcd8>
     c94:	260c9063          	bnez	s9,ef4 <_vfprintf_r+0xd48>
     c98:	10079863          	bnez	a5,da8 <_vfprintf_r+0xbfc>
     c9c:	001b7913          	andi	s2,s6,1
     ca0:	1c010b93          	addi	s7,sp,448
     ca4:	1a0914e3          	bnez	s2,164c <_vfprintf_r+0x14a0>
     ca8:	0d714783          	lbu	a5,215(sp)
     cac:	000c8b13          	mv	s6,s9
     cb0:	012cd463          	bge	s9,s2,cb8 <_vfprintf_r+0xb0c>
     cb4:	00090b13          	mv	s6,s2
     cb8:	00012823          	sw	zero,16(sp)
     cbc:	02012223          	sw	zero,36(sp)
     cc0:	02012023          	sw	zero,32(sp)
     cc4:	00012c23          	sw	zero,24(sp)
     cc8:	f00790e3          	bnez	a5,bc8 <_vfprintf_r+0xa1c>
     ccc:	f0cff06f          	j	3d8 <_vfprintf_r+0x22c>
     cd0:	000d8893          	mv	a7,s11
     cd4:	010aea93          	ori	s5,s5,16
     cd8:	020af793          	andi	a5,s5,32
     cdc:	0a0784e3          	beqz	a5,1584 <_vfprintf_r+0x13d8>
     ce0:	01412783          	lw	a5,20(sp)
     ce4:	00778b93          	addi	s7,a5,7
     ce8:	ff8bfb93          	andi	s7,s7,-8
     cec:	000bad83          	lw	s11,0(s7)
     cf0:	004ba903          	lw	s2,4(s7)
     cf4:	008b8793          	addi	a5,s7,8
     cf8:	00f12a23          	sw	a5,20(sp)
     cfc:	bffafb13          	andi	s6,s5,-1025
     d00:	00000793          	li	a5,0
     d04:	f79ff06f          	j	c7c <_vfprintf_r+0xad0>
     d08:	000d8893          	mv	a7,s11
     d0c:	010aeb13          	ori	s6,s5,16
     d10:	020b7793          	andi	a5,s6,32
     d14:	0e0788e3          	beqz	a5,1604 <_vfprintf_r+0x1458>
     d18:	01412783          	lw	a5,20(sp)
     d1c:	00778b93          	addi	s7,a5,7
     d20:	ff8bfb93          	andi	s7,s7,-8
     d24:	008b8793          	addi	a5,s7,8
     d28:	00f12a23          	sw	a5,20(sp)
     d2c:	000bad83          	lw	s11,0(s7)
     d30:	004ba903          	lw	s2,4(s7)
     d34:	00100793          	li	a5,1
     d38:	f45ff06f          	j	c7c <_vfprintf_r+0xad0>
     d3c:	00044483          	lbu	s1,0(s0)
     d40:	080aea93          	ori	s5,s5,128
     d44:	e08ff06f          	j	34c <_vfprintf_r+0x1a0>
     d48:	00044483          	lbu	s1,0(s0)
     d4c:	008aea93          	ori	s5,s5,8
     d50:	dfcff06f          	j	34c <_vfprintf_r+0x1a0>
     d54:	000d8893          	mv	a7,s11
     d58:	010aea93          	ori	s5,s5,16
     d5c:	020af793          	andi	a5,s5,32
     d60:	040788e3          	beqz	a5,15b0 <_vfprintf_r+0x1404>
     d64:	01412783          	lw	a5,20(sp)
     d68:	00778b93          	addi	s7,a5,7
     d6c:	ff8bfb93          	andi	s7,s7,-8
     d70:	004ba783          	lw	a5,4(s7)
     d74:	000bad83          	lw	s11,0(s7)
     d78:	008b8713          	addi	a4,s7,8
     d7c:	00e12a23          	sw	a4,20(sp)
     d80:	00078913          	mv	s2,a5
     d84:	0407cee3          	bltz	a5,15e0 <_vfprintf_r+0x1434>
     d88:	fff00793          	li	a5,-1
     d8c:	000a8b13          	mv	s6,s5
     d90:	02fc8463          	beq	s9,a5,db8 <_vfprintf_r+0xc0c>
     d94:	012de7b3          	or	a5,s11,s2
     d98:	f7fafb13          	andi	s6,s5,-129
     d9c:	00079e63          	bnez	a5,db8 <_vfprintf_r+0xc0c>
     da0:	020c9263          	bnez	s9,dc4 <_vfprintf_r+0xc18>
     da4:	000b0a93          	mv	s5,s6
     da8:	00000c93          	li	s9,0
     dac:	00000913          	li	s2,0
     db0:	1c010b93          	addi	s7,sp,448
     db4:	ef5ff06f          	j	ca8 <_vfprintf_r+0xafc>
     db8:	360912e3          	bnez	s2,191c <_vfprintf_r+0x1770>
     dbc:	00900793          	li	a5,9
     dc0:	35b7eee3          	bltu	a5,s11,191c <_vfprintf_r+0x1770>
     dc4:	030d8d93          	addi	s11,s11,48
     dc8:	1bb10fa3          	sb	s11,447(sp)
     dcc:	000b0a93          	mv	s5,s6
     dd0:	00100913          	li	s2,1
     dd4:	1bf10b93          	addi	s7,sp,447
     dd8:	ed1ff06f          	j	ca8 <_vfprintf_r+0xafc>
     ddc:	01412783          	lw	a5,20(sp)
     de0:	00044483          	lbu	s1,0(s0)
     de4:	0007a983          	lw	s3,0(a5)
     de8:	00478793          	addi	a5,a5,4
     dec:	00f12a23          	sw	a5,20(sp)
     df0:	d409de63          	bgez	s3,34c <_vfprintf_r+0x1a0>
     df4:	413009b3          	neg	s3,s3
     df8:	004aea93          	ori	s5,s5,4
     dfc:	d50ff06f          	j	34c <_vfprintf_r+0x1a0>
     e00:	00044483          	lbu	s1,0(s0)
     e04:	001aea93          	ori	s5,s5,1
     e08:	d44ff06f          	j	34c <_vfprintf_r+0x1a0>
     e0c:	0d714783          	lbu	a5,215(sp)
     e10:	00044483          	lbu	s1,0(s0)
     e14:	d2079c63          	bnez	a5,34c <_vfprintf_r+0x1a0>
     e18:	02000793          	li	a5,32
     e1c:	0cf10ba3          	sb	a5,215(sp)
     e20:	d2cff06f          	j	34c <_vfprintf_r+0x1a0>
     e24:	00044483          	lbu	s1,0(s0)
     e28:	004aea93          	ori	s5,s5,4
     e2c:	d20ff06f          	j	34c <_vfprintf_r+0x1a0>
     e30:	02b00793          	li	a5,43
     e34:	00044483          	lbu	s1,0(s0)
     e38:	0cf10ba3          	sb	a5,215(sp)
     e3c:	d10ff06f          	j	34c <_vfprintf_r+0x1a0>
     e40:	00044483          	lbu	s1,0(s0)
     e44:	00140693          	addi	a3,s0,1
     e48:	01649463          	bne	s1,s6,e50 <_vfprintf_r+0xca4>
     e4c:	5750106f          	j	2bc0 <_vfprintf_r+0x2a14>
     e50:	fd048613          	addi	a2,s1,-48
     e54:	00068413          	mv	s0,a3
     e58:	00000c93          	li	s9,0
     e5c:	cec96c63          	bltu	s2,a2,354 <_vfprintf_r+0x1a8>
     e60:	00044483          	lbu	s1,0(s0)
     e64:	002c9793          	slli	a5,s9,0x2
     e68:	019787b3          	add	a5,a5,s9
     e6c:	00179793          	slli	a5,a5,0x1
     e70:	00c78cb3          	add	s9,a5,a2
     e74:	fd048613          	addi	a2,s1,-48
     e78:	00140413          	addi	s0,s0,1
     e7c:	fec972e3          	bgeu	s2,a2,e60 <_vfprintf_r+0xcb4>
     e80:	cd4ff06f          	j	354 <_vfprintf_r+0x1a8>
     e84:	000a8b13          	mv	s6,s5
     e88:	00100693          	li	a3,1
     e8c:	f2d786e3          	beq	a5,a3,db8 <_vfprintf_r+0xc0c>
     e90:	00200693          	li	a3,2
     e94:	06d78c63          	beq	a5,a3,f0c <_vfprintf_r+0xd60>
     e98:	1c010b93          	addi	s7,sp,448
     e9c:	01d91713          	slli	a4,s2,0x1d
     ea0:	007df793          	andi	a5,s11,7
     ea4:	003ddd93          	srli	s11,s11,0x3
     ea8:	03078793          	addi	a5,a5,48
     eac:	01b76db3          	or	s11,a4,s11
     eb0:	00395913          	srli	s2,s2,0x3
     eb4:	fefb8fa3          	sb	a5,-1(s7)
     eb8:	012de733          	or	a4,s11,s2
     ebc:	000b8613          	mv	a2,s7
     ec0:	fffb8b93          	addi	s7,s7,-1
     ec4:	fc071ce3          	bnez	a4,e9c <_vfprintf_r+0xcf0>
     ec8:	001b7693          	andi	a3,s6,1
     ecc:	06068a63          	beqz	a3,f40 <_vfprintf_r+0xd94>
     ed0:	03000693          	li	a3,48
     ed4:	06d78663          	beq	a5,a3,f40 <_vfprintf_r+0xd94>
     ed8:	ffe60613          	addi	a2,a2,-2
     edc:	1c010793          	addi	a5,sp,448
     ee0:	fedb8fa3          	sb	a3,-1(s7)
     ee4:	40c78933          	sub	s2,a5,a2
     ee8:	000b0a93          	mv	s5,s6
     eec:	00060b93          	mv	s7,a2
     ef0:	db9ff06f          	j	ca8 <_vfprintf_r+0xafc>
     ef4:	00100713          	li	a4,1
     ef8:	00e79463          	bne	a5,a4,f00 <_vfprintf_r+0xd54>
     efc:	22d0106f          	j	2928 <_vfprintf_r+0x277c>
     f00:	00200713          	li	a4,2
     f04:	000a8b13          	mv	s6,s5
     f08:	f8e798e3          	bne	a5,a4,e98 <_vfprintf_r+0xcec>
     f0c:	03012683          	lw	a3,48(sp)
     f10:	1c010b93          	addi	s7,sp,448
     f14:	00fdf793          	andi	a5,s11,15
     f18:	00f687b3          	add	a5,a3,a5
     f1c:	0007c703          	lbu	a4,0(a5)
     f20:	004ddd93          	srli	s11,s11,0x4
     f24:	01c91793          	slli	a5,s2,0x1c
     f28:	01b7edb3          	or	s11,a5,s11
     f2c:	00495913          	srli	s2,s2,0x4
     f30:	feeb8fa3          	sb	a4,-1(s7)
     f34:	012de7b3          	or	a5,s11,s2
     f38:	fffb8b93          	addi	s7,s7,-1
     f3c:	fc079ce3          	bnez	a5,f14 <_vfprintf_r+0xd68>
     f40:	1c010793          	addi	a5,sp,448
     f44:	41778933          	sub	s2,a5,s7
     f48:	000b0a93          	mv	s5,s6
     f4c:	d5dff06f          	j	ca8 <_vfprintf_r+0xafc>
     f50:	06500713          	li	a4,101
     f54:	9e9754e3          	bge	a4,s1,93c <_vfprintf_r+0x790>
     f58:	10012703          	lw	a4,256(sp)
     f5c:	0b010593          	addi	a1,sp,176
     f60:	0c010513          	addi	a0,sp,192
     f64:	0ce12023          	sw	a4,192(sp)
     f68:	10412703          	lw	a4,260(sp)
     f6c:	05112023          	sw	a7,64(sp)
     f70:	02f12e23          	sw	a5,60(sp)
     f74:	0ce12223          	sw	a4,196(sp)
     f78:	10812703          	lw	a4,264(sp)
     f7c:	0a012823          	sw	zero,176(sp)
     f80:	0a012a23          	sw	zero,180(sp)
     f84:	0ce12423          	sw	a4,200(sp)
     f88:	10c12703          	lw	a4,268(sp)
     f8c:	0a012c23          	sw	zero,184(sp)
     f90:	0a012e23          	sw	zero,188(sp)
     f94:	0ce12623          	sw	a4,204(sp)
     f98:	37c100ef          	jal	ra,11314 <__eqtf2>
     f9c:	03c12783          	lw	a5,60(sp)
     fa0:	04012883          	lw	a7,64(sp)
     fa4:	3c051863          	bnez	a0,1374 <_vfprintf_r+0x11c8>
     fa8:	0f812703          	lw	a4,248(sp)
     fac:	0001f697          	auipc	a3,0x1f
     fb0:	11468693          	addi	a3,a3,276 # 200c0 <__malloc_trim_threshold+0x88>
     fb4:	00d8a023          	sw	a3,0(a7)
     fb8:	00178793          	addi	a5,a5,1
     fbc:	00100693          	li	a3,1
     fc0:	00170713          	addi	a4,a4,1
     fc4:	00d8a223          	sw	a3,4(a7)
     fc8:	0ef12e23          	sw	a5,252(sp)
     fcc:	0ee12c23          	sw	a4,248(sp)
     fd0:	00700693          	li	a3,7
     fd4:	00888893          	addi	a7,a7,8
     fd8:	2ae6cce3          	blt	a3,a4,1a90 <_vfprintf_r+0x18e4>
     fdc:	0dc12703          	lw	a4,220(sp)
     fe0:	01c12683          	lw	a3,28(sp)
     fe4:	64d75863          	bge	a4,a3,1634 <_vfprintf_r+0x1488>
     fe8:	02c12703          	lw	a4,44(sp)
     fec:	02812683          	lw	a3,40(sp)
     ff0:	00888893          	addi	a7,a7,8
     ff4:	fee8ac23          	sw	a4,-8(a7)
     ff8:	0f812703          	lw	a4,248(sp)
     ffc:	00d787b3          	add	a5,a5,a3
    1000:	fed8ae23          	sw	a3,-4(a7)
    1004:	00170713          	addi	a4,a4,1
    1008:	0ef12e23          	sw	a5,252(sp)
    100c:	0ee12c23          	sw	a4,248(sp)
    1010:	00700693          	li	a3,7
    1014:	7ee6c663          	blt	a3,a4,1800 <_vfprintf_r+0x1654>
    1018:	01c12703          	lw	a4,28(sp)
    101c:	fff70493          	addi	s1,a4,-1
    1020:	c8905263          	blez	s1,4a4 <_vfprintf_r+0x2f8>
    1024:	0f812703          	lw	a4,248(sp)
    1028:	289a54e3          	bge	s4,s1,1ab0 <_vfprintf_r+0x1904>
    102c:	00700913          	li	s2,7
    1030:	00c0006f          	j	103c <_vfprintf_r+0xe90>
    1034:	ff048493          	addi	s1,s1,-16
    1038:	269a5ce3          	bge	s4,s1,1ab0 <_vfprintf_r+0x1904>
    103c:	01078793          	addi	a5,a5,16
    1040:	00170713          	addi	a4,a4,1
    1044:	0001f697          	auipc	a3,0x1f
    1048:	22c68693          	addi	a3,a3,556 # 20270 <zeroes.0>
    104c:	00d8a023          	sw	a3,0(a7)
    1050:	0148a223          	sw	s4,4(a7)
    1054:	0ef12e23          	sw	a5,252(sp)
    1058:	0ee12c23          	sw	a4,248(sp)
    105c:	00888893          	addi	a7,a7,8
    1060:	fce95ae3          	bge	s2,a4,1034 <_vfprintf_r+0xe88>
    1064:	0f410613          	addi	a2,sp,244
    1068:	000c0593          	mv	a1,s8
    106c:	000d0513          	mv	a0,s10
    1070:	7980a0ef          	jal	ra,b808 <__sprint_r>
    1074:	18051e63          	bnez	a0,1210 <_vfprintf_r+0x1064>
    1078:	0fc12783          	lw	a5,252(sp)
    107c:	0f812703          	lw	a4,248(sp)
    1080:	11c10893          	addi	a7,sp,284
    1084:	fb1ff06f          	j	1034 <_vfprintf_r+0xe88>
    1088:	41698db3          	sub	s11,s3,s6
    108c:	bfb05063          	blez	s11,46c <_vfprintf_r+0x2c0>
    1090:	0f812703          	lw	a4,248(sp)
    1094:	07ba5463          	bge	s4,s11,10fc <_vfprintf_r+0xf50>
    1098:	00700e13          	li	t3,7
    109c:	00c0006f          	j	10a8 <_vfprintf_r+0xefc>
    10a0:	ff0d8d93          	addi	s11,s11,-16
    10a4:	05ba5c63          	bge	s4,s11,10fc <_vfprintf_r+0xf50>
    10a8:	01078793          	addi	a5,a5,16
    10ac:	00170713          	addi	a4,a4,1
    10b0:	0001f697          	auipc	a3,0x1f
    10b4:	1c068693          	addi	a3,a3,448 # 20270 <zeroes.0>
    10b8:	00d8a023          	sw	a3,0(a7)
    10bc:	0148a223          	sw	s4,4(a7)
    10c0:	0ef12e23          	sw	a5,252(sp)
    10c4:	0ee12c23          	sw	a4,248(sp)
    10c8:	00888893          	addi	a7,a7,8
    10cc:	fcee5ae3          	bge	t3,a4,10a0 <_vfprintf_r+0xef4>
    10d0:	0f410613          	addi	a2,sp,244
    10d4:	000c0593          	mv	a1,s8
    10d8:	000d0513          	mv	a0,s10
    10dc:	72c0a0ef          	jal	ra,b808 <__sprint_r>
    10e0:	12051863          	bnez	a0,1210 <_vfprintf_r+0x1064>
    10e4:	ff0d8d93          	addi	s11,s11,-16
    10e8:	0fc12783          	lw	a5,252(sp)
    10ec:	0f812703          	lw	a4,248(sp)
    10f0:	11c10893          	addi	a7,sp,284
    10f4:	00700e13          	li	t3,7
    10f8:	fbba48e3          	blt	s4,s11,10a8 <_vfprintf_r+0xefc>
    10fc:	0001f697          	auipc	a3,0x1f
    1100:	17468693          	addi	a3,a3,372 # 20270 <zeroes.0>
    1104:	01b787b3          	add	a5,a5,s11
    1108:	00170713          	addi	a4,a4,1
    110c:	00d8a023          	sw	a3,0(a7)
    1110:	01b8a223          	sw	s11,4(a7)
    1114:	0ef12e23          	sw	a5,252(sp)
    1118:	0ee12c23          	sw	a4,248(sp)
    111c:	00700693          	li	a3,7
    1120:	00888893          	addi	a7,a7,8
    1124:	b4e6d463          	bge	a3,a4,46c <_vfprintf_r+0x2c0>
    1128:	0f410613          	addi	a2,sp,244
    112c:	000c0593          	mv	a1,s8
    1130:	000d0513          	mv	a0,s10
    1134:	6d40a0ef          	jal	ra,b808 <__sprint_r>
    1138:	0c051c63          	bnez	a0,1210 <_vfprintf_r+0x1064>
    113c:	0fc12783          	lw	a5,252(sp)
    1140:	11c10893          	addi	a7,sp,284
    1144:	b28ff06f          	j	46c <_vfprintf_r+0x2c0>
    1148:	0f812703          	lw	a4,248(sp)
    114c:	079a5263          	bge	s4,s9,11b0 <_vfprintf_r+0x1004>
    1150:	00700d93          	li	s11,7
    1154:	00c0006f          	j	1160 <_vfprintf_r+0xfb4>
    1158:	ff0c8c93          	addi	s9,s9,-16
    115c:	059a5a63          	bge	s4,s9,11b0 <_vfprintf_r+0x1004>
    1160:	01078793          	addi	a5,a5,16
    1164:	00170713          	addi	a4,a4,1
    1168:	0001f697          	auipc	a3,0x1f
    116c:	10868693          	addi	a3,a3,264 # 20270 <zeroes.0>
    1170:	00d8a023          	sw	a3,0(a7)
    1174:	0148a223          	sw	s4,4(a7)
    1178:	0ef12e23          	sw	a5,252(sp)
    117c:	0ee12c23          	sw	a4,248(sp)
    1180:	00888893          	addi	a7,a7,8
    1184:	fceddae3          	bge	s11,a4,1158 <_vfprintf_r+0xfac>
    1188:	0f410613          	addi	a2,sp,244
    118c:	000c0593          	mv	a1,s8
    1190:	000d0513          	mv	a0,s10
    1194:	6740a0ef          	jal	ra,b808 <__sprint_r>
    1198:	06051c63          	bnez	a0,1210 <_vfprintf_r+0x1064>
    119c:	ff0c8c93          	addi	s9,s9,-16
    11a0:	0fc12783          	lw	a5,252(sp)
    11a4:	0f812703          	lw	a4,248(sp)
    11a8:	11c10893          	addi	a7,sp,284
    11ac:	fb9a4ae3          	blt	s4,s9,1160 <_vfprintf_r+0xfb4>
    11b0:	0001f697          	auipc	a3,0x1f
    11b4:	0c068693          	addi	a3,a3,192 # 20270 <zeroes.0>
    11b8:	019787b3          	add	a5,a5,s9
    11bc:	00170713          	addi	a4,a4,1
    11c0:	00d8a023          	sw	a3,0(a7)
    11c4:	0198a223          	sw	s9,4(a7)
    11c8:	0ef12e23          	sw	a5,252(sp)
    11cc:	0ee12c23          	sw	a4,248(sp)
    11d0:	00700693          	li	a3,7
    11d4:	00888893          	addi	a7,a7,8
    11d8:	a8e6de63          	bge	a3,a4,474 <_vfprintf_r+0x2c8>
    11dc:	0f410613          	addi	a2,sp,244
    11e0:	000c0593          	mv	a1,s8
    11e4:	000d0513          	mv	a0,s10
    11e8:	6200a0ef          	jal	ra,b808 <__sprint_r>
    11ec:	02051263          	bnez	a0,1210 <_vfprintf_r+0x1064>
    11f0:	0fc12783          	lw	a5,252(sp)
    11f4:	11c10893          	addi	a7,sp,284
    11f8:	a7cff06f          	j	474 <_vfprintf_r+0x2c8>
    11fc:	0f410613          	addi	a2,sp,244
    1200:	000c0593          	mv	a1,s8
    1204:	000d0513          	mv	a0,s10
    1208:	6000a0ef          	jal	ra,b808 <__sprint_r>
    120c:	ac050063          	beqz	a0,4cc <_vfprintf_r+0x320>
    1210:	01012583          	lw	a1,16(sp)
    1214:	ae058663          	beqz	a1,500 <_vfprintf_r+0x354>
    1218:	000d0513          	mv	a0,s10
    121c:	464020ef          	jal	ra,3680 <_free_r>
    1220:	ae0ff06f          	j	500 <_vfprintf_r+0x354>
    1224:	0f812703          	lw	a4,248(sp)
    1228:	0001fd97          	auipc	s11,0x1f
    122c:	038d8d93          	addi	s11,s11,56 # 20260 <blanks.1>
    1230:	0cda5463          	bge	s4,a3,12f8 <_vfprintf_r+0x114c>
    1234:	04812623          	sw	s0,76(sp)
    1238:	000d0413          	mv	s0,s10
    123c:	00068d13          	mv	s10,a3
    1240:	000d8693          	mv	a3,s11
    1244:	00700f93          	li	t6,7
    1248:	000b0d93          	mv	s11,s6
    124c:	03e12e23          	sw	t5,60(sp)
    1250:	00098b13          	mv	s6,s3
    1254:	05d12023          	sw	t4,64(sp)
    1258:	00048993          	mv	s3,s1
    125c:	000c0493          	mv	s1,s8
    1260:	000b8c13          	mv	s8,s7
    1264:	00090b93          	mv	s7,s2
    1268:	00068913          	mv	s2,a3
    126c:	00c0006f          	j	1278 <_vfprintf_r+0x10cc>
    1270:	ff0d0d13          	addi	s10,s10,-16
    1274:	05aa5863          	bge	s4,s10,12c4 <_vfprintf_r+0x1118>
    1278:	01078793          	addi	a5,a5,16
    127c:	00170713          	addi	a4,a4,1
    1280:	0128a023          	sw	s2,0(a7)
    1284:	0148a223          	sw	s4,4(a7)
    1288:	0ef12e23          	sw	a5,252(sp)
    128c:	0ee12c23          	sw	a4,248(sp)
    1290:	00888893          	addi	a7,a7,8
    1294:	fcefdee3          	bge	t6,a4,1270 <_vfprintf_r+0x10c4>
    1298:	0f410613          	addi	a2,sp,244
    129c:	00048593          	mv	a1,s1
    12a0:	00040513          	mv	a0,s0
    12a4:	5640a0ef          	jal	ra,b808 <__sprint_r>
    12a8:	7c051063          	bnez	a0,1a68 <_vfprintf_r+0x18bc>
    12ac:	ff0d0d13          	addi	s10,s10,-16
    12b0:	0fc12783          	lw	a5,252(sp)
    12b4:	0f812703          	lw	a4,248(sp)
    12b8:	11c10893          	addi	a7,sp,284
    12bc:	00700f93          	li	t6,7
    12c0:	fbaa4ce3          	blt	s4,s10,1278 <_vfprintf_r+0x10cc>
    12c4:	000d0693          	mv	a3,s10
    12c8:	03c12f03          	lw	t5,60(sp)
    12cc:	00040d13          	mv	s10,s0
    12d0:	04012e83          	lw	t4,64(sp)
    12d4:	04c12403          	lw	s0,76(sp)
    12d8:	00090613          	mv	a2,s2
    12dc:	000b8913          	mv	s2,s7
    12e0:	000c0b93          	mv	s7,s8
    12e4:	00048c13          	mv	s8,s1
    12e8:	00098493          	mv	s1,s3
    12ec:	000b0993          	mv	s3,s6
    12f0:	000d8b13          	mv	s6,s11
    12f4:	00060d93          	mv	s11,a2
    12f8:	00d787b3          	add	a5,a5,a3
    12fc:	00170713          	addi	a4,a4,1
    1300:	00d8a223          	sw	a3,4(a7)
    1304:	01b8a023          	sw	s11,0(a7)
    1308:	0ef12e23          	sw	a5,252(sp)
    130c:	0ee12c23          	sw	a4,248(sp)
    1310:	00700693          	li	a3,7
    1314:	00888893          	addi	a7,a7,8
    1318:	8ee6d063          	bge	a3,a4,3f8 <_vfprintf_r+0x24c>
    131c:	0f410613          	addi	a2,sp,244
    1320:	000c0593          	mv	a1,s8
    1324:	000d0513          	mv	a0,s10
    1328:	05d12023          	sw	t4,64(sp)
    132c:	03e12e23          	sw	t5,60(sp)
    1330:	4d80a0ef          	jal	ra,b808 <__sprint_r>
    1334:	ec051ee3          	bnez	a0,1210 <_vfprintf_r+0x1064>
    1338:	0fc12783          	lw	a5,252(sp)
    133c:	04012e83          	lw	t4,64(sp)
    1340:	03c12f03          	lw	t5,60(sp)
    1344:	11c10893          	addi	a7,sp,284
    1348:	8b0ff06f          	j	3f8 <_vfprintf_r+0x24c>
    134c:	0f410613          	addi	a2,sp,244
    1350:	000c0593          	mv	a1,s8
    1354:	000d0513          	mv	a0,s10
    1358:	03d12e23          	sw	t4,60(sp)
    135c:	4ac0a0ef          	jal	ra,b808 <__sprint_r>
    1360:	ea0518e3          	bnez	a0,1210 <_vfprintf_r+0x1064>
    1364:	0fc12783          	lw	a5,252(sp)
    1368:	03c12e83          	lw	t4,60(sp)
    136c:	11c10893          	addi	a7,sp,284
    1370:	8f4ff06f          	j	464 <_vfprintf_r+0x2b8>
    1374:	0dc12683          	lw	a3,220(sp)
    1378:	66d05863          	blez	a3,19e8 <_vfprintf_r+0x183c>
    137c:	01812703          	lw	a4,24(sp)
    1380:	01c12683          	lw	a3,28(sp)
    1384:	00070493          	mv	s1,a4
    1388:	36e6ce63          	blt	a3,a4,1704 <_vfprintf_r+0x1558>
    138c:	02905663          	blez	s1,13b8 <_vfprintf_r+0x120c>
    1390:	0f812703          	lw	a4,248(sp)
    1394:	009787b3          	add	a5,a5,s1
    1398:	0178a023          	sw	s7,0(a7)
    139c:	00170713          	addi	a4,a4,1
    13a0:	0098a223          	sw	s1,4(a7)
    13a4:	0ef12e23          	sw	a5,252(sp)
    13a8:	0ee12c23          	sw	a4,248(sp)
    13ac:	00700693          	li	a3,7
    13b0:	00888893          	addi	a7,a7,8
    13b4:	38e6c6e3          	blt	a3,a4,1f40 <_vfprintf_r+0x1d94>
    13b8:	fff4c713          	not	a4,s1
    13bc:	41f75713          	srai	a4,a4,0x1f
    13c0:	00e4f4b3          	and	s1,s1,a4
    13c4:	01812703          	lw	a4,24(sp)
    13c8:	409704b3          	sub	s1,a4,s1
    13cc:	48904263          	bgtz	s1,1850 <_vfprintf_r+0x16a4>
    13d0:	01812683          	lw	a3,24(sp)
    13d4:	400af713          	andi	a4,s5,1024
    13d8:	00db84b3          	add	s1,s7,a3
    13dc:	120714e3          	bnez	a4,1d04 <_vfprintf_r+0x1b58>
    13e0:	0dc12683          	lw	a3,220(sp)
    13e4:	01c12703          	lw	a4,28(sp)
    13e8:	00e6c663          	blt	a3,a4,13f4 <_vfprintf_r+0x1248>
    13ec:	001af713          	andi	a4,s5,1
    13f0:	36070ce3          	beqz	a4,1f68 <_vfprintf_r+0x1dbc>
    13f4:	02c12703          	lw	a4,44(sp)
    13f8:	02812603          	lw	a2,40(sp)
    13fc:	00888893          	addi	a7,a7,8
    1400:	fee8ac23          	sw	a4,-8(a7)
    1404:	0f812703          	lw	a4,248(sp)
    1408:	00c787b3          	add	a5,a5,a2
    140c:	fec8ae23          	sw	a2,-4(a7)
    1410:	00170713          	addi	a4,a4,1
    1414:	0ef12e23          	sw	a5,252(sp)
    1418:	0ee12c23          	sw	a4,248(sp)
    141c:	00700613          	li	a2,7
    1420:	00e65463          	bge	a2,a4,1428 <_vfprintf_r+0x127c>
    1424:	2780106f          	j	269c <_vfprintf_r+0x24f0>
    1428:	01c12603          	lw	a2,28(sp)
    142c:	00cb8733          	add	a4,s7,a2
    1430:	40970733          	sub	a4,a4,s1
    1434:	40d60633          	sub	a2,a2,a3
    1438:	00060913          	mv	s2,a2
    143c:	00c75463          	bge	a4,a2,1444 <_vfprintf_r+0x1298>
    1440:	00070913          	mv	s2,a4
    1444:	03205863          	blez	s2,1474 <_vfprintf_r+0x12c8>
    1448:	0f812703          	lw	a4,248(sp)
    144c:	012787b3          	add	a5,a5,s2
    1450:	0098a023          	sw	s1,0(a7)
    1454:	00170713          	addi	a4,a4,1
    1458:	0128a223          	sw	s2,4(a7)
    145c:	0ef12e23          	sw	a5,252(sp)
    1460:	0ee12c23          	sw	a4,248(sp)
    1464:	00700693          	li	a3,7
    1468:	00888893          	addi	a7,a7,8
    146c:	00e6d463          	bge	a3,a4,1474 <_vfprintf_r+0x12c8>
    1470:	28c0106f          	j	26fc <_vfprintf_r+0x2550>
    1474:	fff94713          	not	a4,s2
    1478:	41f75713          	srai	a4,a4,0x1f
    147c:	00e97733          	and	a4,s2,a4
    1480:	40e604b3          	sub	s1,a2,a4
    1484:	00904463          	bgtz	s1,148c <_vfprintf_r+0x12e0>
    1488:	81cff06f          	j	4a4 <_vfprintf_r+0x2f8>
    148c:	0f812703          	lw	a4,248(sp)
    1490:	629a5063          	bge	s4,s1,1ab0 <_vfprintf_r+0x1904>
    1494:	00700913          	li	s2,7
    1498:	00c0006f          	j	14a4 <_vfprintf_r+0x12f8>
    149c:	ff048493          	addi	s1,s1,-16
    14a0:	609a5863          	bge	s4,s1,1ab0 <_vfprintf_r+0x1904>
    14a4:	01078793          	addi	a5,a5,16
    14a8:	00170713          	addi	a4,a4,1
    14ac:	0001f697          	auipc	a3,0x1f
    14b0:	dc468693          	addi	a3,a3,-572 # 20270 <zeroes.0>
    14b4:	00d8a023          	sw	a3,0(a7)
    14b8:	0148a223          	sw	s4,4(a7)
    14bc:	0ef12e23          	sw	a5,252(sp)
    14c0:	0ee12c23          	sw	a4,248(sp)
    14c4:	00888893          	addi	a7,a7,8
    14c8:	fce95ae3          	bge	s2,a4,149c <_vfprintf_r+0x12f0>
    14cc:	0f410613          	addi	a2,sp,244
    14d0:	000c0593          	mv	a1,s8
    14d4:	000d0513          	mv	a0,s10
    14d8:	3300a0ef          	jal	ra,b808 <__sprint_r>
    14dc:	d2051ae3          	bnez	a0,1210 <_vfprintf_r+0x1064>
    14e0:	0fc12783          	lw	a5,252(sp)
    14e4:	0f812703          	lw	a4,248(sp)
    14e8:	11c10893          	addi	a7,sp,284
    14ec:	fb1ff06f          	j	149c <_vfprintf_r+0x12f0>
    14f0:	001af793          	andi	a5,s5,1
    14f4:	c6079463          	bnez	a5,95c <_vfprintf_r+0x7b0>
    14f8:	00d8a223          	sw	a3,4(a7)
    14fc:	0f912e23          	sw	s9,252(sp)
    1500:	0e912c23          	sw	s1,248(sp)
    1504:	00700793          	li	a5,7
    1508:	2297ca63          	blt	a5,s1,173c <_vfprintf_r+0x1590>
    150c:	00270713          	addi	a4,a4,2
    1510:	01088893          	addi	a7,a7,16
    1514:	d18ff06f          	j	a2c <_vfprintf_r+0x880>
    1518:	d1b05a63          	blez	s11,a2c <_vfprintf_r+0x880>
    151c:	01ba4463          	blt	s4,s11,1524 <_vfprintf_r+0x1378>
    1520:	6980106f          	j	2bb8 <_vfprintf_r+0x2a0c>
    1524:	00700b93          	li	s7,7
    1528:	00068493          	mv	s1,a3
    152c:	0100006f          	j	153c <_vfprintf_r+0x1390>
    1530:	ff0d8d93          	addi	s11,s11,-16
    1534:	1dba5e63          	bge	s4,s11,1710 <_vfprintf_r+0x1564>
    1538:	00148493          	addi	s1,s1,1
    153c:	010c8c93          	addi	s9,s9,16
    1540:	0001f797          	auipc	a5,0x1f
    1544:	d3078793          	addi	a5,a5,-720 # 20270 <zeroes.0>
    1548:	00f92023          	sw	a5,0(s2)
    154c:	01492223          	sw	s4,4(s2)
    1550:	0f912e23          	sw	s9,252(sp)
    1554:	0e912c23          	sw	s1,248(sp)
    1558:	00890913          	addi	s2,s2,8
    155c:	fc9bdae3          	bge	s7,s1,1530 <_vfprintf_r+0x1384>
    1560:	0f410613          	addi	a2,sp,244
    1564:	000c0593          	mv	a1,s8
    1568:	000d0513          	mv	a0,s10
    156c:	29c0a0ef          	jal	ra,b808 <__sprint_r>
    1570:	ca0510e3          	bnez	a0,1210 <_vfprintf_r+0x1064>
    1574:	0fc12c83          	lw	s9,252(sp)
    1578:	0f812483          	lw	s1,248(sp)
    157c:	11c10913          	addi	s2,sp,284
    1580:	fb1ff06f          	j	1530 <_vfprintf_r+0x1384>
    1584:	01412683          	lw	a3,20(sp)
    1588:	010af793          	andi	a5,s5,16
    158c:	00468713          	addi	a4,a3,4
    1590:	16079263          	bnez	a5,16f4 <_vfprintf_r+0x1548>
    1594:	040af793          	andi	a5,s5,64
    1598:	68078063          	beqz	a5,1c18 <_vfprintf_r+0x1a6c>
    159c:	01412783          	lw	a5,20(sp)
    15a0:	00000913          	li	s2,0
    15a4:	00e12a23          	sw	a4,20(sp)
    15a8:	0007dd83          	lhu	s11,0(a5)
    15ac:	f50ff06f          	j	cfc <_vfprintf_r+0xb50>
    15b0:	01412683          	lw	a3,20(sp)
    15b4:	010af793          	andi	a5,s5,16
    15b8:	00468713          	addi	a4,a3,4
    15bc:	12079263          	bnez	a5,16e0 <_vfprintf_r+0x1534>
    15c0:	040af793          	andi	a5,s5,64
    15c4:	6a078663          	beqz	a5,1c70 <_vfprintf_r+0x1ac4>
    15c8:	01412783          	lw	a5,20(sp)
    15cc:	00e12a23          	sw	a4,20(sp)
    15d0:	00079d83          	lh	s11,0(a5)
    15d4:	41fdd913          	srai	s2,s11,0x1f
    15d8:	00090793          	mv	a5,s2
    15dc:	fa07d663          	bgez	a5,d88 <_vfprintf_r+0xbdc>
    15e0:	01b037b3          	snez	a5,s11
    15e4:	41200933          	neg	s2,s2
    15e8:	40f90933          	sub	s2,s2,a5
    15ec:	02d00793          	li	a5,45
    15f0:	0cf10ba3          	sb	a5,215(sp)
    15f4:	41b00db3          	neg	s11,s11
    15f8:	000a8b13          	mv	s6,s5
    15fc:	00100793          	li	a5,1
    1600:	e80ff06f          	j	c80 <_vfprintf_r+0xad4>
    1604:	01412703          	lw	a4,20(sp)
    1608:	010b7793          	andi	a5,s6,16
    160c:	00470693          	addi	a3,a4,4
    1610:	0a079e63          	bnez	a5,16cc <_vfprintf_r+0x1520>
    1614:	040b7793          	andi	a5,s6,64
    1618:	62078c63          	beqz	a5,1c50 <_vfprintf_r+0x1aa4>
    161c:	01412783          	lw	a5,20(sp)
    1620:	00000913          	li	s2,0
    1624:	00d12a23          	sw	a3,20(sp)
    1628:	0007dd83          	lhu	s11,0(a5)
    162c:	00100793          	li	a5,1
    1630:	e4cff06f          	j	c7c <_vfprintf_r+0xad0>
    1634:	001af713          	andi	a4,s5,1
    1638:	00071463          	bnez	a4,1640 <_vfprintf_r+0x1494>
    163c:	e69fe06f          	j	4a4 <_vfprintf_r+0x2f8>
    1640:	9a9ff06f          	j	fe8 <_vfprintf_r+0xe3c>
    1644:	000d8893          	mv	a7,s11
    1648:	f14ff06f          	j	d5c <_vfprintf_r+0xbb0>
    164c:	03000793          	li	a5,48
    1650:	1af10fa3          	sb	a5,447(sp)
    1654:	1bf10b93          	addi	s7,sp,447
    1658:	e50ff06f          	j	ca8 <_vfprintf_r+0xafc>
    165c:	03812783          	lw	a5,56(sp)
    1660:	00044483          	lbu	s1,0(s0)
    1664:	00079463          	bnez	a5,166c <_vfprintf_r+0x14c0>
    1668:	ce5fe06f          	j	34c <_vfprintf_r+0x1a0>
    166c:	0007c783          	lbu	a5,0(a5)
    1670:	00079463          	bnez	a5,1678 <_vfprintf_r+0x14cc>
    1674:	cd9fe06f          	j	34c <_vfprintf_r+0x1a0>
    1678:	400aea93          	ori	s5,s5,1024
    167c:	cd1fe06f          	j	34c <_vfprintf_r+0x1a0>
    1680:	00c12683          	lw	a3,12(sp)
    1684:	00040b93          	mv	s7,s0
    1688:	41f6d793          	srai	a5,a3,0x1f
    168c:	00d72023          	sw	a3,0(a4)
    1690:	00f72223          	sw	a5,4(a4)
    1694:	e59fe06f          	j	4ec <_vfprintf_r+0x340>
    1698:	01412703          	lw	a4,20(sp)
    169c:	00072783          	lw	a5,0(a4)
    16a0:	00470713          	addi	a4,a4,4
    16a4:	00e12a23          	sw	a4,20(sp)
    16a8:	0007a603          	lw	a2,0(a5)
    16ac:	0047a683          	lw	a3,4(a5)
    16b0:	0087a703          	lw	a4,8(a5)
    16b4:	00c7a783          	lw	a5,12(a5)
    16b8:	10c12023          	sw	a2,256(sp)
    16bc:	10d12223          	sw	a3,260(sp)
    16c0:	10e12423          	sw	a4,264(sp)
    16c4:	10f12623          	sw	a5,268(sp)
    16c8:	fa9fe06f          	j	670 <_vfprintf_r+0x4c4>
    16cc:	00072d83          	lw	s11,0(a4)
    16d0:	00000913          	li	s2,0
    16d4:	00d12a23          	sw	a3,20(sp)
    16d8:	00100793          	li	a5,1
    16dc:	da0ff06f          	j	c7c <_vfprintf_r+0xad0>
    16e0:	0006ad83          	lw	s11,0(a3)
    16e4:	00e12a23          	sw	a4,20(sp)
    16e8:	41fdd913          	srai	s2,s11,0x1f
    16ec:	00090793          	mv	a5,s2
    16f0:	e94ff06f          	j	d84 <_vfprintf_r+0xbd8>
    16f4:	0006ad83          	lw	s11,0(a3)
    16f8:	00000913          	li	s2,0
    16fc:	00e12a23          	sw	a4,20(sp)
    1700:	dfcff06f          	j	cfc <_vfprintf_r+0xb50>
    1704:	00068493          	mv	s1,a3
    1708:	c89044e3          	bgtz	s1,1390 <_vfprintf_r+0x11e4>
    170c:	cadff06f          	j	13b8 <_vfprintf_r+0x120c>
    1710:	00148713          	addi	a4,s1,1
    1714:	00890693          	addi	a3,s2,8
    1718:	0001f797          	auipc	a5,0x1f
    171c:	b5878793          	addi	a5,a5,-1192 # 20270 <zeroes.0>
    1720:	01bc8cb3          	add	s9,s9,s11
    1724:	00f92023          	sw	a5,0(s2)
    1728:	01b92223          	sw	s11,4(s2)
    172c:	0f912e23          	sw	s9,252(sp)
    1730:	0ee12c23          	sw	a4,248(sp)
    1734:	00700793          	li	a5,7
    1738:	7ce7d463          	bge	a5,a4,1f00 <_vfprintf_r+0x1d54>
    173c:	0f410613          	addi	a2,sp,244
    1740:	000c0593          	mv	a1,s8
    1744:	000d0513          	mv	a0,s10
    1748:	0c00a0ef          	jal	ra,b808 <__sprint_r>
    174c:	ac0512e3          	bnez	a0,1210 <_vfprintf_r+0x1064>
    1750:	0f812703          	lw	a4,248(sp)
    1754:	0fc12c83          	lw	s9,252(sp)
    1758:	12410893          	addi	a7,sp,292
    175c:	00170713          	addi	a4,a4,1
    1760:	11c10913          	addi	s2,sp,284
    1764:	ac8ff06f          	j	a2c <_vfprintf_r+0x880>
    1768:	000d8893          	mv	a7,s11
    176c:	000a8b13          	mv	s6,s5
    1770:	da0ff06f          	j	d10 <_vfprintf_r+0xb64>
    1774:	0001f797          	auipc	a5,0x1f
    1778:	91c78793          	addi	a5,a5,-1764 # 20090 <__malloc_trim_threshold+0x58>
    177c:	000d8893          	mv	a7,s11
    1780:	02f12823          	sw	a5,48(sp)
    1784:	020af793          	andi	a5,s5,32
    1788:	12078663          	beqz	a5,18b4 <_vfprintf_r+0x1708>
    178c:	01412783          	lw	a5,20(sp)
    1790:	00778b93          	addi	s7,a5,7
    1794:	ff8bfb93          	andi	s7,s7,-8
    1798:	000bad83          	lw	s11,0(s7)
    179c:	004ba903          	lw	s2,4(s7)
    17a0:	008b8793          	addi	a5,s7,8
    17a4:	00f12a23          	sw	a5,20(sp)
    17a8:	001af793          	andi	a5,s5,1
    17ac:	00078e63          	beqz	a5,17c8 <_vfprintf_r+0x161c>
    17b0:	012de7b3          	or	a5,s11,s2
    17b4:	00078a63          	beqz	a5,17c8 <_vfprintf_r+0x161c>
    17b8:	03000793          	li	a5,48
    17bc:	0cf10c23          	sb	a5,216(sp)
    17c0:	0c910ca3          	sb	s1,217(sp)
    17c4:	002aea93          	ori	s5,s5,2
    17c8:	bffafb13          	andi	s6,s5,-1025
    17cc:	00200793          	li	a5,2
    17d0:	cacff06f          	j	c7c <_vfprintf_r+0xad0>
    17d4:	00144483          	lbu	s1,1(s0)
    17d8:	200aea93          	ori	s5,s5,512
    17dc:	00140413          	addi	s0,s0,1
    17e0:	b6dfe06f          	j	34c <_vfprintf_r+0x1a0>
    17e4:	0001f797          	auipc	a5,0x1f
    17e8:	8c078793          	addi	a5,a5,-1856 # 200a4 <__malloc_trim_threshold+0x6c>
    17ec:	000d8893          	mv	a7,s11
    17f0:	02f12823          	sw	a5,48(sp)
    17f4:	f91ff06f          	j	1784 <_vfprintf_r+0x15d8>
    17f8:	000d8893          	mv	a7,s11
    17fc:	cdcff06f          	j	cd8 <_vfprintf_r+0xb2c>
    1800:	0f410613          	addi	a2,sp,244
    1804:	000c0593          	mv	a1,s8
    1808:	000d0513          	mv	a0,s10
    180c:	7fd090ef          	jal	ra,b808 <__sprint_r>
    1810:	a00510e3          	bnez	a0,1210 <_vfprintf_r+0x1064>
    1814:	0fc12783          	lw	a5,252(sp)
    1818:	11c10893          	addi	a7,sp,284
    181c:	ffcff06f          	j	1018 <_vfprintf_r+0xe6c>
    1820:	00144483          	lbu	s1,1(s0)
    1824:	020aea93          	ori	s5,s5,32
    1828:	00140413          	addi	s0,s0,1
    182c:	b21fe06f          	j	34c <_vfprintf_r+0x1a0>
    1830:	00600793          	li	a5,6
    1834:	000c8913          	mv	s2,s9
    1838:	7397e463          	bltu	a5,s9,1f60 <_vfprintf_r+0x1db4>
    183c:	00090b13          	mv	s6,s2
    1840:	01b12a23          	sw	s11,20(sp)
    1844:	0001fb97          	auipc	s7,0x1f
    1848:	874b8b93          	addi	s7,s7,-1932 # 200b8 <__malloc_trim_threshold+0x80>
    184c:	b79fe06f          	j	3c4 <_vfprintf_r+0x218>
    1850:	0f812703          	lw	a4,248(sp)
    1854:	469a5263          	bge	s4,s1,1cb8 <_vfprintf_r+0x1b0c>
    1858:	00700c93          	li	s9,7
    185c:	00c0006f          	j	1868 <_vfprintf_r+0x16bc>
    1860:	ff048493          	addi	s1,s1,-16
    1864:	449a5a63          	bge	s4,s1,1cb8 <_vfprintf_r+0x1b0c>
    1868:	01078793          	addi	a5,a5,16
    186c:	00170713          	addi	a4,a4,1
    1870:	0001f697          	auipc	a3,0x1f
    1874:	a0068693          	addi	a3,a3,-1536 # 20270 <zeroes.0>
    1878:	00d8a023          	sw	a3,0(a7)
    187c:	0148a223          	sw	s4,4(a7)
    1880:	0ef12e23          	sw	a5,252(sp)
    1884:	0ee12c23          	sw	a4,248(sp)
    1888:	00888893          	addi	a7,a7,8
    188c:	fcecdae3          	bge	s9,a4,1860 <_vfprintf_r+0x16b4>
    1890:	0f410613          	addi	a2,sp,244
    1894:	000c0593          	mv	a1,s8
    1898:	000d0513          	mv	a0,s10
    189c:	76d090ef          	jal	ra,b808 <__sprint_r>
    18a0:	960518e3          	bnez	a0,1210 <_vfprintf_r+0x1064>
    18a4:	0fc12783          	lw	a5,252(sp)
    18a8:	0f812703          	lw	a4,248(sp)
    18ac:	11c10893          	addi	a7,sp,284
    18b0:	fb1ff06f          	j	1860 <_vfprintf_r+0x16b4>
    18b4:	01412683          	lw	a3,20(sp)
    18b8:	010af793          	andi	a5,s5,16
    18bc:	00468713          	addi	a4,a3,4
    18c0:	1a078a63          	beqz	a5,1a74 <_vfprintf_r+0x18c8>
    18c4:	0006ad83          	lw	s11,0(a3)
    18c8:	00000913          	li	s2,0
    18cc:	00e12a23          	sw	a4,20(sp)
    18d0:	ed9ff06f          	j	17a8 <_vfprintf_r+0x15fc>
    18d4:	0f410613          	addi	a2,sp,244
    18d8:	000c0593          	mv	a1,s8
    18dc:	000d0513          	mv	a0,s10
    18e0:	729090ef          	jal	ra,b808 <__sprint_r>
    18e4:	920516e3          	bnez	a0,1210 <_vfprintf_r+0x1064>
    18e8:	0fc12c83          	lw	s9,252(sp)
    18ec:	0f812483          	lw	s1,248(sp)
    18f0:	11c10913          	addi	s2,sp,284
    18f4:	880ff06f          	j	974 <_vfprintf_r+0x7c8>
    18f8:	0f410613          	addi	a2,sp,244
    18fc:	000c0593          	mv	a1,s8
    1900:	000d0513          	mv	a0,s10
    1904:	705090ef          	jal	ra,b808 <__sprint_r>
    1908:	900514e3          	bnez	a0,1210 <_vfprintf_r+0x1064>
    190c:	0fc12c83          	lw	s9,252(sp)
    1910:	0f812483          	lw	s1,248(sp)
    1914:	11c10913          	addi	s2,sp,284
    1918:	888ff06f          	j	9a0 <_vfprintf_r+0x7f4>
    191c:	1c010b93          	addi	s7,sp,448
    1920:	00000793          	li	a5,0
    1924:	00812823          	sw	s0,16(sp)
    1928:	00912c23          	sw	s1,24(sp)
    192c:	000b8413          	mv	s0,s7
    1930:	03312023          	sw	s3,32(sp)
    1934:	000c0b93          	mv	s7,s8
    1938:	000d8493          	mv	s1,s11
    193c:	00090993          	mv	s3,s2
    1940:	03812d83          	lw	s11,56(sp)
    1944:	400b7a93          	andi	s5,s6,1024
    1948:	00088c13          	mv	s8,a7
    194c:	00078913          	mv	s2,a5
    1950:	0240006f          	j	1974 <_vfprintf_r+0x17c8>
    1954:	00a00613          	li	a2,10
    1958:	00000693          	li	a3,0
    195c:	00048513          	mv	a0,s1
    1960:	00098593          	mv	a1,s3
    1964:	2e80e0ef          	jal	ra,fc4c <__udivdi3>
    1968:	58098663          	beqz	s3,1ef4 <_vfprintf_r+0x1d48>
    196c:	00050493          	mv	s1,a0
    1970:	00058993          	mv	s3,a1
    1974:	00a00613          	li	a2,10
    1978:	00000693          	li	a3,0
    197c:	00048513          	mv	a0,s1
    1980:	00098593          	mv	a1,s3
    1984:	7680e0ef          	jal	ra,100ec <__umoddi3>
    1988:	03050513          	addi	a0,a0,48
    198c:	fea40fa3          	sb	a0,-1(s0)
    1990:	00190913          	addi	s2,s2,1
    1994:	fff40413          	addi	s0,s0,-1
    1998:	fa0a8ee3          	beqz	s5,1954 <_vfprintf_r+0x17a8>
    199c:	000dc683          	lbu	a3,0(s11)
    19a0:	fad91ae3          	bne	s2,a3,1954 <_vfprintf_r+0x17a8>
    19a4:	0ff00793          	li	a5,255
    19a8:	faf906e3          	beq	s2,a5,1954 <_vfprintf_r+0x17a8>
    19ac:	50099463          	bnez	s3,1eb4 <_vfprintf_r+0x1d08>
    19b0:	00900793          	li	a5,9
    19b4:	5097e063          	bltu	a5,s1,1eb4 <_vfprintf_r+0x1d08>
    19b8:	000c0893          	mv	a7,s8
    19bc:	1c010793          	addi	a5,sp,448
    19c0:	000b8c13          	mv	s8,s7
    19c4:	00040b93          	mv	s7,s0
    19c8:	01212e23          	sw	s2,28(sp)
    19cc:	01812483          	lw	s1,24(sp)
    19d0:	02012983          	lw	s3,32(sp)
    19d4:	01012403          	lw	s0,16(sp)
    19d8:	03b12c23          	sw	s11,56(sp)
    19dc:	41778933          	sub	s2,a5,s7
    19e0:	000b0a93          	mv	s5,s6
    19e4:	ac4ff06f          	j	ca8 <_vfprintf_r+0xafc>
    19e8:	0f812703          	lw	a4,248(sp)
    19ec:	0001e617          	auipc	a2,0x1e
    19f0:	6d460613          	addi	a2,a2,1748 # 200c0 <__malloc_trim_threshold+0x88>
    19f4:	00c8a023          	sw	a2,0(a7)
    19f8:	00178793          	addi	a5,a5,1
    19fc:	00100613          	li	a2,1
    1a00:	00170713          	addi	a4,a4,1
    1a04:	00c8a223          	sw	a2,4(a7)
    1a08:	0ef12e23          	sw	a5,252(sp)
    1a0c:	0ee12c23          	sw	a4,248(sp)
    1a10:	00700613          	li	a2,7
    1a14:	00888893          	addi	a7,a7,8
    1a18:	4ee64c63          	blt	a2,a4,1f10 <_vfprintf_r+0x1d64>
    1a1c:	14069a63          	bnez	a3,1b70 <_vfprintf_r+0x19c4>
    1a20:	01c12683          	lw	a3,28(sp)
    1a24:	001af713          	andi	a4,s5,1
    1a28:	00d76733          	or	a4,a4,a3
    1a2c:	00071463          	bnez	a4,1a34 <_vfprintf_r+0x1888>
    1a30:	a75fe06f          	j	4a4 <_vfprintf_r+0x2f8>
    1a34:	02c12703          	lw	a4,44(sp)
    1a38:	02812683          	lw	a3,40(sp)
    1a3c:	00e8a023          	sw	a4,0(a7)
    1a40:	0f812703          	lw	a4,248(sp)
    1a44:	00f687b3          	add	a5,a3,a5
    1a48:	00d8a223          	sw	a3,4(a7)
    1a4c:	00170713          	addi	a4,a4,1
    1a50:	0ef12e23          	sw	a5,252(sp)
    1a54:	0ee12c23          	sw	a4,248(sp)
    1a58:	00700693          	li	a3,7
    1a5c:	5ae6ca63          	blt	a3,a4,2010 <_vfprintf_r+0x1e64>
    1a60:	00888893          	addi	a7,a7,8
    1a64:	1400006f          	j	1ba4 <_vfprintf_r+0x19f8>
    1a68:	00040d13          	mv	s10,s0
    1a6c:	00048c13          	mv	s8,s1
    1a70:	fa0ff06f          	j	1210 <_vfprintf_r+0x1064>
    1a74:	040af793          	andi	a5,s5,64
    1a78:	1a078e63          	beqz	a5,1c34 <_vfprintf_r+0x1a88>
    1a7c:	01412783          	lw	a5,20(sp)
    1a80:	00000913          	li	s2,0
    1a84:	00e12a23          	sw	a4,20(sp)
    1a88:	0007dd83          	lhu	s11,0(a5)
    1a8c:	d1dff06f          	j	17a8 <_vfprintf_r+0x15fc>
    1a90:	0f410613          	addi	a2,sp,244
    1a94:	000c0593          	mv	a1,s8
    1a98:	000d0513          	mv	a0,s10
    1a9c:	56d090ef          	jal	ra,b808 <__sprint_r>
    1aa0:	f6051863          	bnez	a0,1210 <_vfprintf_r+0x1064>
    1aa4:	0fc12783          	lw	a5,252(sp)
    1aa8:	11c10893          	addi	a7,sp,284
    1aac:	d30ff06f          	j	fdc <_vfprintf_r+0xe30>
    1ab0:	0001e697          	auipc	a3,0x1e
    1ab4:	7c068693          	addi	a3,a3,1984 # 20270 <zeroes.0>
    1ab8:	00d8a023          	sw	a3,0(a7)
    1abc:	0098a223          	sw	s1,4(a7)
    1ac0:	009787b3          	add	a5,a5,s1
    1ac4:	00170713          	addi	a4,a4,1
    1ac8:	0ef12e23          	sw	a5,252(sp)
    1acc:	0ee12c23          	sw	a4,248(sp)
    1ad0:	00700693          	li	a3,7
    1ad4:	00e6c463          	blt	a3,a4,1adc <_vfprintf_r+0x1930>
    1ad8:	9c9fe06f          	j	4a0 <_vfprintf_r+0x2f4>
    1adc:	f75fe06f          	j	a50 <_vfprintf_r+0x8a4>
    1ae0:	10012783          	lw	a5,256(sp)
    1ae4:	0b010593          	addi	a1,sp,176
    1ae8:	0c010513          	addi	a0,sp,192
    1aec:	0cf12023          	sw	a5,192(sp)
    1af0:	10412783          	lw	a5,260(sp)
    1af4:	0a012823          	sw	zero,176(sp)
    1af8:	0a012a23          	sw	zero,180(sp)
    1afc:	0cf12223          	sw	a5,196(sp)
    1b00:	10812783          	lw	a5,264(sp)
    1b04:	0a012c23          	sw	zero,184(sp)
    1b08:	0a012e23          	sw	zero,188(sp)
    1b0c:	0cf12423          	sw	a5,200(sp)
    1b10:	10c12783          	lw	a5,268(sp)
    1b14:	0cf12623          	sw	a5,204(sp)
    1b18:	2350f0ef          	jal	ra,1154c <__letf2>
    1b1c:	01012883          	lw	a7,16(sp)
    1b20:	3a0542e3          	bltz	a0,26c4 <_vfprintf_r+0x2518>
    1b24:	0d714783          	lbu	a5,215(sp)
    1b28:	04700713          	li	a4,71
    1b2c:	0001eb97          	auipc	s7,0x1e
    1b30:	554b8b93          	addi	s7,s7,1364 # 20080 <__malloc_trim_threshold+0x48>
    1b34:	40974063          	blt	a4,s1,1f34 <_vfprintf_r+0x1d88>
    1b38:	00012823          	sw	zero,16(sp)
    1b3c:	02012223          	sw	zero,36(sp)
    1b40:	02012023          	sw	zero,32(sp)
    1b44:	00012c23          	sw	zero,24(sp)
    1b48:	f7fafa93          	andi	s5,s5,-129
    1b4c:	00300b13          	li	s6,3
    1b50:	00300913          	li	s2,3
    1b54:	00000c93          	li	s9,0
    1b58:	86079863          	bnez	a5,bc8 <_vfprintf_r+0xa1c>
    1b5c:	87dfe06f          	j	3d8 <_vfprintf_r+0x22c>
    1b60:	00c12783          	lw	a5,12(sp)
    1b64:	00040b93          	mv	s7,s0
    1b68:	00f72023          	sw	a5,0(a4)
    1b6c:	981fe06f          	j	4ec <_vfprintf_r+0x340>
    1b70:	02c12703          	lw	a4,44(sp)
    1b74:	02812603          	lw	a2,40(sp)
    1b78:	00888893          	addi	a7,a7,8
    1b7c:	fee8ac23          	sw	a4,-8(a7)
    1b80:	0f812703          	lw	a4,248(sp)
    1b84:	00f607b3          	add	a5,a2,a5
    1b88:	fec8ae23          	sw	a2,-4(a7)
    1b8c:	00170713          	addi	a4,a4,1
    1b90:	0ef12e23          	sw	a5,252(sp)
    1b94:	0ee12c23          	sw	a4,248(sp)
    1b98:	00700613          	li	a2,7
    1b9c:	46e64a63          	blt	a2,a4,2010 <_vfprintf_r+0x1e64>
    1ba0:	3e06c2e3          	bltz	a3,2784 <_vfprintf_r+0x25d8>
    1ba4:	01c12683          	lw	a3,28(sp)
    1ba8:	00170713          	addi	a4,a4,1
    1bac:	0178a023          	sw	s7,0(a7)
    1bb0:	00f687b3          	add	a5,a3,a5
    1bb4:	00d8a223          	sw	a3,4(a7)
    1bb8:	0ef12e23          	sw	a5,252(sp)
    1bbc:	0ee12c23          	sw	a4,248(sp)
    1bc0:	00700693          	li	a3,7
    1bc4:	00e6c463          	blt	a3,a4,1bcc <_vfprintf_r+0x1a20>
    1bc8:	8d9fe06f          	j	4a0 <_vfprintf_r+0x2f4>
    1bcc:	e85fe06f          	j	a50 <_vfprintf_r+0x8a4>
    1bd0:	000b8513          	mv	a0,s7
    1bd4:	03112e23          	sw	a7,60(sp)
    1bd8:	7e5060ef          	jal	ra,8bbc <strlen>
    1bdc:	0d714783          	lbu	a5,215(sp)
    1be0:	fff54b13          	not	s6,a0
    1be4:	41fb5b13          	srai	s6,s6,0x1f
    1be8:	01b12a23          	sw	s11,20(sp)
    1bec:	00012823          	sw	zero,16(sp)
    1bf0:	02012223          	sw	zero,36(sp)
    1bf4:	02012023          	sw	zero,32(sp)
    1bf8:	00012c23          	sw	zero,24(sp)
    1bfc:	03c12883          	lw	a7,60(sp)
    1c00:	00050913          	mv	s2,a0
    1c04:	01657b33          	and	s6,a0,s6
    1c08:	00000c93          	li	s9,0
    1c0c:	00078463          	beqz	a5,1c14 <_vfprintf_r+0x1a68>
    1c10:	fb9fe06f          	j	bc8 <_vfprintf_r+0xa1c>
    1c14:	fc4fe06f          	j	3d8 <_vfprintf_r+0x22c>
    1c18:	200af793          	andi	a5,s5,512
    1c1c:	3c078063          	beqz	a5,1fdc <_vfprintf_r+0x1e30>
    1c20:	01412783          	lw	a5,20(sp)
    1c24:	00000913          	li	s2,0
    1c28:	00e12a23          	sw	a4,20(sp)
    1c2c:	0007cd83          	lbu	s11,0(a5)
    1c30:	8ccff06f          	j	cfc <_vfprintf_r+0xb50>
    1c34:	200af793          	andi	a5,s5,512
    1c38:	38078863          	beqz	a5,1fc8 <_vfprintf_r+0x1e1c>
    1c3c:	01412783          	lw	a5,20(sp)
    1c40:	00000913          	li	s2,0
    1c44:	00e12a23          	sw	a4,20(sp)
    1c48:	0007cd83          	lbu	s11,0(a5)
    1c4c:	b5dff06f          	j	17a8 <_vfprintf_r+0x15fc>
    1c50:	200b7793          	andi	a5,s6,512
    1c54:	34078e63          	beqz	a5,1fb0 <_vfprintf_r+0x1e04>
    1c58:	01412783          	lw	a5,20(sp)
    1c5c:	00000913          	li	s2,0
    1c60:	00d12a23          	sw	a3,20(sp)
    1c64:	0007cd83          	lbu	s11,0(a5)
    1c68:	00100793          	li	a5,1
    1c6c:	810ff06f          	j	c7c <_vfprintf_r+0xad0>
    1c70:	200af793          	andi	a5,s5,512
    1c74:	32078263          	beqz	a5,1f98 <_vfprintf_r+0x1dec>
    1c78:	01412783          	lw	a5,20(sp)
    1c7c:	00e12a23          	sw	a4,20(sp)
    1c80:	00078d83          	lb	s11,0(a5)
    1c84:	41fdd913          	srai	s2,s11,0x1f
    1c88:	00090793          	mv	a5,s2
    1c8c:	8f8ff06f          	j	d84 <_vfprintf_r+0xbd8>
    1c90:	10c12783          	lw	a5,268(sp)
    1c94:	3407ce63          	bltz	a5,1ff0 <_vfprintf_r+0x1e44>
    1c98:	0d714783          	lbu	a5,215(sp)
    1c9c:	04700713          	li	a4,71
    1ca0:	0001eb97          	auipc	s7,0x1e
    1ca4:	3e8b8b93          	addi	s7,s7,1000 # 20088 <__malloc_trim_threshold+0x50>
    1ca8:	e89758e3          	bge	a4,s1,1b38 <_vfprintf_r+0x198c>
    1cac:	0001eb97          	auipc	s7,0x1e
    1cb0:	3e0b8b93          	addi	s7,s7,992 # 2008c <__malloc_trim_threshold+0x54>
    1cb4:	e85ff06f          	j	1b38 <_vfprintf_r+0x198c>
    1cb8:	0001e697          	auipc	a3,0x1e
    1cbc:	5b868693          	addi	a3,a3,1464 # 20270 <zeroes.0>
    1cc0:	009787b3          	add	a5,a5,s1
    1cc4:	00170713          	addi	a4,a4,1
    1cc8:	00d8a023          	sw	a3,0(a7)
    1ccc:	0098a223          	sw	s1,4(a7)
    1cd0:	0ef12e23          	sw	a5,252(sp)
    1cd4:	0ee12c23          	sw	a4,248(sp)
    1cd8:	00700693          	li	a3,7
    1cdc:	00888893          	addi	a7,a7,8
    1ce0:	eee6d863          	bge	a3,a4,13d0 <_vfprintf_r+0x1224>
    1ce4:	0f410613          	addi	a2,sp,244
    1ce8:	000c0593          	mv	a1,s8
    1cec:	000d0513          	mv	a0,s10
    1cf0:	319090ef          	jal	ra,b808 <__sprint_r>
    1cf4:	d0051e63          	bnez	a0,1210 <_vfprintf_r+0x1064>
    1cf8:	0fc12783          	lw	a5,252(sp)
    1cfc:	11c10893          	addi	a7,sp,284
    1d00:	ed0ff06f          	j	13d0 <_vfprintf_r+0x1224>
    1d04:	01c12703          	lw	a4,28(sp)
    1d08:	02012c83          	lw	s9,32(sp)
    1d0c:	01512c23          	sw	s5,24(sp)
    1d10:	02812e23          	sw	s0,60(sp)
    1d14:	05312023          	sw	s3,64(sp)
    1d18:	03612023          	sw	s6,32(sp)
    1d1c:	02412983          	lw	s3,36(sp)
    1d20:	03712223          	sw	s7,36(sp)
    1d24:	00eb8db3          	add	s11,s7,a4
    1d28:	03812403          	lw	s0,56(sp)
    1d2c:	04412a83          	lw	s5,68(sp)
    1d30:	04812b03          	lw	s6,72(sp)
    1d34:	00700913          	li	s2,7
    1d38:	000c0b93          	mv	s7,s8
    1d3c:	080c8863          	beqz	s9,1dcc <_vfprintf_r+0x1c20>
    1d40:	08099863          	bnez	s3,1dd0 <_vfprintf_r+0x1c24>
    1d44:	fff40413          	addi	s0,s0,-1
    1d48:	fffc8c93          	addi	s9,s9,-1
    1d4c:	0f812703          	lw	a4,248(sp)
    1d50:	015787b3          	add	a5,a5,s5
    1d54:	0168a023          	sw	s6,0(a7)
    1d58:	00170713          	addi	a4,a4,1
    1d5c:	0158a223          	sw	s5,4(a7)
    1d60:	0ef12e23          	sw	a5,252(sp)
    1d64:	0ee12c23          	sw	a4,248(sp)
    1d68:	00888893          	addi	a7,a7,8
    1d6c:	10e94263          	blt	s2,a4,1e70 <_vfprintf_r+0x1cc4>
    1d70:	00044683          	lbu	a3,0(s0)
    1d74:	409d8633          	sub	a2,s11,s1
    1d78:	00068c13          	mv	s8,a3
    1d7c:	00d65463          	bge	a2,a3,1d84 <_vfprintf_r+0x1bd8>
    1d80:	00060c13          	mv	s8,a2
    1d84:	03805663          	blez	s8,1db0 <_vfprintf_r+0x1c04>
    1d88:	0f812683          	lw	a3,248(sp)
    1d8c:	018787b3          	add	a5,a5,s8
    1d90:	0098a023          	sw	s1,0(a7)
    1d94:	00168693          	addi	a3,a3,1
    1d98:	0188a223          	sw	s8,4(a7)
    1d9c:	0ef12e23          	sw	a5,252(sp)
    1da0:	0ed12c23          	sw	a3,248(sp)
    1da4:	0ed94663          	blt	s2,a3,1e90 <_vfprintf_r+0x1ce4>
    1da8:	00044683          	lbu	a3,0(s0)
    1dac:	00888893          	addi	a7,a7,8
    1db0:	fffc4613          	not	a2,s8
    1db4:	41f65613          	srai	a2,a2,0x1f
    1db8:	00cc7733          	and	a4,s8,a2
    1dbc:	40e68c33          	sub	s8,a3,a4
    1dc0:	01804c63          	bgtz	s8,1dd8 <_vfprintf_r+0x1c2c>
    1dc4:	00d484b3          	add	s1,s1,a3
    1dc8:	f60c9ce3          	bnez	s9,1d40 <_vfprintf_r+0x1b94>
    1dcc:	66098c63          	beqz	s3,2444 <_vfprintf_r+0x2298>
    1dd0:	fff98993          	addi	s3,s3,-1
    1dd4:	f79ff06f          	j	1d4c <_vfprintf_r+0x1ba0>
    1dd8:	0f812683          	lw	a3,248(sp)
    1ddc:	018a4863          	blt	s4,s8,1dec <_vfprintf_r+0x1c40>
    1de0:	05c0006f          	j	1e3c <_vfprintf_r+0x1c90>
    1de4:	ff0c0c13          	addi	s8,s8,-16
    1de8:	058a5a63          	bge	s4,s8,1e3c <_vfprintf_r+0x1c90>
    1dec:	01078793          	addi	a5,a5,16
    1df0:	00168693          	addi	a3,a3,1
    1df4:	0001e717          	auipc	a4,0x1e
    1df8:	47c70713          	addi	a4,a4,1148 # 20270 <zeroes.0>
    1dfc:	00e8a023          	sw	a4,0(a7)
    1e00:	0148a223          	sw	s4,4(a7)
    1e04:	0ef12e23          	sw	a5,252(sp)
    1e08:	0ed12c23          	sw	a3,248(sp)
    1e0c:	00888893          	addi	a7,a7,8
    1e10:	fcd95ae3          	bge	s2,a3,1de4 <_vfprintf_r+0x1c38>
    1e14:	0f410613          	addi	a2,sp,244
    1e18:	000b8593          	mv	a1,s7
    1e1c:	000d0513          	mv	a0,s10
    1e20:	1e9090ef          	jal	ra,b808 <__sprint_r>
    1e24:	6c051e63          	bnez	a0,2500 <_vfprintf_r+0x2354>
    1e28:	ff0c0c13          	addi	s8,s8,-16
    1e2c:	0fc12783          	lw	a5,252(sp)
    1e30:	0f812683          	lw	a3,248(sp)
    1e34:	11c10893          	addi	a7,sp,284
    1e38:	fb8a4ae3          	blt	s4,s8,1dec <_vfprintf_r+0x1c40>
    1e3c:	018787b3          	add	a5,a5,s8
    1e40:	00168693          	addi	a3,a3,1
    1e44:	0001e717          	auipc	a4,0x1e
    1e48:	42c70713          	addi	a4,a4,1068 # 20270 <zeroes.0>
    1e4c:	00e8a023          	sw	a4,0(a7)
    1e50:	0188a223          	sw	s8,4(a7)
    1e54:	0ef12e23          	sw	a5,252(sp)
    1e58:	0ed12c23          	sw	a3,248(sp)
    1e5c:	6cd94463          	blt	s2,a3,2524 <_vfprintf_r+0x2378>
    1e60:	00044683          	lbu	a3,0(s0)
    1e64:	00888893          	addi	a7,a7,8
    1e68:	00d484b3          	add	s1,s1,a3
    1e6c:	f5dff06f          	j	1dc8 <_vfprintf_r+0x1c1c>
    1e70:	0f410613          	addi	a2,sp,244
    1e74:	000b8593          	mv	a1,s7
    1e78:	000d0513          	mv	a0,s10
    1e7c:	18d090ef          	jal	ra,b808 <__sprint_r>
    1e80:	68051063          	bnez	a0,2500 <_vfprintf_r+0x2354>
    1e84:	0fc12783          	lw	a5,252(sp)
    1e88:	11c10893          	addi	a7,sp,284
    1e8c:	ee5ff06f          	j	1d70 <_vfprintf_r+0x1bc4>
    1e90:	0f410613          	addi	a2,sp,244
    1e94:	000b8593          	mv	a1,s7
    1e98:	000d0513          	mv	a0,s10
    1e9c:	16d090ef          	jal	ra,b808 <__sprint_r>
    1ea0:	66051063          	bnez	a0,2500 <_vfprintf_r+0x2354>
    1ea4:	00044683          	lbu	a3,0(s0)
    1ea8:	0fc12783          	lw	a5,252(sp)
    1eac:	11c10893          	addi	a7,sp,284
    1eb0:	f01ff06f          	j	1db0 <_vfprintf_r+0x1c04>
    1eb4:	04412783          	lw	a5,68(sp)
    1eb8:	04812583          	lw	a1,72(sp)
    1ebc:	00000913          	li	s2,0
    1ec0:	40f40433          	sub	s0,s0,a5
    1ec4:	00078613          	mv	a2,a5
    1ec8:	00040513          	mv	a0,s0
    1ecc:	57d060ef          	jal	ra,8c48 <strncpy>
    1ed0:	001dc583          	lbu	a1,1(s11)
    1ed4:	00a00613          	li	a2,10
    1ed8:	00000693          	li	a3,0
    1edc:	00b03833          	snez	a6,a1
    1ee0:	00048513          	mv	a0,s1
    1ee4:	00098593          	mv	a1,s3
    1ee8:	010d8db3          	add	s11,s11,a6
    1eec:	5610d0ef          	jal	ra,fc4c <__udivdi3>
    1ef0:	a7dff06f          	j	196c <_vfprintf_r+0x17c0>
    1ef4:	00900793          	li	a5,9
    1ef8:	a697eae3          	bltu	a5,s1,196c <_vfprintf_r+0x17c0>
    1efc:	abdff06f          	j	19b8 <_vfprintf_r+0x180c>
    1f00:	00170713          	addi	a4,a4,1
    1f04:	00868893          	addi	a7,a3,8
    1f08:	00068913          	mv	s2,a3
    1f0c:	b21fe06f          	j	a2c <_vfprintf_r+0x880>
    1f10:	0f410613          	addi	a2,sp,244
    1f14:	000c0593          	mv	a1,s8
    1f18:	000d0513          	mv	a0,s10
    1f1c:	0ed090ef          	jal	ra,b808 <__sprint_r>
    1f20:	ae051863          	bnez	a0,1210 <_vfprintf_r+0x1064>
    1f24:	0dc12683          	lw	a3,220(sp)
    1f28:	0fc12783          	lw	a5,252(sp)
    1f2c:	11c10893          	addi	a7,sp,284
    1f30:	aedff06f          	j	1a1c <_vfprintf_r+0x1870>
    1f34:	0001eb97          	auipc	s7,0x1e
    1f38:	150b8b93          	addi	s7,s7,336 # 20084 <__malloc_trim_threshold+0x4c>
    1f3c:	bfdff06f          	j	1b38 <_vfprintf_r+0x198c>
    1f40:	0f410613          	addi	a2,sp,244
    1f44:	000c0593          	mv	a1,s8
    1f48:	000d0513          	mv	a0,s10
    1f4c:	0bd090ef          	jal	ra,b808 <__sprint_r>
    1f50:	ac051063          	bnez	a0,1210 <_vfprintf_r+0x1064>
    1f54:	0fc12783          	lw	a5,252(sp)
    1f58:	11c10893          	addi	a7,sp,284
    1f5c:	c5cff06f          	j	13b8 <_vfprintf_r+0x120c>
    1f60:	00600913          	li	s2,6
    1f64:	8d9ff06f          	j	183c <_vfprintf_r+0x1690>
    1f68:	01c12703          	lw	a4,28(sp)
    1f6c:	00eb8833          	add	a6,s7,a4
    1f70:	40d70633          	sub	a2,a4,a3
    1f74:	409806b3          	sub	a3,a6,s1
    1f78:	00060913          	mv	s2,a2
    1f7c:	cec6dc63          	bge	a3,a2,1474 <_vfprintf_r+0x12c8>
    1f80:	00068913          	mv	s2,a3
    1f84:	cf0ff06f          	j	1474 <_vfprintf_r+0x12c8>
    1f88:	00c12783          	lw	a5,12(sp)
    1f8c:	00040b93          	mv	s7,s0
    1f90:	00f71023          	sh	a5,0(a4)
    1f94:	d58fe06f          	j	4ec <_vfprintf_r+0x340>
    1f98:	01412783          	lw	a5,20(sp)
    1f9c:	00e12a23          	sw	a4,20(sp)
    1fa0:	0007ad83          	lw	s11,0(a5)
    1fa4:	41fdd913          	srai	s2,s11,0x1f
    1fa8:	00090793          	mv	a5,s2
    1fac:	dd9fe06f          	j	d84 <_vfprintf_r+0xbd8>
    1fb0:	01412783          	lw	a5,20(sp)
    1fb4:	00000913          	li	s2,0
    1fb8:	00d12a23          	sw	a3,20(sp)
    1fbc:	0007ad83          	lw	s11,0(a5)
    1fc0:	00100793          	li	a5,1
    1fc4:	cb9fe06f          	j	c7c <_vfprintf_r+0xad0>
    1fc8:	01412783          	lw	a5,20(sp)
    1fcc:	00000913          	li	s2,0
    1fd0:	00e12a23          	sw	a4,20(sp)
    1fd4:	0007ad83          	lw	s11,0(a5)
    1fd8:	fd0ff06f          	j	17a8 <_vfprintf_r+0x15fc>
    1fdc:	01412783          	lw	a5,20(sp)
    1fe0:	00000913          	li	s2,0
    1fe4:	00e12a23          	sw	a4,20(sp)
    1fe8:	0007ad83          	lw	s11,0(a5)
    1fec:	d11fe06f          	j	cfc <_vfprintf_r+0xb50>
    1ff0:	02d00793          	li	a5,45
    1ff4:	0cf10ba3          	sb	a5,215(sp)
    1ff8:	ca5ff06f          	j	1c9c <_vfprintf_r+0x1af0>
    1ffc:	0f410613          	addi	a2,sp,244
    2000:	000c0593          	mv	a1,s8
    2004:	000d0513          	mv	a0,s10
    2008:	001090ef          	jal	ra,b808 <__sprint_r>
    200c:	cf4fe06f          	j	500 <_vfprintf_r+0x354>
    2010:	0f410613          	addi	a2,sp,244
    2014:	000c0593          	mv	a1,s8
    2018:	000d0513          	mv	a0,s10
    201c:	7ec090ef          	jal	ra,b808 <__sprint_r>
    2020:	9e051863          	bnez	a0,1210 <_vfprintf_r+0x1064>
    2024:	0dc12683          	lw	a3,220(sp)
    2028:	0fc12783          	lw	a5,252(sp)
    202c:	0f812703          	lw	a4,248(sp)
    2030:	11c10893          	addi	a7,sp,284
    2034:	b6dff06f          	j	1ba0 <_vfprintf_r+0x19f4>
    2038:	03000793          	li	a5,48
    203c:	0cf10c23          	sb	a5,216(sp)
    2040:	05800793          	li	a5,88
    2044:	002ae713          	ori	a4,s5,2
    2048:	0cf10ca3          	sb	a5,217(sp)
    204c:	04e12823          	sw	a4,80(sp)
    2050:	06300793          	li	a5,99
    2054:	00012823          	sw	zero,16(sp)
    2058:	15c10b93          	addi	s7,sp,348
    205c:	0d97cae3          	blt	a5,s9,2930 <_vfprintf_r+0x2784>
    2060:	10c12e03          	lw	t3,268(sp)
    2064:	fdf4f793          	andi	a5,s1,-33
    2068:	02f12e23          	sw	a5,60(sp)
    206c:	06012423          	sw	zero,104(sp)
    2070:	10012e83          	lw	t4,256(sp)
    2074:	10412f03          	lw	t5,260(sp)
    2078:	10812f83          	lw	t6,264(sp)
    207c:	102aea93          	ori	s5,s5,258
    2080:	480e4863          	bltz	t3,2510 <_vfprintf_r+0x2364>
    2084:	06100793          	li	a5,97
    2088:	1af48ae3          	beq	s1,a5,2a3c <_vfprintf_r+0x2890>
    208c:	04100793          	li	a5,65
    2090:	00f48463          	beq	s1,a5,2098 <_vfprintf_r+0x1eec>
    2094:	e6cfe06f          	j	700 <_vfprintf_r+0x554>
    2098:	0c010b13          	addi	s6,sp,192
    209c:	000b0513          	mv	a0,s6
    20a0:	05112a23          	sw	a7,84(sp)
    20a4:	0de12223          	sw	t5,196(sp)
    20a8:	0df12423          	sw	t6,200(sp)
    20ac:	0dd12023          	sw	t4,192(sp)
    20b0:	0dc12623          	sw	t3,204(sp)
    20b4:	130120ef          	jal	ra,141e4 <__trunctfdf2>
    20b8:	0dc10613          	addi	a2,sp,220
    20bc:	5e0060ef          	jal	ra,869c <frexp>
    20c0:	00058613          	mv	a2,a1
    20c4:	00050593          	mv	a1,a0
    20c8:	000b0513          	mv	a0,s6
    20cc:	6e5110ef          	jal	ra,13fb0 <__extenddftf2>
    20d0:	0c012e83          	lw	t4,192(sp)
    20d4:	0001e797          	auipc	a5,0x1e
    20d8:	17c78793          	addi	a5,a5,380 # 20250 <__malloc_trim_threshold+0x218>
    20dc:	0007ae03          	lw	t3,0(a5)
    20e0:	0bd12023          	sw	t4,160(sp)
    20e4:	0c412e83          	lw	t4,196(sp)
    20e8:	0047a683          	lw	a3,4(a5)
    20ec:	0087a703          	lw	a4,8(a5)
    20f0:	0bd12223          	sw	t4,164(sp)
    20f4:	0c812e83          	lw	t4,200(sp)
    20f8:	00c7a783          	lw	a5,12(a5)
    20fc:	0a010613          	addi	a2,sp,160
    2100:	0bd12423          	sw	t4,168(sp)
    2104:	0cc12e83          	lw	t4,204(sp)
    2108:	0b010913          	addi	s2,sp,176
    210c:	00060593          	mv	a1,a2
    2110:	00c12c23          	sw	a2,24(sp)
    2114:	00090513          	mv	a0,s2
    2118:	09010613          	addi	a2,sp,144
    211c:	04c12023          	sw	a2,64(sp)
    2120:	0bd12623          	sw	t4,172(sp)
    2124:	09c12823          	sw	t3,144(sp)
    2128:	08d12a23          	sw	a3,148(sp)
    212c:	08e12c23          	sw	a4,152(sp)
    2130:	08f12e23          	sw	a5,156(sp)
    2134:	5840f0ef          	jal	ra,116b8 <__multf3>
    2138:	0b012683          	lw	a3,176(sp)
    213c:	0b412e03          	lw	t3,180(sp)
    2140:	0b812e83          	lw	t4,184(sp)
    2144:	0bc12f03          	lw	t5,188(sp)
    2148:	00090593          	mv	a1,s2
    214c:	000b0513          	mv	a0,s6
    2150:	0cd12023          	sw	a3,192(sp)
    2154:	04d12623          	sw	a3,76(sp)
    2158:	0dc12223          	sw	t3,196(sp)
    215c:	03c12223          	sw	t3,36(sp)
    2160:	0dd12423          	sw	t4,200(sp)
    2164:	03d12023          	sw	t4,32(sp)
    2168:	0de12623          	sw	t5,204(sp)
    216c:	01e12e23          	sw	t5,28(sp)
    2170:	0a012823          	sw	zero,176(sp)
    2174:	0a012a23          	sw	zero,180(sp)
    2178:	0a012c23          	sw	zero,184(sp)
    217c:	0a012e23          	sw	zero,188(sp)
    2180:	1940f0ef          	jal	ra,11314 <__eqtf2>
    2184:	01c12f03          	lw	t5,28(sp)
    2188:	02012e83          	lw	t4,32(sp)
    218c:	02412e03          	lw	t3,36(sp)
    2190:	04c12683          	lw	a3,76(sp)
    2194:	05412883          	lw	a7,84(sp)
    2198:	00051663          	bnez	a0,21a4 <_vfprintf_r+0x1ff8>
    219c:	00100793          	li	a5,1
    21a0:	0cf12e23          	sw	a5,220(sp)
    21a4:	0001e797          	auipc	a5,0x1e
    21a8:	f0078793          	addi	a5,a5,-256 # 200a4 <__malloc_trim_threshold+0x6c>
    21ac:	02f12223          	sw	a5,36(sp)
    21b0:	0001e797          	auipc	a5,0x1e
    21b4:	08078793          	addi	a5,a5,128 # 20230 <__malloc_trim_threshold+0x1f8>
    21b8:	0007a703          	lw	a4,0(a5)
    21bc:	07512623          	sw	s5,108(sp)
    21c0:	06912a23          	sw	s1,116(sp)
    21c4:	04e12c23          	sw	a4,88(sp)
    21c8:	0047a703          	lw	a4,4(a5)
    21cc:	07312c23          	sw	s3,120(sp)
    21d0:	000b8a93          	mv	s5,s7
    21d4:	04e12e23          	sw	a4,92(sp)
    21d8:	0087a703          	lw	a4,8(a5)
    21dc:	00c7a783          	lw	a5,12(a5)
    21e0:	09a12223          	sw	s10,132(sp)
    21e4:	06e12023          	sw	a4,96(sp)
    21e8:	fffc8713          	addi	a4,s9,-1
    21ec:	09812423          	sw	s8,136(sp)
    21f0:	09712623          	sw	s7,140(sp)
    21f4:	01812483          	lw	s1,24(sp)
    21f8:	06f12223          	sw	a5,100(sp)
    21fc:	06812823          	sw	s0,112(sp)
    2200:	00070993          	mv	s3,a4
    2204:	07912e23          	sw	s9,124(sp)
    2208:	09112023          	sw	a7,128(sp)
    220c:	00068b93          	mv	s7,a3
    2210:	000e0c13          	mv	s8,t3
    2214:	000e8d13          	mv	s10,t4
    2218:	000f0d93          	mv	s11,t5
    221c:	0500006f          	j	226c <_vfprintf_r+0x20c0>
    2220:	00090593          	mv	a1,s2
    2224:	000b0513          	mv	a0,s6
    2228:	02c12023          	sw	a2,32(sp)
    222c:	01f12e23          	sw	t6,28(sp)
    2230:	00512c23          	sw	t0,24(sp)
    2234:	0c512223          	sw	t0,196(sp)
    2238:	0df12423          	sw	t6,200(sp)
    223c:	0cc12623          	sw	a2,204(sp)
    2240:	0d912023          	sw	s9,192(sp)
    2244:	0a012823          	sw	zero,176(sp)
    2248:	0a012a23          	sw	zero,180(sp)
    224c:	0a012c23          	sw	zero,184(sp)
    2250:	0a012e23          	sw	zero,188(sp)
    2254:	0c00f0ef          	jal	ra,11314 <__eqtf2>
    2258:	fff98993          	addi	s3,s3,-1
    225c:	000c0293          	mv	t0,s8
    2260:	000d0f93          	mv	t6,s10
    2264:	000d8613          	mv	a2,s11
    2268:	0e050863          	beqz	a0,2358 <_vfprintf_r+0x21ac>
    226c:	05812783          	lw	a5,88(sp)
    2270:	00048613          	mv	a2,s1
    2274:	00090593          	mv	a1,s2
    2278:	0af12023          	sw	a5,160(sp)
    227c:	05c12783          	lw	a5,92(sp)
    2280:	000b0513          	mv	a0,s6
    2284:	0b712823          	sw	s7,176(sp)
    2288:	0af12223          	sw	a5,164(sp)
    228c:	06012783          	lw	a5,96(sp)
    2290:	0b812a23          	sw	s8,180(sp)
    2294:	0ba12c23          	sw	s10,184(sp)
    2298:	0af12423          	sw	a5,168(sp)
    229c:	06412783          	lw	a5,100(sp)
    22a0:	0bb12e23          	sw	s11,188(sp)
    22a4:	0af12623          	sw	a5,172(sp)
    22a8:	4100f0ef          	jal	ra,116b8 <__multf3>
    22ac:	000b0513          	mv	a0,s6
    22b0:	299110ef          	jal	ra,13d48 <__fixtfsi>
    22b4:	00050593          	mv	a1,a0
    22b8:	00050413          	mv	s0,a0
    22bc:	000b0513          	mv	a0,s6
    22c0:	0c012c03          	lw	s8,192(sp)
    22c4:	0c412b83          	lw	s7,196(sp)
    22c8:	0c812d83          	lw	s11,200(sp)
    22cc:	0cc12d03          	lw	s10,204(sp)
    22d0:	375110ef          	jal	ra,13e44 <__floatsitf>
    22d4:	0c012683          	lw	a3,192(sp)
    22d8:	04012603          	lw	a2,64(sp)
    22dc:	00048593          	mv	a1,s1
    22e0:	08d12823          	sw	a3,144(sp)
    22e4:	0c412683          	lw	a3,196(sp)
    22e8:	00090513          	mv	a0,s2
    22ec:	0b812023          	sw	s8,160(sp)
    22f0:	08d12a23          	sw	a3,148(sp)
    22f4:	0c812683          	lw	a3,200(sp)
    22f8:	0b712223          	sw	s7,164(sp)
    22fc:	0bb12423          	sw	s11,168(sp)
    2300:	08d12c23          	sw	a3,152(sp)
    2304:	0cc12683          	lw	a3,204(sp)
    2308:	0ba12623          	sw	s10,172(sp)
    230c:	08d12e23          	sw	a3,156(sp)
    2310:	490100ef          	jal	ra,127a0 <__subtf3>
    2314:	02412783          	lw	a5,36(sp)
    2318:	0b012c83          	lw	s9,176(sp)
    231c:	0b412283          	lw	t0,180(sp)
    2320:	008786b3          	add	a3,a5,s0
    2324:	0006c683          	lbu	a3,0(a3)
    2328:	0b812f83          	lw	t6,184(sp)
    232c:	0bc12603          	lw	a2,188(sp)
    2330:	05512a23          	sw	s5,84(sp)
    2334:	00da8023          	sb	a3,0(s5)
    2338:	05312623          	sw	s3,76(sp)
    233c:	fff00793          	li	a5,-1
    2340:	001a8a93          	addi	s5,s5,1
    2344:	000c8b93          	mv	s7,s9
    2348:	00028c13          	mv	s8,t0
    234c:	000f8d13          	mv	s10,t6
    2350:	00060d93          	mv	s11,a2
    2354:	ecf996e3          	bne	s3,a5,2220 <_vfprintf_r+0x2074>
    2358:	0001e717          	auipc	a4,0x1e
    235c:	ee870713          	addi	a4,a4,-280 # 20240 <__malloc_trim_threshold+0x208>
    2360:	00072e83          	lw	t4,0(a4)
    2364:	00472e03          	lw	t3,4(a4)
    2368:	00872683          	lw	a3,8(a4)
    236c:	08012883          	lw	a7,128(sp)
    2370:	00c72703          	lw	a4,12(a4)
    2374:	000c8393          	mv	t2,s9
    2378:	01112e23          	sw	a7,28(sp)
    237c:	00812c23          	sw	s0,24(sp)
    2380:	000a8d93          	mv	s11,s5
    2384:	07012403          	lw	s0,112(sp)
    2388:	06c12a83          	lw	s5,108(sp)
    238c:	0c712023          	sw	t2,192(sp)
    2390:	06712823          	sw	t2,112(sp)
    2394:	0c512223          	sw	t0,196(sp)
    2398:	06512623          	sw	t0,108(sp)
    239c:	0df12423          	sw	t6,200(sp)
    23a0:	07f12223          	sw	t6,100(sp)
    23a4:	0cc12623          	sw	a2,204(sp)
    23a8:	06c12023          	sw	a2,96(sp)
    23ac:	0bd12823          	sw	t4,176(sp)
    23b0:	05d12e23          	sw	t4,92(sp)
    23b4:	0bc12a23          	sw	t3,180(sp)
    23b8:	05c12c23          	sw	t3,88(sp)
    23bc:	0ad12c23          	sw	a3,184(sp)
    23c0:	04d12023          	sw	a3,64(sp)
    23c4:	0ae12e23          	sw	a4,188(sp)
    23c8:	02e12023          	sw	a4,32(sp)
    23cc:	00090593          	mv	a1,s2
    23d0:	000b0513          	mv	a0,s6
    23d4:	07412483          	lw	s1,116(sp)
    23d8:	07812983          	lw	s3,120(sp)
    23dc:	08412d03          	lw	s10,132(sp)
    23e0:	08812c03          	lw	s8,136(sp)
    23e4:	08c12b83          	lw	s7,140(sp)
    23e8:	07c12c83          	lw	s9,124(sp)
    23ec:	7f90e0ef          	jal	ra,113e4 <__getf2>
    23f0:	01c12883          	lw	a7,28(sp)
    23f4:	46a04a63          	bgtz	a0,2868 <_vfprintf_r+0x26bc>
    23f8:	00090593          	mv	a1,s2
    23fc:	000b0513          	mv	a0,s6
    2400:	7150e0ef          	jal	ra,11314 <__eqtf2>
    2404:	01c12883          	lw	a7,28(sp)
    2408:	00051863          	bnez	a0,2418 <_vfprintf_r+0x226c>
    240c:	01812783          	lw	a5,24(sp)
    2410:	0017fb13          	andi	s6,a5,1
    2414:	440b1a63          	bnez	s6,2868 <_vfprintf_r+0x26bc>
    2418:	04c12783          	lw	a5,76(sp)
    241c:	03000693          	li	a3,48
    2420:	00178713          	addi	a4,a5,1
    2424:	00ed8733          	add	a4,s11,a4
    2428:	0007c863          	bltz	a5,2438 <_vfprintf_r+0x228c>
    242c:	001d8d93          	addi	s11,s11,1
    2430:	fedd8fa3          	sb	a3,-1(s11)
    2434:	ffb71ce3          	bne	a4,s11,242c <_vfprintf_r+0x2280>
    2438:	417d87b3          	sub	a5,s11,s7
    243c:	00f12e23          	sw	a5,28(sp)
    2440:	b68fe06f          	j	7a8 <_vfprintf_r+0x5fc>
    2444:	01c12703          	lw	a4,28(sp)
    2448:	000b8c13          	mv	s8,s7
    244c:	02412b83          	lw	s7,36(sp)
    2450:	02812c23          	sw	s0,56(sp)
    2454:	01812a83          	lw	s5,24(sp)
    2458:	00eb8733          	add	a4,s7,a4
    245c:	03c12403          	lw	s0,60(sp)
    2460:	04012983          	lw	s3,64(sp)
    2464:	02012b03          	lw	s6,32(sp)
    2468:	00976463          	bltu	a4,s1,2470 <_vfprintf_r+0x22c4>
    246c:	f75fe06f          	j	13e0 <_vfprintf_r+0x1234>
    2470:	00070493          	mv	s1,a4
    2474:	f6dfe06f          	j	13e0 <_vfprintf_r+0x1234>
    2478:	01812703          	lw	a4,24(sp)
    247c:	ffd00793          	li	a5,-3
    2480:	00f74463          	blt	a4,a5,2488 <_vfprintf_r+0x22dc>
    2484:	00ecda63          	bge	s9,a4,2498 <_vfprintf_r+0x22ec>
    2488:	ffe48493          	addi	s1,s1,-2
    248c:	fdf4f793          	andi	a5,s1,-33
    2490:	02f12e23          	sw	a5,60(sp)
    2494:	b3cfe06f          	j	7d0 <_vfprintf_r+0x624>
    2498:	01812703          	lw	a4,24(sp)
    249c:	01c12783          	lw	a5,28(sp)
    24a0:	28f74663          	blt	a4,a5,272c <_vfprintf_r+0x2580>
    24a4:	05012783          	lw	a5,80(sp)
    24a8:	00070913          	mv	s2,a4
    24ac:	0017f793          	andi	a5,a5,1
    24b0:	00078663          	beqz	a5,24bc <_vfprintf_r+0x2310>
    24b4:	02812783          	lw	a5,40(sp)
    24b8:	00f70933          	add	s2,a4,a5
    24bc:	05012783          	lw	a5,80(sp)
    24c0:	4007f793          	andi	a5,a5,1024
    24c4:	00078663          	beqz	a5,24d0 <_vfprintf_r+0x2324>
    24c8:	01812783          	lw	a5,24(sp)
    24cc:	4af04663          	bgtz	a5,2978 <_vfprintf_r+0x27cc>
    24d0:	fff94b13          	not	s6,s2
    24d4:	41fb5b13          	srai	s6,s6,0x1f
    24d8:	01697b33          	and	s6,s2,s6
    24dc:	06700493          	li	s1,103
    24e0:	02012223          	sw	zero,36(sp)
    24e4:	02012023          	sw	zero,32(sp)
    24e8:	c04fe06f          	j	8ec <_vfprintf_r+0x740>
    24ec:	0d714783          	lbu	a5,215(sp)
    24f0:	00000c93          	li	s9,0
    24f4:	00078463          	beqz	a5,24fc <_vfprintf_r+0x2350>
    24f8:	ed0fe06f          	j	bc8 <_vfprintf_r+0xa1c>
    24fc:	eddfd06f          	j	3d8 <_vfprintf_r+0x22c>
    2500:	000b8c13          	mv	s8,s7
    2504:	d0dfe06f          	j	1210 <_vfprintf_r+0x1064>
    2508:	00012823          	sw	zero,16(sp)
    250c:	00078a93          	mv	s5,a5
    2510:	800007b7          	lui	a5,0x80000
    2514:	01c7ce33          	xor	t3,a5,t3
    2518:	02d00793          	li	a5,45
    251c:	06f12423          	sw	a5,104(sp)
    2520:	b65ff06f          	j	2084 <_vfprintf_r+0x1ed8>
    2524:	0f410613          	addi	a2,sp,244
    2528:	000b8593          	mv	a1,s7
    252c:	000d0513          	mv	a0,s10
    2530:	2d8090ef          	jal	ra,b808 <__sprint_r>
    2534:	fc0516e3          	bnez	a0,2500 <_vfprintf_r+0x2354>
    2538:	00044683          	lbu	a3,0(s0)
    253c:	0fc12783          	lw	a5,252(sp)
    2540:	11c10893          	addi	a7,sp,284
    2544:	00d484b3          	add	s1,s1,a3
    2548:	881ff06f          	j	1dc8 <_vfprintf_r+0x1c1c>
    254c:	0c010b13          	addi	s6,sp,192
    2550:	0e010793          	addi	a5,sp,224
    2554:	0dc10713          	addi	a4,sp,220
    2558:	0ec10813          	addi	a6,sp,236
    255c:	000c8693          	mv	a3,s9
    2560:	00300613          	li	a2,3
    2564:	000b0593          	mv	a1,s6
    2568:	000d0513          	mv	a0,s10
    256c:	05112023          	sw	a7,64(sp)
    2570:	0dd12023          	sw	t4,192(sp)
    2574:	03d12223          	sw	t4,36(sp)
    2578:	0de12223          	sw	t5,196(sp)
    257c:	03e12023          	sw	t5,32(sp)
    2580:	0df12423          	sw	t6,200(sp)
    2584:	01f12e23          	sw	t6,28(sp)
    2588:	0dc12623          	sw	t3,204(sp)
    258c:	01c12c23          	sw	t3,24(sp)
    2590:	645020ef          	jal	ra,53d4 <_ldtoa_r>
    2594:	00054703          	lbu	a4,0(a0)
    2598:	03000793          	li	a5,48
    259c:	01812e03          	lw	t3,24(sp)
    25a0:	01c12f83          	lw	t6,28(sp)
    25a4:	02012f03          	lw	t5,32(sp)
    25a8:	02412e83          	lw	t4,36(sp)
    25ac:	04012883          	lw	a7,64(sp)
    25b0:	00050b93          	mv	s7,a0
    25b4:	0b010913          	addi	s2,sp,176
    25b8:	06f70c63          	beq	a4,a5,2630 <_vfprintf_r+0x2484>
    25bc:	0dc12783          	lw	a5,220(sp)
    25c0:	019787b3          	add	a5,a5,s9
    25c4:	00fb8db3          	add	s11,s7,a5
    25c8:	00090593          	mv	a1,s2
    25cc:	000b0513          	mv	a0,s6
    25d0:	01112c23          	sw	a7,24(sp)
    25d4:	0dd12023          	sw	t4,192(sp)
    25d8:	0de12223          	sw	t5,196(sp)
    25dc:	0df12423          	sw	t6,200(sp)
    25e0:	0dc12623          	sw	t3,204(sp)
    25e4:	0a012823          	sw	zero,176(sp)
    25e8:	0a012a23          	sw	zero,180(sp)
    25ec:	0a012c23          	sw	zero,184(sp)
    25f0:	0a012e23          	sw	zero,188(sp)
    25f4:	5210e0ef          	jal	ra,11314 <__eqtf2>
    25f8:	01812883          	lw	a7,24(sp)
    25fc:	000d8793          	mv	a5,s11
    2600:	00051463          	bnez	a0,2608 <_vfprintf_r+0x245c>
    2604:	99cfe06f          	j	7a0 <_vfprintf_r+0x5f4>
    2608:	0ec12783          	lw	a5,236(sp)
    260c:	01b7e463          	bltu	a5,s11,2614 <_vfprintf_r+0x2468>
    2610:	990fe06f          	j	7a0 <_vfprintf_r+0x5f4>
    2614:	03000693          	li	a3,48
    2618:	00178713          	addi	a4,a5,1 # 80000001 <_stack+0x7ffc0001>
    261c:	0ee12623          	sw	a4,236(sp)
    2620:	00d78023          	sb	a3,0(a5)
    2624:	0ec12783          	lw	a5,236(sp)
    2628:	ffb7e8e3          	bltu	a5,s11,2618 <_vfprintf_r+0x246c>
    262c:	974fe06f          	j	7a0 <_vfprintf_r+0x5f4>
    2630:	0b010913          	addi	s2,sp,176
    2634:	00090593          	mv	a1,s2
    2638:	000b0513          	mv	a0,s6
    263c:	05112023          	sw	a7,64(sp)
    2640:	0dd12023          	sw	t4,192(sp)
    2644:	03d12223          	sw	t4,36(sp)
    2648:	0de12223          	sw	t5,196(sp)
    264c:	03e12023          	sw	t5,32(sp)
    2650:	0df12423          	sw	t6,200(sp)
    2654:	01f12e23          	sw	t6,28(sp)
    2658:	0dc12623          	sw	t3,204(sp)
    265c:	01c12c23          	sw	t3,24(sp)
    2660:	0a012823          	sw	zero,176(sp)
    2664:	0a012a23          	sw	zero,180(sp)
    2668:	0a012c23          	sw	zero,184(sp)
    266c:	0a012e23          	sw	zero,188(sp)
    2670:	4a50e0ef          	jal	ra,11314 <__eqtf2>
    2674:	01812e03          	lw	t3,24(sp)
    2678:	01c12f83          	lw	t6,28(sp)
    267c:	02012f03          	lw	t5,32(sp)
    2680:	02412e83          	lw	t4,36(sp)
    2684:	04012883          	lw	a7,64(sp)
    2688:	f2050ae3          	beqz	a0,25bc <_vfprintf_r+0x2410>
    268c:	00100793          	li	a5,1
    2690:	419787b3          	sub	a5,a5,s9
    2694:	0cf12e23          	sw	a5,220(sp)
    2698:	f29ff06f          	j	25c0 <_vfprintf_r+0x2414>
    269c:	0f410613          	addi	a2,sp,244
    26a0:	000c0593          	mv	a1,s8
    26a4:	000d0513          	mv	a0,s10
    26a8:	160090ef          	jal	ra,b808 <__sprint_r>
    26ac:	00050463          	beqz	a0,26b4 <_vfprintf_r+0x2508>
    26b0:	b61fe06f          	j	1210 <_vfprintf_r+0x1064>
    26b4:	0dc12683          	lw	a3,220(sp)
    26b8:	0fc12783          	lw	a5,252(sp)
    26bc:	11c10893          	addi	a7,sp,284
    26c0:	d69fe06f          	j	1428 <_vfprintf_r+0x127c>
    26c4:	02d00793          	li	a5,45
    26c8:	0cf10ba3          	sb	a5,215(sp)
    26cc:	c5cff06f          	j	1b28 <_vfprintf_r+0x197c>
    26d0:	0d714783          	lbu	a5,215(sp)
    26d4:	01b12a23          	sw	s11,20(sp)
    26d8:	02012223          	sw	zero,36(sp)
    26dc:	02012023          	sw	zero,32(sp)
    26e0:	00012c23          	sw	zero,24(sp)
    26e4:	000c8b13          	mv	s6,s9
    26e8:	000c8913          	mv	s2,s9
    26ec:	00000c93          	li	s9,0
    26f0:	00078463          	beqz	a5,26f8 <_vfprintf_r+0x254c>
    26f4:	cd4fe06f          	j	bc8 <_vfprintf_r+0xa1c>
    26f8:	ce1fd06f          	j	3d8 <_vfprintf_r+0x22c>
    26fc:	0f410613          	addi	a2,sp,244
    2700:	000c0593          	mv	a1,s8
    2704:	000d0513          	mv	a0,s10
    2708:	100090ef          	jal	ra,b808 <__sprint_r>
    270c:	00050463          	beqz	a0,2714 <_vfprintf_r+0x2568>
    2710:	b01fe06f          	j	1210 <_vfprintf_r+0x1064>
    2714:	0dc12483          	lw	s1,220(sp)
    2718:	01c12703          	lw	a4,28(sp)
    271c:	0fc12783          	lw	a5,252(sp)
    2720:	11c10893          	addi	a7,sp,284
    2724:	40970633          	sub	a2,a4,s1
    2728:	d4dfe06f          	j	1474 <_vfprintf_r+0x12c8>
    272c:	01c12783          	lw	a5,28(sp)
    2730:	02812703          	lw	a4,40(sp)
    2734:	06700493          	li	s1,103
    2738:	00e78933          	add	s2,a5,a4
    273c:	01812783          	lw	a5,24(sp)
    2740:	40f05c63          	blez	a5,2b58 <_vfprintf_r+0x29ac>
    2744:	05012783          	lw	a5,80(sp)
    2748:	4007f793          	andi	a5,a5,1024
    274c:	22079863          	bnez	a5,297c <_vfprintf_r+0x27d0>
    2750:	fff94b13          	not	s6,s2
    2754:	41fb5b13          	srai	s6,s6,0x1f
    2758:	01697b33          	and	s6,s2,s6
    275c:	d85ff06f          	j	24e0 <_vfprintf_r+0x2334>
    2760:	05012783          	lw	a5,80(sp)
    2764:	01812703          	lw	a4,24(sp)
    2768:	0017f793          	andi	a5,a5,1
    276c:	0197e7b3          	or	a5,a5,s9
    2770:	40e05a63          	blez	a4,2b84 <_vfprintf_r+0x29d8>
    2774:	28079263          	bnez	a5,29f8 <_vfprintf_r+0x284c>
    2778:	01812903          	lw	s2,24(sp)
    277c:	06600493          	li	s1,102
    2780:	fc5ff06f          	j	2744 <_vfprintf_r+0x2598>
    2784:	ff000613          	li	a2,-16
    2788:	40d004b3          	neg	s1,a3
    278c:	12c6de63          	bge	a3,a2,28c8 <_vfprintf_r+0x271c>
    2790:	00700913          	li	s2,7
    2794:	00c0006f          	j	27a0 <_vfprintf_r+0x25f4>
    2798:	ff048493          	addi	s1,s1,-16
    279c:	129a5663          	bge	s4,s1,28c8 <_vfprintf_r+0x271c>
    27a0:	01078793          	addi	a5,a5,16
    27a4:	00170713          	addi	a4,a4,1
    27a8:	0001e697          	auipc	a3,0x1e
    27ac:	ac868693          	addi	a3,a3,-1336 # 20270 <zeroes.0>
    27b0:	00d8a023          	sw	a3,0(a7)
    27b4:	0148a223          	sw	s4,4(a7)
    27b8:	0ef12e23          	sw	a5,252(sp)
    27bc:	0ee12c23          	sw	a4,248(sp)
    27c0:	00888893          	addi	a7,a7,8
    27c4:	fce95ae3          	bge	s2,a4,2798 <_vfprintf_r+0x25ec>
    27c8:	0f410613          	addi	a2,sp,244
    27cc:	000c0593          	mv	a1,s8
    27d0:	000d0513          	mv	a0,s10
    27d4:	034090ef          	jal	ra,b808 <__sprint_r>
    27d8:	00050463          	beqz	a0,27e0 <_vfprintf_r+0x2634>
    27dc:	a35fe06f          	j	1210 <_vfprintf_r+0x1064>
    27e0:	0fc12783          	lw	a5,252(sp)
    27e4:	0f812703          	lw	a4,248(sp)
    27e8:	11c10893          	addi	a7,sp,284
    27ec:	fadff06f          	j	2798 <_vfprintf_r+0x25ec>
    27f0:	fff00793          	li	a5,-1
    27f4:	00f12623          	sw	a5,12(sp)
    27f8:	d19fd06f          	j	510 <_vfprintf_r+0x364>
    27fc:	001c8913          	addi	s2,s9,1
    2800:	0c010b13          	addi	s6,sp,192
    2804:	0ec10813          	addi	a6,sp,236
    2808:	0e010793          	addi	a5,sp,224
    280c:	0dc10713          	addi	a4,sp,220
    2810:	00090693          	mv	a3,s2
    2814:	00200613          	li	a2,2
    2818:	000b0593          	mv	a1,s6
    281c:	000d0513          	mv	a0,s10
    2820:	0dd12023          	sw	t4,192(sp)
    2824:	03d12223          	sw	t4,36(sp)
    2828:	0de12223          	sw	t5,196(sp)
    282c:	03e12023          	sw	t5,32(sp)
    2830:	0df12423          	sw	t6,200(sp)
    2834:	01f12e23          	sw	t6,28(sp)
    2838:	0dc12623          	sw	t3,204(sp)
    283c:	01c12c23          	sw	t3,24(sp)
    2840:	395020ef          	jal	ra,53d4 <_ldtoa_r>
    2844:	01812e03          	lw	t3,24(sp)
    2848:	01c12f83          	lw	t6,28(sp)
    284c:	02012f03          	lw	t5,32(sp)
    2850:	02412e83          	lw	t4,36(sp)
    2854:	04012883          	lw	a7,64(sp)
    2858:	00050b93          	mv	s7,a0
    285c:	012b8db3          	add	s11,s7,s2
    2860:	0b010913          	addi	s2,sp,176
    2864:	d65ff06f          	j	25c8 <_vfprintf_r+0x241c>
    2868:	05412783          	lw	a5,84(sp)
    286c:	000d8713          	mv	a4,s11
    2870:	0ef12623          	sw	a5,236(sp)
    2874:	02412783          	lw	a5,36(sp)
    2878:	fffdc683          	lbu	a3,-1(s11)
    287c:	00f7c603          	lbu	a2,15(a5)
    2880:	02c69063          	bne	a3,a2,28a0 <_vfprintf_r+0x26f4>
    2884:	03000593          	li	a1,48
    2888:	feb70fa3          	sb	a1,-1(a4)
    288c:	0ec12703          	lw	a4,236(sp)
    2890:	fff70793          	addi	a5,a4,-1
    2894:	0ef12623          	sw	a5,236(sp)
    2898:	fff74683          	lbu	a3,-1(a4)
    289c:	fed606e3          	beq	a2,a3,2888 <_vfprintf_r+0x26dc>
    28a0:	00168613          	addi	a2,a3,1
    28a4:	03900593          	li	a1,57
    28a8:	0ff67613          	zext.b	a2,a2
    28ac:	00b68663          	beq	a3,a1,28b8 <_vfprintf_r+0x270c>
    28b0:	fec70fa3          	sb	a2,-1(a4)
    28b4:	b85ff06f          	j	2438 <_vfprintf_r+0x228c>
    28b8:	02412783          	lw	a5,36(sp)
    28bc:	00a7c603          	lbu	a2,10(a5)
    28c0:	fec70fa3          	sb	a2,-1(a4)
    28c4:	b75ff06f          	j	2438 <_vfprintf_r+0x228c>
    28c8:	0001e697          	auipc	a3,0x1e
    28cc:	9a868693          	addi	a3,a3,-1624 # 20270 <zeroes.0>
    28d0:	009787b3          	add	a5,a5,s1
    28d4:	00170713          	addi	a4,a4,1
    28d8:	00d8a023          	sw	a3,0(a7)
    28dc:	0098a223          	sw	s1,4(a7)
    28e0:	0ef12e23          	sw	a5,252(sp)
    28e4:	0ee12c23          	sw	a4,248(sp)
    28e8:	00700693          	li	a3,7
    28ec:	96e6da63          	bge	a3,a4,1a60 <_vfprintf_r+0x18b4>
    28f0:	0f410613          	addi	a2,sp,244
    28f4:	000c0593          	mv	a1,s8
    28f8:	000d0513          	mv	a0,s10
    28fc:	70d080ef          	jal	ra,b808 <__sprint_r>
    2900:	00050463          	beqz	a0,2908 <_vfprintf_r+0x275c>
    2904:	90dfe06f          	j	1210 <_vfprintf_r+0x1064>
    2908:	0fc12783          	lw	a5,252(sp)
    290c:	0f812703          	lw	a4,248(sp)
    2910:	11c10893          	addi	a7,sp,284
    2914:	a90ff06f          	j	1ba4 <_vfprintf_r+0x19f8>
    2918:	03000793          	li	a5,48
    291c:	0cf10c23          	sb	a5,216(sp)
    2920:	07800793          	li	a5,120
    2924:	f20ff06f          	j	2044 <_vfprintf_r+0x1e98>
    2928:	000a8b13          	mv	s6,s5
    292c:	c98fe06f          	j	dc4 <_vfprintf_r+0xc18>
    2930:	001c8593          	addi	a1,s9,1
    2934:	000d0513          	mv	a0,s10
    2938:	01112823          	sw	a7,16(sp)
    293c:	114040ef          	jal	ra,6a50 <_malloc_r>
    2940:	01012883          	lw	a7,16(sp)
    2944:	00050b93          	mv	s7,a0
    2948:	2a050263          	beqz	a0,2bec <_vfprintf_r+0x2a40>
    294c:	00a12823          	sw	a0,16(sp)
    2950:	f10ff06f          	j	2060 <_vfprintf_r+0x1eb4>
    2954:	019b8db3          	add	s11,s7,s9
    2958:	0b010913          	addi	s2,sp,176
    295c:	c6dff06f          	j	25c8 <_vfprintf_r+0x241c>
    2960:	00600c93          	li	s9,6
    2964:	d71fd06f          	j	6d4 <_vfprintf_r+0x528>
    2968:	000c8463          	beqz	s9,2970 <_vfprintf_r+0x27c4>
    296c:	d69fd06f          	j	6d4 <_vfprintf_r+0x528>
    2970:	00100c93          	li	s9,1
    2974:	d61fd06f          	j	6d4 <_vfprintf_r+0x528>
    2978:	06700493          	li	s1,103
    297c:	03812603          	lw	a2,56(sp)
    2980:	0ff00713          	li	a4,255
    2984:	00064783          	lbu	a5,0(a2)
    2988:	28e78063          	beq	a5,a4,2c08 <_vfprintf_r+0x2a5c>
    298c:	01812683          	lw	a3,24(sp)
    2990:	00000513          	li	a0,0
    2994:	00000593          	li	a1,0
    2998:	00d7de63          	bge	a5,a3,29b4 <_vfprintf_r+0x2808>
    299c:	40f686b3          	sub	a3,a3,a5
    29a0:	00164783          	lbu	a5,1(a2)
    29a4:	04078463          	beqz	a5,29ec <_vfprintf_r+0x2840>
    29a8:	00158593          	addi	a1,a1,1
    29ac:	00160613          	addi	a2,a2,1
    29b0:	fee794e3          	bne	a5,a4,2998 <_vfprintf_r+0x27ec>
    29b4:	00d12c23          	sw	a3,24(sp)
    29b8:	02c12c23          	sw	a2,56(sp)
    29bc:	02b12023          	sw	a1,32(sp)
    29c0:	02a12223          	sw	a0,36(sp)
    29c4:	02412703          	lw	a4,36(sp)
    29c8:	02012783          	lw	a5,32(sp)
    29cc:	00e787b3          	add	a5,a5,a4
    29d0:	04412703          	lw	a4,68(sp)
    29d4:	02e787b3          	mul	a5,a5,a4
    29d8:	01278933          	add	s2,a5,s2
    29dc:	fff94b13          	not	s6,s2
    29e0:	41fb5b13          	srai	s6,s6,0x1f
    29e4:	01697b33          	and	s6,s2,s6
    29e8:	f05fd06f          	j	8ec <_vfprintf_r+0x740>
    29ec:	00064783          	lbu	a5,0(a2)
    29f0:	00150513          	addi	a0,a0,1
    29f4:	fbdff06f          	j	29b0 <_vfprintf_r+0x2804>
    29f8:	02812783          	lw	a5,40(sp)
    29fc:	06600493          	li	s1,102
    2a00:	00f707b3          	add	a5,a4,a5
    2a04:	01978933          	add	s2,a5,s9
    2a08:	d3dff06f          	j	2744 <_vfprintf_r+0x2598>
    2a0c:	0e610713          	addi	a4,sp,230
    2a10:	00069863          	bnez	a3,2a20 <_vfprintf_r+0x2874>
    2a14:	03000713          	li	a4,48
    2a18:	0ee10323          	sb	a4,230(sp)
    2a1c:	0e710713          	addi	a4,sp,231
    2a20:	1c010693          	addi	a3,sp,448
    2a24:	03078793          	addi	a5,a5,48
    2a28:	40d706b3          	sub	a3,a4,a3
    2a2c:	00f70023          	sb	a5,0(a4)
    2a30:	0dd68793          	addi	a5,a3,221
    2a34:	02f12a23          	sw	a5,52(sp)
    2a38:	e71fd06f          	j	8a8 <_vfprintf_r+0x6fc>
    2a3c:	0c010b13          	addi	s6,sp,192
    2a40:	000b0513          	mv	a0,s6
    2a44:	05112a23          	sw	a7,84(sp)
    2a48:	0de12223          	sw	t5,196(sp)
    2a4c:	0df12423          	sw	t6,200(sp)
    2a50:	0dd12023          	sw	t4,192(sp)
    2a54:	0dc12623          	sw	t3,204(sp)
    2a58:	78c110ef          	jal	ra,141e4 <__trunctfdf2>
    2a5c:	0dc10613          	addi	a2,sp,220
    2a60:	43d050ef          	jal	ra,869c <frexp>
    2a64:	00058613          	mv	a2,a1
    2a68:	00050593          	mv	a1,a0
    2a6c:	000b0513          	mv	a0,s6
    2a70:	540110ef          	jal	ra,13fb0 <__extenddftf2>
    2a74:	0c012e83          	lw	t4,192(sp)
    2a78:	0001d797          	auipc	a5,0x1d
    2a7c:	7d878793          	addi	a5,a5,2008 # 20250 <__malloc_trim_threshold+0x218>
    2a80:	0007ae03          	lw	t3,0(a5)
    2a84:	0bd12023          	sw	t4,160(sp)
    2a88:	0c412e83          	lw	t4,196(sp)
    2a8c:	0047a683          	lw	a3,4(a5)
    2a90:	0087a703          	lw	a4,8(a5)
    2a94:	0bd12223          	sw	t4,164(sp)
    2a98:	0c812e83          	lw	t4,200(sp)
    2a9c:	00c7a783          	lw	a5,12(a5)
    2aa0:	0a010613          	addi	a2,sp,160
    2aa4:	0bd12423          	sw	t4,168(sp)
    2aa8:	0cc12e83          	lw	t4,204(sp)
    2aac:	0b010913          	addi	s2,sp,176
    2ab0:	00060593          	mv	a1,a2
    2ab4:	00c12c23          	sw	a2,24(sp)
    2ab8:	00090513          	mv	a0,s2
    2abc:	09010613          	addi	a2,sp,144
    2ac0:	04c12023          	sw	a2,64(sp)
    2ac4:	0bd12623          	sw	t4,172(sp)
    2ac8:	09c12823          	sw	t3,144(sp)
    2acc:	08d12a23          	sw	a3,148(sp)
    2ad0:	08e12c23          	sw	a4,152(sp)
    2ad4:	08f12e23          	sw	a5,156(sp)
    2ad8:	3e10e0ef          	jal	ra,116b8 <__multf3>
    2adc:	0b012683          	lw	a3,176(sp)
    2ae0:	0b412e03          	lw	t3,180(sp)
    2ae4:	0b812e83          	lw	t4,184(sp)
    2ae8:	0bc12f03          	lw	t5,188(sp)
    2aec:	00090593          	mv	a1,s2
    2af0:	000b0513          	mv	a0,s6
    2af4:	0cd12023          	sw	a3,192(sp)
    2af8:	04d12623          	sw	a3,76(sp)
    2afc:	0dc12223          	sw	t3,196(sp)
    2b00:	03c12223          	sw	t3,36(sp)
    2b04:	0dd12423          	sw	t4,200(sp)
    2b08:	03d12023          	sw	t4,32(sp)
    2b0c:	0de12623          	sw	t5,204(sp)
    2b10:	01e12e23          	sw	t5,28(sp)
    2b14:	0a012823          	sw	zero,176(sp)
    2b18:	0a012a23          	sw	zero,180(sp)
    2b1c:	0a012c23          	sw	zero,184(sp)
    2b20:	0a012e23          	sw	zero,188(sp)
    2b24:	7f00e0ef          	jal	ra,11314 <__eqtf2>
    2b28:	01c12f03          	lw	t5,28(sp)
    2b2c:	02012e83          	lw	t4,32(sp)
    2b30:	02412e03          	lw	t3,36(sp)
    2b34:	04c12683          	lw	a3,76(sp)
    2b38:	05412883          	lw	a7,84(sp)
    2b3c:	00051663          	bnez	a0,2b48 <_vfprintf_r+0x299c>
    2b40:	00100793          	li	a5,1
    2b44:	0cf12e23          	sw	a5,220(sp)
    2b48:	0001d797          	auipc	a5,0x1d
    2b4c:	54878793          	addi	a5,a5,1352 # 20090 <__malloc_trim_threshold+0x58>
    2b50:	02f12223          	sw	a5,36(sp)
    2b54:	e5cff06f          	j	21b0 <_vfprintf_r+0x2004>
    2b58:	40f90cb3          	sub	s9,s2,a5
    2b5c:	001c8913          	addi	s2,s9,1
    2b60:	fff94b13          	not	s6,s2
    2b64:	41fb5b13          	srai	s6,s6,0x1f
    2b68:	01697b33          	and	s6,s2,s6
    2b6c:	975ff06f          	j	24e0 <_vfprintf_r+0x2334>
    2b70:	05012783          	lw	a5,80(sp)
    2b74:	0017f793          	andi	a5,a5,1
    2b78:	00079463          	bnez	a5,2b80 <_vfprintf_r+0x29d4>
    2b7c:	d4dfd06f          	j	8c8 <_vfprintf_r+0x71c>
    2b80:	d41fd06f          	j	8c0 <_vfprintf_r+0x714>
    2b84:	00079a63          	bnez	a5,2b98 <_vfprintf_r+0x29ec>
    2b88:	00100b13          	li	s6,1
    2b8c:	06600493          	li	s1,102
    2b90:	00100913          	li	s2,1
    2b94:	94dff06f          	j	24e0 <_vfprintf_r+0x2334>
    2b98:	02812783          	lw	a5,40(sp)
    2b9c:	06600493          	li	s1,102
    2ba0:	00178793          	addi	a5,a5,1
    2ba4:	01978933          	add	s2,a5,s9
    2ba8:	fff94b13          	not	s6,s2
    2bac:	41fb5b13          	srai	s6,s6,0x1f
    2bb0:	01697b33          	and	s6,s2,s6
    2bb4:	92dff06f          	j	24e0 <_vfprintf_r+0x2334>
    2bb8:	00088693          	mv	a3,a7
    2bbc:	b5dfe06f          	j	1718 <_vfprintf_r+0x156c>
    2bc0:	01412783          	lw	a5,20(sp)
    2bc4:	0007ac83          	lw	s9,0(a5)
    2bc8:	00478793          	addi	a5,a5,4
    2bcc:	000cd463          	bgez	s9,2bd4 <_vfprintf_r+0x2a28>
    2bd0:	fff00c93          	li	s9,-1
    2bd4:	00144483          	lbu	s1,1(s0)
    2bd8:	00f12a23          	sw	a5,20(sp)
    2bdc:	00068413          	mv	s0,a3
    2be0:	f6cfd06f          	j	34c <_vfprintf_r+0x1a0>
    2be4:	000c8913          	mv	s2,s9
    2be8:	c75ff06f          	j	285c <_vfprintf_r+0x26b0>
    2bec:	00cc5783          	lhu	a5,12(s8)
    2bf0:	0407e793          	ori	a5,a5,64
    2bf4:	00fc1623          	sh	a5,12(s8)
    2bf8:	909fd06f          	j	500 <_vfprintf_r+0x354>
    2bfc:	00200793          	li	a5,2
    2c00:	02f12a23          	sw	a5,52(sp)
    2c04:	ca5fd06f          	j	8a8 <_vfprintf_r+0x6fc>
    2c08:	02012223          	sw	zero,36(sp)
    2c0c:	02012023          	sw	zero,32(sp)
    2c10:	db5ff06f          	j	29c4 <_vfprintf_r+0x2818>

00002c14 <vfprintf>:
    2c14:	00060693          	mv	a3,a2
    2c18:	00058613          	mv	a2,a1
    2c1c:	00050593          	mv	a1,a0
    2c20:	0001d517          	auipc	a0,0x1d
    2c24:	41052503          	lw	a0,1040(a0) # 20030 <_impure_ptr>
    2c28:	d84fd06f          	j	1ac <_vfprintf_r>

00002c2c <__sbprintf>:
    2c2c:	00c5d783          	lhu	a5,12(a1)
    2c30:	0645ae03          	lw	t3,100(a1)
    2c34:	00e5d303          	lhu	t1,14(a1)
    2c38:	01c5a883          	lw	a7,28(a1)
    2c3c:	0245a803          	lw	a6,36(a1)
    2c40:	b8010113          	addi	sp,sp,-1152
    2c44:	ffd7f793          	andi	a5,a5,-3
    2c48:	40000713          	li	a4,1024
    2c4c:	46812c23          	sw	s0,1144(sp)
    2c50:	00f11a23          	sh	a5,20(sp)
    2c54:	00058413          	mv	s0,a1
    2c58:	07010793          	addi	a5,sp,112
    2c5c:	00810593          	addi	a1,sp,8
    2c60:	46912a23          	sw	s1,1140(sp)
    2c64:	47212823          	sw	s2,1136(sp)
    2c68:	46112e23          	sw	ra,1148(sp)
    2c6c:	00050913          	mv	s2,a0
    2c70:	07c12623          	sw	t3,108(sp)
    2c74:	00611b23          	sh	t1,22(sp)
    2c78:	03112223          	sw	a7,36(sp)
    2c7c:	03012623          	sw	a6,44(sp)
    2c80:	00f12423          	sw	a5,8(sp)
    2c84:	00f12c23          	sw	a5,24(sp)
    2c88:	00e12823          	sw	a4,16(sp)
    2c8c:	00e12e23          	sw	a4,28(sp)
    2c90:	02012023          	sw	zero,32(sp)
    2c94:	d18fd0ef          	jal	ra,1ac <_vfprintf_r>
    2c98:	00050493          	mv	s1,a0
    2c9c:	02055c63          	bgez	a0,2cd4 <__sbprintf+0xa8>
    2ca0:	01415783          	lhu	a5,20(sp)
    2ca4:	0407f793          	andi	a5,a5,64
    2ca8:	00078863          	beqz	a5,2cb8 <__sbprintf+0x8c>
    2cac:	00c45783          	lhu	a5,12(s0)
    2cb0:	0407e793          	ori	a5,a5,64
    2cb4:	00f41623          	sh	a5,12(s0)
    2cb8:	47c12083          	lw	ra,1148(sp)
    2cbc:	47812403          	lw	s0,1144(sp)
    2cc0:	47012903          	lw	s2,1136(sp)
    2cc4:	00048513          	mv	a0,s1
    2cc8:	47412483          	lw	s1,1140(sp)
    2ccc:	48010113          	addi	sp,sp,1152
    2cd0:	00008067          	ret
    2cd4:	00810593          	addi	a1,sp,8
    2cd8:	00090513          	mv	a0,s2
    2cdc:	3e0000ef          	jal	ra,30bc <_fflush_r>
    2ce0:	fc0500e3          	beqz	a0,2ca0 <__sbprintf+0x74>
    2ce4:	fff00493          	li	s1,-1
    2ce8:	fb9ff06f          	j	2ca0 <__sbprintf+0x74>

00002cec <__swsetup_r>:
    2cec:	ff010113          	addi	sp,sp,-16
    2cf0:	00812423          	sw	s0,8(sp)
    2cf4:	00912223          	sw	s1,4(sp)
    2cf8:	00112623          	sw	ra,12(sp)
    2cfc:	0001d797          	auipc	a5,0x1d
    2d00:	3347a783          	lw	a5,820(a5) # 20030 <_impure_ptr>
    2d04:	00050493          	mv	s1,a0
    2d08:	00058413          	mv	s0,a1
    2d0c:	00078663          	beqz	a5,2d18 <__swsetup_r+0x2c>
    2d10:	0387a703          	lw	a4,56(a5)
    2d14:	08070463          	beqz	a4,2d9c <__swsetup_r+0xb0>
    2d18:	00c41703          	lh	a4,12(s0)
    2d1c:	01071793          	slli	a5,a4,0x10
    2d20:	00877693          	andi	a3,a4,8
    2d24:	0107d793          	srli	a5,a5,0x10
    2d28:	08068863          	beqz	a3,2db8 <__swsetup_r+0xcc>
    2d2c:	01042683          	lw	a3,16(s0)
    2d30:	0a068863          	beqz	a3,2de0 <__swsetup_r+0xf4>
    2d34:	0017f613          	andi	a2,a5,1
    2d38:	02060863          	beqz	a2,2d68 <__swsetup_r+0x7c>
    2d3c:	01442603          	lw	a2,20(s0)
    2d40:	00042423          	sw	zero,8(s0)
    2d44:	00000513          	li	a0,0
    2d48:	40c00633          	neg	a2,a2
    2d4c:	00c42c23          	sw	a2,24(s0)
    2d50:	02068a63          	beqz	a3,2d84 <__swsetup_r+0x98>
    2d54:	00c12083          	lw	ra,12(sp)
    2d58:	00812403          	lw	s0,8(sp)
    2d5c:	00412483          	lw	s1,4(sp)
    2d60:	01010113          	addi	sp,sp,16
    2d64:	00008067          	ret
    2d68:	0027f613          	andi	a2,a5,2
    2d6c:	00000593          	li	a1,0
    2d70:	00061463          	bnez	a2,2d78 <__swsetup_r+0x8c>
    2d74:	01442583          	lw	a1,20(s0)
    2d78:	00b42423          	sw	a1,8(s0)
    2d7c:	00000513          	li	a0,0
    2d80:	fc069ae3          	bnez	a3,2d54 <__swsetup_r+0x68>
    2d84:	0807f793          	andi	a5,a5,128
    2d88:	fc0786e3          	beqz	a5,2d54 <__swsetup_r+0x68>
    2d8c:	04076713          	ori	a4,a4,64
    2d90:	00e41623          	sh	a4,12(s0)
    2d94:	fff00513          	li	a0,-1
    2d98:	fbdff06f          	j	2d54 <__swsetup_r+0x68>
    2d9c:	00078513          	mv	a0,a5
    2da0:	758000ef          	jal	ra,34f8 <__sinit>
    2da4:	00c41703          	lh	a4,12(s0)
    2da8:	01071793          	slli	a5,a4,0x10
    2dac:	00877693          	andi	a3,a4,8
    2db0:	0107d793          	srli	a5,a5,0x10
    2db4:	f6069ce3          	bnez	a3,2d2c <__swsetup_r+0x40>
    2db8:	0107f693          	andi	a3,a5,16
    2dbc:	08068263          	beqz	a3,2e40 <__swsetup_r+0x154>
    2dc0:	0047f793          	andi	a5,a5,4
    2dc4:	04079463          	bnez	a5,2e0c <__swsetup_r+0x120>
    2dc8:	01042683          	lw	a3,16(s0)
    2dcc:	00876713          	ori	a4,a4,8
    2dd0:	01071793          	slli	a5,a4,0x10
    2dd4:	00e41623          	sh	a4,12(s0)
    2dd8:	0107d793          	srli	a5,a5,0x10
    2ddc:	f4069ce3          	bnez	a3,2d34 <__swsetup_r+0x48>
    2de0:	2807f613          	andi	a2,a5,640
    2de4:	20000593          	li	a1,512
    2de8:	f4b606e3          	beq	a2,a1,2d34 <__swsetup_r+0x48>
    2dec:	00040593          	mv	a1,s0
    2df0:	00048513          	mv	a0,s1
    2df4:	1fd030ef          	jal	ra,67f0 <__smakebuf_r>
    2df8:	00c41703          	lh	a4,12(s0)
    2dfc:	01042683          	lw	a3,16(s0)
    2e00:	01071793          	slli	a5,a4,0x10
    2e04:	0107d793          	srli	a5,a5,0x10
    2e08:	f2dff06f          	j	2d34 <__swsetup_r+0x48>
    2e0c:	03042583          	lw	a1,48(s0)
    2e10:	00058e63          	beqz	a1,2e2c <__swsetup_r+0x140>
    2e14:	04040793          	addi	a5,s0,64
    2e18:	00f58863          	beq	a1,a5,2e28 <__swsetup_r+0x13c>
    2e1c:	00048513          	mv	a0,s1
    2e20:	061000ef          	jal	ra,3680 <_free_r>
    2e24:	00c41703          	lh	a4,12(s0)
    2e28:	02042823          	sw	zero,48(s0)
    2e2c:	01042683          	lw	a3,16(s0)
    2e30:	fdb77713          	andi	a4,a4,-37
    2e34:	00042223          	sw	zero,4(s0)
    2e38:	00d42023          	sw	a3,0(s0)
    2e3c:	f91ff06f          	j	2dcc <__swsetup_r+0xe0>
    2e40:	00900793          	li	a5,9
    2e44:	00f4a023          	sw	a5,0(s1)
    2e48:	04076713          	ori	a4,a4,64
    2e4c:	00e41623          	sh	a4,12(s0)
    2e50:	fff00513          	li	a0,-1
    2e54:	f01ff06f          	j	2d54 <__swsetup_r+0x68>

00002e58 <__sflush_r>:
    2e58:	00c59783          	lh	a5,12(a1)
    2e5c:	fe010113          	addi	sp,sp,-32
    2e60:	00812c23          	sw	s0,24(sp)
    2e64:	01312623          	sw	s3,12(sp)
    2e68:	00112e23          	sw	ra,28(sp)
    2e6c:	00912a23          	sw	s1,20(sp)
    2e70:	01212823          	sw	s2,16(sp)
    2e74:	0087f693          	andi	a3,a5,8
    2e78:	00058413          	mv	s0,a1
    2e7c:	00050993          	mv	s3,a0
    2e80:	10069c63          	bnez	a3,2f98 <__sflush_r+0x140>
    2e84:	00001737          	lui	a4,0x1
    2e88:	80070713          	addi	a4,a4,-2048 # 800 <_vfprintf_r+0x654>
    2e8c:	0045a683          	lw	a3,4(a1)
    2e90:	00e7e7b3          	or	a5,a5,a4
    2e94:	00f59623          	sh	a5,12(a1)
    2e98:	18d05663          	blez	a3,3024 <__sflush_r+0x1cc>
    2e9c:	02842703          	lw	a4,40(s0)
    2ea0:	0c070c63          	beqz	a4,2f78 <__sflush_r+0x120>
    2ea4:	01079793          	slli	a5,a5,0x10
    2ea8:	0107d793          	srli	a5,a5,0x10
    2eac:	000016b7          	lui	a3,0x1
    2eb0:	0009a483          	lw	s1,0(s3)
    2eb4:	00d7f6b3          	and	a3,a5,a3
    2eb8:	0009a023          	sw	zero,0(s3)
    2ebc:	01c42583          	lw	a1,28(s0)
    2ec0:	16069863          	bnez	a3,3030 <__sflush_r+0x1d8>
    2ec4:	00100693          	li	a3,1
    2ec8:	00000613          	li	a2,0
    2ecc:	00098513          	mv	a0,s3
    2ed0:	000700e7          	jalr	a4
    2ed4:	fff00793          	li	a5,-1
    2ed8:	18f50e63          	beq	a0,a5,3074 <__sflush_r+0x21c>
    2edc:	00c45783          	lhu	a5,12(s0)
    2ee0:	02842703          	lw	a4,40(s0)
    2ee4:	01c42583          	lw	a1,28(s0)
    2ee8:	0047f793          	andi	a5,a5,4
    2eec:	00078e63          	beqz	a5,2f08 <__sflush_r+0xb0>
    2ef0:	00442683          	lw	a3,4(s0)
    2ef4:	03042783          	lw	a5,48(s0)
    2ef8:	40d50533          	sub	a0,a0,a3
    2efc:	00078663          	beqz	a5,2f08 <__sflush_r+0xb0>
    2f00:	03c42783          	lw	a5,60(s0)
    2f04:	40f50533          	sub	a0,a0,a5
    2f08:	00050613          	mv	a2,a0
    2f0c:	00000693          	li	a3,0
    2f10:	00098513          	mv	a0,s3
    2f14:	000700e7          	jalr	a4
    2f18:	fff00793          	li	a5,-1
    2f1c:	10f51e63          	bne	a0,a5,3038 <__sflush_r+0x1e0>
    2f20:	0009a703          	lw	a4,0(s3)
    2f24:	00c41783          	lh	a5,12(s0)
    2f28:	16070a63          	beqz	a4,309c <__sflush_r+0x244>
    2f2c:	01d00693          	li	a3,29
    2f30:	00d70663          	beq	a4,a3,2f3c <__sflush_r+0xe4>
    2f34:	01600693          	li	a3,22
    2f38:	0cd71463          	bne	a4,a3,3000 <__sflush_r+0x1a8>
    2f3c:	01042683          	lw	a3,16(s0)
    2f40:	fffff737          	lui	a4,0xfffff
    2f44:	7ff70713          	addi	a4,a4,2047 # fffff7ff <_stack+0xfffbf7ff>
    2f48:	00e7f7b3          	and	a5,a5,a4
    2f4c:	00f41623          	sh	a5,12(s0)
    2f50:	00042223          	sw	zero,4(s0)
    2f54:	00d42023          	sw	a3,0(s0)
    2f58:	03042583          	lw	a1,48(s0)
    2f5c:	0099a023          	sw	s1,0(s3)
    2f60:	00058c63          	beqz	a1,2f78 <__sflush_r+0x120>
    2f64:	04040793          	addi	a5,s0,64
    2f68:	00f58663          	beq	a1,a5,2f74 <__sflush_r+0x11c>
    2f6c:	00098513          	mv	a0,s3
    2f70:	710000ef          	jal	ra,3680 <_free_r>
    2f74:	02042823          	sw	zero,48(s0)
    2f78:	00000513          	li	a0,0
    2f7c:	01c12083          	lw	ra,28(sp)
    2f80:	01812403          	lw	s0,24(sp)
    2f84:	01412483          	lw	s1,20(sp)
    2f88:	01012903          	lw	s2,16(sp)
    2f8c:	00c12983          	lw	s3,12(sp)
    2f90:	02010113          	addi	sp,sp,32
    2f94:	00008067          	ret
    2f98:	0105a903          	lw	s2,16(a1)
    2f9c:	fc090ee3          	beqz	s2,2f78 <__sflush_r+0x120>
    2fa0:	0005a483          	lw	s1,0(a1)
    2fa4:	01079713          	slli	a4,a5,0x10
    2fa8:	01075713          	srli	a4,a4,0x10
    2fac:	00377713          	andi	a4,a4,3
    2fb0:	0125a023          	sw	s2,0(a1)
    2fb4:	412484b3          	sub	s1,s1,s2
    2fb8:	00000793          	li	a5,0
    2fbc:	00071463          	bnez	a4,2fc4 <__sflush_r+0x16c>
    2fc0:	0145a783          	lw	a5,20(a1)
    2fc4:	00f42423          	sw	a5,8(s0)
    2fc8:	00904863          	bgtz	s1,2fd8 <__sflush_r+0x180>
    2fcc:	fadff06f          	j	2f78 <__sflush_r+0x120>
    2fd0:	00a90933          	add	s2,s2,a0
    2fd4:	fa9052e3          	blez	s1,2f78 <__sflush_r+0x120>
    2fd8:	02442783          	lw	a5,36(s0)
    2fdc:	01c42583          	lw	a1,28(s0)
    2fe0:	00048693          	mv	a3,s1
    2fe4:	00090613          	mv	a2,s2
    2fe8:	00098513          	mv	a0,s3
    2fec:	000780e7          	jalr	a5
    2ff0:	40a484b3          	sub	s1,s1,a0
    2ff4:	fca04ee3          	bgtz	a0,2fd0 <__sflush_r+0x178>
    2ff8:	00c45783          	lhu	a5,12(s0)
    2ffc:	fff00513          	li	a0,-1
    3000:	0407e793          	ori	a5,a5,64
    3004:	01c12083          	lw	ra,28(sp)
    3008:	00f41623          	sh	a5,12(s0)
    300c:	01812403          	lw	s0,24(sp)
    3010:	01412483          	lw	s1,20(sp)
    3014:	01012903          	lw	s2,16(sp)
    3018:	00c12983          	lw	s3,12(sp)
    301c:	02010113          	addi	sp,sp,32
    3020:	00008067          	ret
    3024:	03c5a703          	lw	a4,60(a1)
    3028:	e6e04ae3          	bgtz	a4,2e9c <__sflush_r+0x44>
    302c:	f4dff06f          	j	2f78 <__sflush_r+0x120>
    3030:	05042503          	lw	a0,80(s0)
    3034:	eb5ff06f          	j	2ee8 <__sflush_r+0x90>
    3038:	00c45783          	lhu	a5,12(s0)
    303c:	fffff737          	lui	a4,0xfffff
    3040:	7ff70713          	addi	a4,a4,2047 # fffff7ff <_stack+0xfffbf7ff>
    3044:	00e7f7b3          	and	a5,a5,a4
    3048:	01042683          	lw	a3,16(s0)
    304c:	01079793          	slli	a5,a5,0x10
    3050:	4107d793          	srai	a5,a5,0x10
    3054:	00c7d713          	srli	a4,a5,0xc
    3058:	00f41623          	sh	a5,12(s0)
    305c:	00042223          	sw	zero,4(s0)
    3060:	00d42023          	sw	a3,0(s0)
    3064:	00177793          	andi	a5,a4,1
    3068:	ee0788e3          	beqz	a5,2f58 <__sflush_r+0x100>
    306c:	04a42823          	sw	a0,80(s0)
    3070:	ee9ff06f          	j	2f58 <__sflush_r+0x100>
    3074:	0009a783          	lw	a5,0(s3)
    3078:	e60782e3          	beqz	a5,2edc <__sflush_r+0x84>
    307c:	01d00713          	li	a4,29
    3080:	02e78863          	beq	a5,a4,30b0 <__sflush_r+0x258>
    3084:	01600713          	li	a4,22
    3088:	02e78463          	beq	a5,a4,30b0 <__sflush_r+0x258>
    308c:	00c45783          	lhu	a5,12(s0)
    3090:	0407e793          	ori	a5,a5,64
    3094:	00f41623          	sh	a5,12(s0)
    3098:	ee5ff06f          	j	2f7c <__sflush_r+0x124>
    309c:	fffff737          	lui	a4,0xfffff
    30a0:	7ff70713          	addi	a4,a4,2047 # fffff7ff <_stack+0xfffbf7ff>
    30a4:	01042683          	lw	a3,16(s0)
    30a8:	00e7f7b3          	and	a5,a5,a4
    30ac:	fa9ff06f          	j	3054 <__sflush_r+0x1fc>
    30b0:	0099a023          	sw	s1,0(s3)
    30b4:	00000513          	li	a0,0
    30b8:	ec5ff06f          	j	2f7c <__sflush_r+0x124>

000030bc <_fflush_r>:
    30bc:	fe010113          	addi	sp,sp,-32
    30c0:	00812c23          	sw	s0,24(sp)
    30c4:	00112e23          	sw	ra,28(sp)
    30c8:	00050413          	mv	s0,a0
    30cc:	00050663          	beqz	a0,30d8 <_fflush_r+0x1c>
    30d0:	03852783          	lw	a5,56(a0)
    30d4:	02078063          	beqz	a5,30f4 <_fflush_r+0x38>
    30d8:	00c59783          	lh	a5,12(a1)
    30dc:	02079663          	bnez	a5,3108 <_fflush_r+0x4c>
    30e0:	01c12083          	lw	ra,28(sp)
    30e4:	01812403          	lw	s0,24(sp)
    30e8:	00000513          	li	a0,0
    30ec:	02010113          	addi	sp,sp,32
    30f0:	00008067          	ret
    30f4:	00b12623          	sw	a1,12(sp)
    30f8:	400000ef          	jal	ra,34f8 <__sinit>
    30fc:	00c12583          	lw	a1,12(sp)
    3100:	00c59783          	lh	a5,12(a1)
    3104:	fc078ee3          	beqz	a5,30e0 <_fflush_r+0x24>
    3108:	00040513          	mv	a0,s0
    310c:	01812403          	lw	s0,24(sp)
    3110:	01c12083          	lw	ra,28(sp)
    3114:	02010113          	addi	sp,sp,32
    3118:	d41ff06f          	j	2e58 <__sflush_r>

0000311c <fflush>:
    311c:	06050863          	beqz	a0,318c <fflush+0x70>
    3120:	fe010113          	addi	sp,sp,-32
    3124:	00812c23          	sw	s0,24(sp)
    3128:	00112e23          	sw	ra,28(sp)
    312c:	00050413          	mv	s0,a0
    3130:	0001d517          	auipc	a0,0x1d
    3134:	f0052503          	lw	a0,-256(a0) # 20030 <_impure_ptr>
    3138:	00050663          	beqz	a0,3144 <fflush+0x28>
    313c:	03852783          	lw	a5,56(a0)
    3140:	02078a63          	beqz	a5,3174 <fflush+0x58>
    3144:	00c41783          	lh	a5,12(s0)
    3148:	00079c63          	bnez	a5,3160 <fflush+0x44>
    314c:	01c12083          	lw	ra,28(sp)
    3150:	01812403          	lw	s0,24(sp)
    3154:	00000513          	li	a0,0
    3158:	02010113          	addi	sp,sp,32
    315c:	00008067          	ret
    3160:	00040593          	mv	a1,s0
    3164:	01812403          	lw	s0,24(sp)
    3168:	01c12083          	lw	ra,28(sp)
    316c:	02010113          	addi	sp,sp,32
    3170:	ce9ff06f          	j	2e58 <__sflush_r>
    3174:	00a12623          	sw	a0,12(sp)
    3178:	380000ef          	jal	ra,34f8 <__sinit>
    317c:	00c41783          	lh	a5,12(s0)
    3180:	00c12503          	lw	a0,12(sp)
    3184:	fc0784e3          	beqz	a5,314c <fflush+0x30>
    3188:	fd9ff06f          	j	3160 <fflush+0x44>
    318c:	00000597          	auipc	a1,0x0
    3190:	f3058593          	addi	a1,a1,-208 # 30bc <_fflush_r>
    3194:	0001d517          	auipc	a0,0x1d
    3198:	e7c52503          	lw	a0,-388(a0) # 20010 <_global_impure_ptr>
    319c:	09d0006f          	j	3a38 <_fwalk_reent>

000031a0 <__fp_lock>:
    31a0:	00000513          	li	a0,0
    31a4:	00008067          	ret

000031a8 <_cleanup_r>:
    31a8:	0000a597          	auipc	a1,0xa
    31ac:	d0458593          	addi	a1,a1,-764 # ceac <_fclose_r>
    31b0:	0890006f          	j	3a38 <_fwalk_reent>

000031b4 <__fp_unlock>:
    31b4:	00000513          	li	a0,0
    31b8:	00008067          	ret

000031bc <__sinit.part.0>:
    31bc:	fe010113          	addi	sp,sp,-32
    31c0:	00112e23          	sw	ra,28(sp)
    31c4:	00812c23          	sw	s0,24(sp)
    31c8:	00912a23          	sw	s1,20(sp)
    31cc:	01212823          	sw	s2,16(sp)
    31d0:	01312623          	sw	s3,12(sp)
    31d4:	01412423          	sw	s4,8(sp)
    31d8:	01512223          	sw	s5,4(sp)
    31dc:	01612023          	sw	s6,0(sp)
    31e0:	00452403          	lw	s0,4(a0)
    31e4:	00000717          	auipc	a4,0x0
    31e8:	fc470713          	addi	a4,a4,-60 # 31a8 <_cleanup_r>
    31ec:	02e52e23          	sw	a4,60(a0)
    31f0:	2ec50793          	addi	a5,a0,748
    31f4:	00300713          	li	a4,3
    31f8:	2ee52223          	sw	a4,740(a0)
    31fc:	2ef52423          	sw	a5,744(a0)
    3200:	2e052023          	sw	zero,736(a0)
    3204:	00400793          	li	a5,4
    3208:	00050913          	mv	s2,a0
    320c:	00f42623          	sw	a5,12(s0)
    3210:	00800613          	li	a2,8
    3214:	00000593          	li	a1,0
    3218:	06042223          	sw	zero,100(s0)
    321c:	00042023          	sw	zero,0(s0)
    3220:	00042223          	sw	zero,4(s0)
    3224:	00042423          	sw	zero,8(s0)
    3228:	00042823          	sw	zero,16(s0)
    322c:	00042a23          	sw	zero,20(s0)
    3230:	00042c23          	sw	zero,24(s0)
    3234:	05c40513          	addi	a0,s0,92
    3238:	120040ef          	jal	ra,7358 <memset>
    323c:	00892483          	lw	s1,8(s2)
    3240:	00005b17          	auipc	s6,0x5
    3244:	5f4b0b13          	addi	s6,s6,1524 # 8834 <__sread>
    3248:	00005a97          	auipc	s5,0x5
    324c:	650a8a93          	addi	s5,s5,1616 # 8898 <__swrite>
    3250:	00005a17          	auipc	s4,0x5
    3254:	6d0a0a13          	addi	s4,s4,1744 # 8920 <__sseek>
    3258:	00005997          	auipc	s3,0x5
    325c:	73098993          	addi	s3,s3,1840 # 8988 <__sclose>
    3260:	000107b7          	lui	a5,0x10
    3264:	03642023          	sw	s6,32(s0)
    3268:	03542223          	sw	s5,36(s0)
    326c:	03442423          	sw	s4,40(s0)
    3270:	03342623          	sw	s3,44(s0)
    3274:	00842e23          	sw	s0,28(s0)
    3278:	00978793          	addi	a5,a5,9 # 10009 <__udivdi3+0x3bd>
    327c:	00f4a623          	sw	a5,12(s1)
    3280:	00800613          	li	a2,8
    3284:	00000593          	li	a1,0
    3288:	0604a223          	sw	zero,100(s1)
    328c:	0004a023          	sw	zero,0(s1)
    3290:	0004a223          	sw	zero,4(s1)
    3294:	0004a423          	sw	zero,8(s1)
    3298:	0004a823          	sw	zero,16(s1)
    329c:	0004aa23          	sw	zero,20(s1)
    32a0:	0004ac23          	sw	zero,24(s1)
    32a4:	05c48513          	addi	a0,s1,92
    32a8:	0b0040ef          	jal	ra,7358 <memset>
    32ac:	00c92403          	lw	s0,12(s2)
    32b0:	000207b7          	lui	a5,0x20
    32b4:	0364a023          	sw	s6,32(s1)
    32b8:	0354a223          	sw	s5,36(s1)
    32bc:	0344a423          	sw	s4,40(s1)
    32c0:	0334a623          	sw	s3,44(s1)
    32c4:	0094ae23          	sw	s1,28(s1)
    32c8:	01278793          	addi	a5,a5,18 # 20012 <_global_impure_ptr+0x2>
    32cc:	00f42623          	sw	a5,12(s0)
    32d0:	06042223          	sw	zero,100(s0)
    32d4:	00042023          	sw	zero,0(s0)
    32d8:	00042223          	sw	zero,4(s0)
    32dc:	00042423          	sw	zero,8(s0)
    32e0:	00042823          	sw	zero,16(s0)
    32e4:	00042a23          	sw	zero,20(s0)
    32e8:	00042c23          	sw	zero,24(s0)
    32ec:	05c40513          	addi	a0,s0,92
    32f0:	00800613          	li	a2,8
    32f4:	00000593          	li	a1,0
    32f8:	060040ef          	jal	ra,7358 <memset>
    32fc:	01c12083          	lw	ra,28(sp)
    3300:	03642023          	sw	s6,32(s0)
    3304:	03542223          	sw	s5,36(s0)
    3308:	03442423          	sw	s4,40(s0)
    330c:	03342623          	sw	s3,44(s0)
    3310:	00842e23          	sw	s0,28(s0)
    3314:	01812403          	lw	s0,24(sp)
    3318:	00100793          	li	a5,1
    331c:	02f92c23          	sw	a5,56(s2)
    3320:	01412483          	lw	s1,20(sp)
    3324:	01012903          	lw	s2,16(sp)
    3328:	00c12983          	lw	s3,12(sp)
    332c:	00812a03          	lw	s4,8(sp)
    3330:	00412a83          	lw	s5,4(sp)
    3334:	00012b03          	lw	s6,0(sp)
    3338:	02010113          	addi	sp,sp,32
    333c:	00008067          	ret

00003340 <__sfmoreglue>:
    3340:	ff010113          	addi	sp,sp,-16
    3344:	00912223          	sw	s1,4(sp)
    3348:	06800613          	li	a2,104
    334c:	fff58493          	addi	s1,a1,-1
    3350:	02c484b3          	mul	s1,s1,a2
    3354:	01212023          	sw	s2,0(sp)
    3358:	00058913          	mv	s2,a1
    335c:	00812423          	sw	s0,8(sp)
    3360:	00112623          	sw	ra,12(sp)
    3364:	07448593          	addi	a1,s1,116
    3368:	6e8030ef          	jal	ra,6a50 <_malloc_r>
    336c:	00050413          	mv	s0,a0
    3370:	02050063          	beqz	a0,3390 <__sfmoreglue+0x50>
    3374:	00c50513          	addi	a0,a0,12
    3378:	00042023          	sw	zero,0(s0)
    337c:	01242223          	sw	s2,4(s0)
    3380:	00a42423          	sw	a0,8(s0)
    3384:	06848613          	addi	a2,s1,104
    3388:	00000593          	li	a1,0
    338c:	7cd030ef          	jal	ra,7358 <memset>
    3390:	00c12083          	lw	ra,12(sp)
    3394:	00040513          	mv	a0,s0
    3398:	00812403          	lw	s0,8(sp)
    339c:	00412483          	lw	s1,4(sp)
    33a0:	00012903          	lw	s2,0(sp)
    33a4:	01010113          	addi	sp,sp,16
    33a8:	00008067          	ret

000033ac <__sfp>:
    33ac:	fe010113          	addi	sp,sp,-32
    33b0:	01212823          	sw	s2,16(sp)
    33b4:	0001d917          	auipc	s2,0x1d
    33b8:	c5c92903          	lw	s2,-932(s2) # 20010 <_global_impure_ptr>
    33bc:	03892783          	lw	a5,56(s2)
    33c0:	01312623          	sw	s3,12(sp)
    33c4:	00112e23          	sw	ra,28(sp)
    33c8:	00812c23          	sw	s0,24(sp)
    33cc:	00912a23          	sw	s1,20(sp)
    33d0:	01412423          	sw	s4,8(sp)
    33d4:	00050993          	mv	s3,a0
    33d8:	0a078a63          	beqz	a5,348c <__sfp+0xe0>
    33dc:	2e090913          	addi	s2,s2,736
    33e0:	fff00493          	li	s1,-1
    33e4:	00400a13          	li	s4,4
    33e8:	00492783          	lw	a5,4(s2)
    33ec:	00892403          	lw	s0,8(s2)
    33f0:	fff78793          	addi	a5,a5,-1
    33f4:	0007d863          	bgez	a5,3404 <__sfp+0x58>
    33f8:	0840006f          	j	347c <__sfp+0xd0>
    33fc:	06840413          	addi	s0,s0,104
    3400:	06978e63          	beq	a5,s1,347c <__sfp+0xd0>
    3404:	00c41703          	lh	a4,12(s0)
    3408:	fff78793          	addi	a5,a5,-1
    340c:	fe0718e3          	bnez	a4,33fc <__sfp+0x50>
    3410:	ffff07b7          	lui	a5,0xffff0
    3414:	00178793          	addi	a5,a5,1 # ffff0001 <_stack+0xfffb0001>
    3418:	06042223          	sw	zero,100(s0)
    341c:	00042023          	sw	zero,0(s0)
    3420:	00042223          	sw	zero,4(s0)
    3424:	00042423          	sw	zero,8(s0)
    3428:	00f42623          	sw	a5,12(s0)
    342c:	00042823          	sw	zero,16(s0)
    3430:	00042a23          	sw	zero,20(s0)
    3434:	00042c23          	sw	zero,24(s0)
    3438:	00800613          	li	a2,8
    343c:	00000593          	li	a1,0
    3440:	05c40513          	addi	a0,s0,92
    3444:	715030ef          	jal	ra,7358 <memset>
    3448:	02042823          	sw	zero,48(s0)
    344c:	02042a23          	sw	zero,52(s0)
    3450:	04042223          	sw	zero,68(s0)
    3454:	04042423          	sw	zero,72(s0)
    3458:	01c12083          	lw	ra,28(sp)
    345c:	00040513          	mv	a0,s0
    3460:	01812403          	lw	s0,24(sp)
    3464:	01412483          	lw	s1,20(sp)
    3468:	01012903          	lw	s2,16(sp)
    346c:	00c12983          	lw	s3,12(sp)
    3470:	00812a03          	lw	s4,8(sp)
    3474:	02010113          	addi	sp,sp,32
    3478:	00008067          	ret
    347c:	00092403          	lw	s0,0(s2)
    3480:	00040c63          	beqz	s0,3498 <__sfp+0xec>
    3484:	00040913          	mv	s2,s0
    3488:	f61ff06f          	j	33e8 <__sfp+0x3c>
    348c:	00090513          	mv	a0,s2
    3490:	d2dff0ef          	jal	ra,31bc <__sinit.part.0>
    3494:	f49ff06f          	j	33dc <__sfp+0x30>
    3498:	1ac00593          	li	a1,428
    349c:	00098513          	mv	a0,s3
    34a0:	5b0030ef          	jal	ra,6a50 <_malloc_r>
    34a4:	00050413          	mv	s0,a0
    34a8:	02050663          	beqz	a0,34d4 <__sfp+0x128>
    34ac:	00c50513          	addi	a0,a0,12
    34b0:	00042023          	sw	zero,0(s0)
    34b4:	01442223          	sw	s4,4(s0)
    34b8:	00a42423          	sw	a0,8(s0)
    34bc:	1a000613          	li	a2,416
    34c0:	00000593          	li	a1,0
    34c4:	695030ef          	jal	ra,7358 <memset>
    34c8:	00892023          	sw	s0,0(s2)
    34cc:	00040913          	mv	s2,s0
    34d0:	f19ff06f          	j	33e8 <__sfp+0x3c>
    34d4:	00092023          	sw	zero,0(s2)
    34d8:	00c00793          	li	a5,12
    34dc:	00f9a023          	sw	a5,0(s3)
    34e0:	f79ff06f          	j	3458 <__sfp+0xac>

000034e4 <_cleanup>:
    34e4:	0000a597          	auipc	a1,0xa
    34e8:	9c858593          	addi	a1,a1,-1592 # ceac <_fclose_r>
    34ec:	0001d517          	auipc	a0,0x1d
    34f0:	b2452503          	lw	a0,-1244(a0) # 20010 <_global_impure_ptr>
    34f4:	5440006f          	j	3a38 <_fwalk_reent>

000034f8 <__sinit>:
    34f8:	03852783          	lw	a5,56(a0)
    34fc:	00078463          	beqz	a5,3504 <__sinit+0xc>
    3500:	00008067          	ret
    3504:	cb9ff06f          	j	31bc <__sinit.part.0>

00003508 <__sfp_lock_acquire>:
    3508:	00008067          	ret

0000350c <__sfp_lock_release>:
    350c:	00008067          	ret

00003510 <__sinit_lock_acquire>:
    3510:	00008067          	ret

00003514 <__sinit_lock_release>:
    3514:	00008067          	ret

00003518 <__fp_lock_all>:
    3518:	00000597          	auipc	a1,0x0
    351c:	c8858593          	addi	a1,a1,-888 # 31a0 <__fp_lock>
    3520:	0001d517          	auipc	a0,0x1d
    3524:	b1052503          	lw	a0,-1264(a0) # 20030 <_impure_ptr>
    3528:	46c0006f          	j	3994 <_fwalk>

0000352c <__fp_unlock_all>:
    352c:	00000597          	auipc	a1,0x0
    3530:	c8858593          	addi	a1,a1,-888 # 31b4 <__fp_unlock>
    3534:	0001d517          	auipc	a0,0x1d
    3538:	afc52503          	lw	a0,-1284(a0) # 20030 <_impure_ptr>
    353c:	4580006f          	j	3994 <_fwalk>

00003540 <_malloc_trim_r>:
    3540:	fe010113          	addi	sp,sp,-32
    3544:	00812c23          	sw	s0,24(sp)
    3548:	00912a23          	sw	s1,20(sp)
    354c:	01212823          	sw	s2,16(sp)
    3550:	01312623          	sw	s3,12(sp)
    3554:	01412423          	sw	s4,8(sp)
    3558:	00058993          	mv	s3,a1
    355c:	00112e23          	sw	ra,28(sp)
    3560:	0001ea17          	auipc	s4,0x1e
    3564:	f1ca0a13          	addi	s4,s4,-228 # 2147c <__malloc_av_>
    3568:	00050913          	mv	s2,a0
    356c:	6c9030ef          	jal	ra,7434 <__malloc_lock>
    3570:	008a2703          	lw	a4,8(s4)
    3574:	000017b7          	lui	a5,0x1
    3578:	fef78413          	addi	s0,a5,-17 # fef <_vfprintf_r+0xe43>
    357c:	00472483          	lw	s1,4(a4)
    3580:	41340433          	sub	s0,s0,s3
    3584:	ffc4f493          	andi	s1,s1,-4
    3588:	00940433          	add	s0,s0,s1
    358c:	00c45413          	srli	s0,s0,0xc
    3590:	fff40413          	addi	s0,s0,-1
    3594:	00c41413          	slli	s0,s0,0xc
    3598:	00f44e63          	blt	s0,a5,35b4 <_malloc_trim_r+0x74>
    359c:	00000593          	li	a1,0
    35a0:	00090513          	mv	a0,s2
    35a4:	0a0050ef          	jal	ra,8644 <_sbrk_r>
    35a8:	008a2783          	lw	a5,8(s4)
    35ac:	009787b3          	add	a5,a5,s1
    35b0:	02f50863          	beq	a0,a5,35e0 <_malloc_trim_r+0xa0>
    35b4:	00090513          	mv	a0,s2
    35b8:	681030ef          	jal	ra,7438 <__malloc_unlock>
    35bc:	01c12083          	lw	ra,28(sp)
    35c0:	01812403          	lw	s0,24(sp)
    35c4:	01412483          	lw	s1,20(sp)
    35c8:	01012903          	lw	s2,16(sp)
    35cc:	00c12983          	lw	s3,12(sp)
    35d0:	00812a03          	lw	s4,8(sp)
    35d4:	00000513          	li	a0,0
    35d8:	02010113          	addi	sp,sp,32
    35dc:	00008067          	ret
    35e0:	408005b3          	neg	a1,s0
    35e4:	00090513          	mv	a0,s2
    35e8:	05c050ef          	jal	ra,8644 <_sbrk_r>
    35ec:	fff00793          	li	a5,-1
    35f0:	04f50a63          	beq	a0,a5,3644 <_malloc_trim_r+0x104>
    35f4:	0001e717          	auipc	a4,0x1e
    35f8:	2a870713          	addi	a4,a4,680 # 2189c <__malloc_current_mallinfo>
    35fc:	00072783          	lw	a5,0(a4)
    3600:	008a2683          	lw	a3,8(s4)
    3604:	408484b3          	sub	s1,s1,s0
    3608:	0014e493          	ori	s1,s1,1
    360c:	40878433          	sub	s0,a5,s0
    3610:	00090513          	mv	a0,s2
    3614:	0096a223          	sw	s1,4(a3) # 1004 <_vfprintf_r+0xe58>
    3618:	00872023          	sw	s0,0(a4)
    361c:	61d030ef          	jal	ra,7438 <__malloc_unlock>
    3620:	01c12083          	lw	ra,28(sp)
    3624:	01812403          	lw	s0,24(sp)
    3628:	01412483          	lw	s1,20(sp)
    362c:	01012903          	lw	s2,16(sp)
    3630:	00c12983          	lw	s3,12(sp)
    3634:	00812a03          	lw	s4,8(sp)
    3638:	00100513          	li	a0,1
    363c:	02010113          	addi	sp,sp,32
    3640:	00008067          	ret
    3644:	00000593          	li	a1,0
    3648:	00090513          	mv	a0,s2
    364c:	7f9040ef          	jal	ra,8644 <_sbrk_r>
    3650:	008a2703          	lw	a4,8(s4)
    3654:	00f00693          	li	a3,15
    3658:	40e507b3          	sub	a5,a0,a4
    365c:	f4f6dce3          	bge	a3,a5,35b4 <_malloc_trim_r+0x74>
    3660:	0001d697          	auipc	a3,0x1d
    3664:	9d46a683          	lw	a3,-1580(a3) # 20034 <__malloc_sbrk_base>
    3668:	40d50533          	sub	a0,a0,a3
    366c:	0017e793          	ori	a5,a5,1
    3670:	0001e697          	auipc	a3,0x1e
    3674:	22a6a623          	sw	a0,556(a3) # 2189c <__malloc_current_mallinfo>
    3678:	00f72223          	sw	a5,4(a4)
    367c:	f39ff06f          	j	35b4 <_malloc_trim_r+0x74>

00003680 <_free_r>:
    3680:	12058a63          	beqz	a1,37b4 <_free_r+0x134>
    3684:	ff010113          	addi	sp,sp,-16
    3688:	00812423          	sw	s0,8(sp)
    368c:	00912223          	sw	s1,4(sp)
    3690:	00058413          	mv	s0,a1
    3694:	00050493          	mv	s1,a0
    3698:	00112623          	sw	ra,12(sp)
    369c:	599030ef          	jal	ra,7434 <__malloc_lock>
    36a0:	ffc42583          	lw	a1,-4(s0)
    36a4:	ff840713          	addi	a4,s0,-8
    36a8:	0001e817          	auipc	a6,0x1e
    36ac:	dd480813          	addi	a6,a6,-556 # 2147c <__malloc_av_>
    36b0:	ffe5f793          	andi	a5,a1,-2
    36b4:	00f70633          	add	a2,a4,a5
    36b8:	00462683          	lw	a3,4(a2)
    36bc:	00882503          	lw	a0,8(a6)
    36c0:	ffc6f693          	andi	a3,a3,-4
    36c4:	1ac50a63          	beq	a0,a2,3878 <_free_r+0x1f8>
    36c8:	00d62223          	sw	a3,4(a2)
    36cc:	0015f593          	andi	a1,a1,1
    36d0:	00d60533          	add	a0,a2,a3
    36d4:	0a059063          	bnez	a1,3774 <_free_r+0xf4>
    36d8:	ff842303          	lw	t1,-8(s0)
    36dc:	00452583          	lw	a1,4(a0)
    36e0:	0001e897          	auipc	a7,0x1e
    36e4:	da488893          	addi	a7,a7,-604 # 21484 <__malloc_av_+0x8>
    36e8:	40670733          	sub	a4,a4,t1
    36ec:	00872503          	lw	a0,8(a4)
    36f0:	006787b3          	add	a5,a5,t1
    36f4:	0015f593          	andi	a1,a1,1
    36f8:	15150063          	beq	a0,a7,3838 <_free_r+0x1b8>
    36fc:	00c72303          	lw	t1,12(a4)
    3700:	00652623          	sw	t1,12(a0)
    3704:	00a32423          	sw	a0,8(t1)
    3708:	1e058463          	beqz	a1,38f0 <_free_r+0x270>
    370c:	0017e693          	ori	a3,a5,1
    3710:	00d72223          	sw	a3,4(a4)
    3714:	00f62023          	sw	a5,0(a2)
    3718:	1ff00693          	li	a3,511
    371c:	0af6e863          	bltu	a3,a5,37cc <_free_r+0x14c>
    3720:	ff87f693          	andi	a3,a5,-8
    3724:	00868693          	addi	a3,a3,8
    3728:	00482583          	lw	a1,4(a6)
    372c:	00d806b3          	add	a3,a6,a3
    3730:	0006a603          	lw	a2,0(a3)
    3734:	0057d513          	srli	a0,a5,0x5
    3738:	00100793          	li	a5,1
    373c:	00a797b3          	sll	a5,a5,a0
    3740:	00b7e7b3          	or	a5,a5,a1
    3744:	ff868593          	addi	a1,a3,-8
    3748:	00b72623          	sw	a1,12(a4)
    374c:	00c72423          	sw	a2,8(a4)
    3750:	00f82223          	sw	a5,4(a6)
    3754:	00e6a023          	sw	a4,0(a3)
    3758:	00e62623          	sw	a4,12(a2)
    375c:	00812403          	lw	s0,8(sp)
    3760:	00c12083          	lw	ra,12(sp)
    3764:	00048513          	mv	a0,s1
    3768:	00412483          	lw	s1,4(sp)
    376c:	01010113          	addi	sp,sp,16
    3770:	4c90306f          	j	7438 <__malloc_unlock>
    3774:	00452583          	lw	a1,4(a0)
    3778:	0015f593          	andi	a1,a1,1
    377c:	02059e63          	bnez	a1,37b8 <_free_r+0x138>
    3780:	00d787b3          	add	a5,a5,a3
    3784:	0001e897          	auipc	a7,0x1e
    3788:	d0088893          	addi	a7,a7,-768 # 21484 <__malloc_av_+0x8>
    378c:	00862683          	lw	a3,8(a2)
    3790:	0017e513          	ori	a0,a5,1
    3794:	00f705b3          	add	a1,a4,a5
    3798:	17168863          	beq	a3,a7,3908 <_free_r+0x288>
    379c:	00c62603          	lw	a2,12(a2)
    37a0:	00c6a623          	sw	a2,12(a3)
    37a4:	00d62423          	sw	a3,8(a2)
    37a8:	00a72223          	sw	a0,4(a4)
    37ac:	00f5a023          	sw	a5,0(a1)
    37b0:	f69ff06f          	j	3718 <_free_r+0x98>
    37b4:	00008067          	ret
    37b8:	0017e693          	ori	a3,a5,1
    37bc:	fed42e23          	sw	a3,-4(s0)
    37c0:	00f62023          	sw	a5,0(a2)
    37c4:	1ff00693          	li	a3,511
    37c8:	f4f6fce3          	bgeu	a3,a5,3720 <_free_r+0xa0>
    37cc:	0097d693          	srli	a3,a5,0x9
    37d0:	00400613          	li	a2,4
    37d4:	0ed66c63          	bltu	a2,a3,38cc <_free_r+0x24c>
    37d8:	0067d693          	srli	a3,a5,0x6
    37dc:	03968593          	addi	a1,a3,57
    37e0:	03868613          	addi	a2,a3,56
    37e4:	00359593          	slli	a1,a1,0x3
    37e8:	00b805b3          	add	a1,a6,a1
    37ec:	0005a683          	lw	a3,0(a1)
    37f0:	ff858593          	addi	a1,a1,-8
    37f4:	12d58863          	beq	a1,a3,3924 <_free_r+0x2a4>
    37f8:	0046a603          	lw	a2,4(a3)
    37fc:	ffc67613          	andi	a2,a2,-4
    3800:	00c7f663          	bgeu	a5,a2,380c <_free_r+0x18c>
    3804:	0086a683          	lw	a3,8(a3)
    3808:	fed598e3          	bne	a1,a3,37f8 <_free_r+0x178>
    380c:	00c6a583          	lw	a1,12(a3)
    3810:	00b72623          	sw	a1,12(a4)
    3814:	00d72423          	sw	a3,8(a4)
    3818:	00812403          	lw	s0,8(sp)
    381c:	00c12083          	lw	ra,12(sp)
    3820:	00e5a423          	sw	a4,8(a1)
    3824:	00048513          	mv	a0,s1
    3828:	00412483          	lw	s1,4(sp)
    382c:	00e6a623          	sw	a4,12(a3)
    3830:	01010113          	addi	sp,sp,16
    3834:	4050306f          	j	7438 <__malloc_unlock>
    3838:	14059663          	bnez	a1,3984 <_free_r+0x304>
    383c:	00c62583          	lw	a1,12(a2)
    3840:	00862603          	lw	a2,8(a2)
    3844:	00f687b3          	add	a5,a3,a5
    3848:	00812403          	lw	s0,8(sp)
    384c:	00b62623          	sw	a1,12(a2)
    3850:	00c5a423          	sw	a2,8(a1)
    3854:	0017e693          	ori	a3,a5,1
    3858:	00c12083          	lw	ra,12(sp)
    385c:	00d72223          	sw	a3,4(a4)
    3860:	00048513          	mv	a0,s1
    3864:	00f70733          	add	a4,a4,a5
    3868:	00412483          	lw	s1,4(sp)
    386c:	00f72023          	sw	a5,0(a4)
    3870:	01010113          	addi	sp,sp,16
    3874:	3c50306f          	j	7438 <__malloc_unlock>
    3878:	0015f593          	andi	a1,a1,1
    387c:	00d787b3          	add	a5,a5,a3
    3880:	02059063          	bnez	a1,38a0 <_free_r+0x220>
    3884:	ff842583          	lw	a1,-8(s0)
    3888:	40b70733          	sub	a4,a4,a1
    388c:	00c72683          	lw	a3,12(a4)
    3890:	00872603          	lw	a2,8(a4)
    3894:	00b787b3          	add	a5,a5,a1
    3898:	00d62623          	sw	a3,12(a2)
    389c:	00c6a423          	sw	a2,8(a3)
    38a0:	0017e693          	ori	a3,a5,1
    38a4:	00d72223          	sw	a3,4(a4)
    38a8:	00e82423          	sw	a4,8(a6)
    38ac:	0001c717          	auipc	a4,0x1c
    38b0:	78c72703          	lw	a4,1932(a4) # 20038 <__malloc_trim_threshold>
    38b4:	eae7e4e3          	bltu	a5,a4,375c <_free_r+0xdc>
    38b8:	0001e597          	auipc	a1,0x1e
    38bc:	fd85a583          	lw	a1,-40(a1) # 21890 <__malloc_top_pad>
    38c0:	00048513          	mv	a0,s1
    38c4:	c7dff0ef          	jal	ra,3540 <_malloc_trim_r>
    38c8:	e95ff06f          	j	375c <_free_r+0xdc>
    38cc:	01400613          	li	a2,20
    38d0:	02d67463          	bgeu	a2,a3,38f8 <_free_r+0x278>
    38d4:	05400613          	li	a2,84
    38d8:	06d66463          	bltu	a2,a3,3940 <_free_r+0x2c0>
    38dc:	00c7d693          	srli	a3,a5,0xc
    38e0:	06f68593          	addi	a1,a3,111
    38e4:	06e68613          	addi	a2,a3,110
    38e8:	00359593          	slli	a1,a1,0x3
    38ec:	efdff06f          	j	37e8 <_free_r+0x168>
    38f0:	00d787b3          	add	a5,a5,a3
    38f4:	e99ff06f          	j	378c <_free_r+0x10c>
    38f8:	05c68593          	addi	a1,a3,92
    38fc:	05b68613          	addi	a2,a3,91
    3900:	00359593          	slli	a1,a1,0x3
    3904:	ee5ff06f          	j	37e8 <_free_r+0x168>
    3908:	00e82a23          	sw	a4,20(a6)
    390c:	00e82823          	sw	a4,16(a6)
    3910:	01172623          	sw	a7,12(a4)
    3914:	01172423          	sw	a7,8(a4)
    3918:	00a72223          	sw	a0,4(a4)
    391c:	00f5a023          	sw	a5,0(a1)
    3920:	e3dff06f          	j	375c <_free_r+0xdc>
    3924:	00482503          	lw	a0,4(a6)
    3928:	40265613          	srai	a2,a2,0x2
    392c:	00100793          	li	a5,1
    3930:	00c79633          	sll	a2,a5,a2
    3934:	00a66633          	or	a2,a2,a0
    3938:	00c82223          	sw	a2,4(a6)
    393c:	ed5ff06f          	j	3810 <_free_r+0x190>
    3940:	15400613          	li	a2,340
    3944:	00d66c63          	bltu	a2,a3,395c <_free_r+0x2dc>
    3948:	00f7d693          	srli	a3,a5,0xf
    394c:	07868593          	addi	a1,a3,120
    3950:	07768613          	addi	a2,a3,119
    3954:	00359593          	slli	a1,a1,0x3
    3958:	e91ff06f          	j	37e8 <_free_r+0x168>
    395c:	55400613          	li	a2,1364
    3960:	00d66c63          	bltu	a2,a3,3978 <_free_r+0x2f8>
    3964:	0127d693          	srli	a3,a5,0x12
    3968:	07d68593          	addi	a1,a3,125
    396c:	07c68613          	addi	a2,a3,124
    3970:	00359593          	slli	a1,a1,0x3
    3974:	e75ff06f          	j	37e8 <_free_r+0x168>
    3978:	3f800593          	li	a1,1016
    397c:	07e00613          	li	a2,126
    3980:	e69ff06f          	j	37e8 <_free_r+0x168>
    3984:	0017e693          	ori	a3,a5,1
    3988:	00d72223          	sw	a3,4(a4)
    398c:	00f62023          	sw	a5,0(a2)
    3990:	dcdff06f          	j	375c <_free_r+0xdc>

00003994 <_fwalk>:
    3994:	fe010113          	addi	sp,sp,-32
    3998:	01212823          	sw	s2,16(sp)
    399c:	01312623          	sw	s3,12(sp)
    39a0:	01412423          	sw	s4,8(sp)
    39a4:	01512223          	sw	s5,4(sp)
    39a8:	01612023          	sw	s6,0(sp)
    39ac:	00112e23          	sw	ra,28(sp)
    39b0:	00812c23          	sw	s0,24(sp)
    39b4:	00912a23          	sw	s1,20(sp)
    39b8:	00058b13          	mv	s6,a1
    39bc:	2e050a93          	addi	s5,a0,736
    39c0:	00000a13          	li	s4,0
    39c4:	00100993          	li	s3,1
    39c8:	fff00913          	li	s2,-1
    39cc:	004aa483          	lw	s1,4(s5)
    39d0:	008aa403          	lw	s0,8(s5)
    39d4:	fff48493          	addi	s1,s1,-1
    39d8:	0204c663          	bltz	s1,3a04 <_fwalk+0x70>
    39dc:	00c45783          	lhu	a5,12(s0)
    39e0:	fff48493          	addi	s1,s1,-1
    39e4:	00f9fc63          	bgeu	s3,a5,39fc <_fwalk+0x68>
    39e8:	00e41783          	lh	a5,14(s0)
    39ec:	00040513          	mv	a0,s0
    39f0:	01278663          	beq	a5,s2,39fc <_fwalk+0x68>
    39f4:	000b00e7          	jalr	s6
    39f8:	00aa6a33          	or	s4,s4,a0
    39fc:	06840413          	addi	s0,s0,104
    3a00:	fd249ee3          	bne	s1,s2,39dc <_fwalk+0x48>
    3a04:	000aaa83          	lw	s5,0(s5)
    3a08:	fc0a92e3          	bnez	s5,39cc <_fwalk+0x38>
    3a0c:	01c12083          	lw	ra,28(sp)
    3a10:	01812403          	lw	s0,24(sp)
    3a14:	01412483          	lw	s1,20(sp)
    3a18:	01012903          	lw	s2,16(sp)
    3a1c:	00c12983          	lw	s3,12(sp)
    3a20:	00412a83          	lw	s5,4(sp)
    3a24:	00012b03          	lw	s6,0(sp)
    3a28:	000a0513          	mv	a0,s4
    3a2c:	00812a03          	lw	s4,8(sp)
    3a30:	02010113          	addi	sp,sp,32
    3a34:	00008067          	ret

00003a38 <_fwalk_reent>:
    3a38:	fd010113          	addi	sp,sp,-48
    3a3c:	03212023          	sw	s2,32(sp)
    3a40:	01312e23          	sw	s3,28(sp)
    3a44:	01412c23          	sw	s4,24(sp)
    3a48:	01512a23          	sw	s5,20(sp)
    3a4c:	01612823          	sw	s6,16(sp)
    3a50:	01712623          	sw	s7,12(sp)
    3a54:	02112623          	sw	ra,44(sp)
    3a58:	02812423          	sw	s0,40(sp)
    3a5c:	02912223          	sw	s1,36(sp)
    3a60:	00050a93          	mv	s5,a0
    3a64:	00058b93          	mv	s7,a1
    3a68:	2e050b13          	addi	s6,a0,736
    3a6c:	00000a13          	li	s4,0
    3a70:	00100993          	li	s3,1
    3a74:	fff00913          	li	s2,-1
    3a78:	004b2483          	lw	s1,4(s6)
    3a7c:	008b2403          	lw	s0,8(s6)
    3a80:	fff48493          	addi	s1,s1,-1
    3a84:	0204c863          	bltz	s1,3ab4 <_fwalk_reent+0x7c>
    3a88:	00c45783          	lhu	a5,12(s0)
    3a8c:	fff48493          	addi	s1,s1,-1
    3a90:	00f9fe63          	bgeu	s3,a5,3aac <_fwalk_reent+0x74>
    3a94:	00e41783          	lh	a5,14(s0)
    3a98:	00040593          	mv	a1,s0
    3a9c:	000a8513          	mv	a0,s5
    3aa0:	01278663          	beq	a5,s2,3aac <_fwalk_reent+0x74>
    3aa4:	000b80e7          	jalr	s7
    3aa8:	00aa6a33          	or	s4,s4,a0
    3aac:	06840413          	addi	s0,s0,104
    3ab0:	fd249ce3          	bne	s1,s2,3a88 <_fwalk_reent+0x50>
    3ab4:	000b2b03          	lw	s6,0(s6)
    3ab8:	fc0b10e3          	bnez	s6,3a78 <_fwalk_reent+0x40>
    3abc:	02c12083          	lw	ra,44(sp)
    3ac0:	02812403          	lw	s0,40(sp)
    3ac4:	02412483          	lw	s1,36(sp)
    3ac8:	02012903          	lw	s2,32(sp)
    3acc:	01c12983          	lw	s3,28(sp)
    3ad0:	01412a83          	lw	s5,20(sp)
    3ad4:	01012b03          	lw	s6,16(sp)
    3ad8:	00c12b83          	lw	s7,12(sp)
    3adc:	000a0513          	mv	a0,s4
    3ae0:	01812a03          	lw	s4,24(sp)
    3ae4:	03010113          	addi	sp,sp,48
    3ae8:	00008067          	ret

00003aec <eshdn1>:
    3aec:	00450693          	addi	a3,a0,4
    3af0:	00000793          	li	a5,0
    3af4:	01a50513          	addi	a0,a0,26
    3af8:	ffff8837          	lui	a6,0xffff8
    3afc:	01c0006f          	j	3b18 <eshdn1+0x2c>
    3b00:	00179793          	slli	a5,a5,0x1
    3b04:	00e69023          	sh	a4,0(a3)
    3b08:	01079793          	slli	a5,a5,0x10
    3b0c:	00268693          	addi	a3,a3,2
    3b10:	0107d793          	srli	a5,a5,0x10
    3b14:	02d50e63          	beq	a0,a3,3b50 <eshdn1+0x64>
    3b18:	0006d703          	lhu	a4,0(a3)
    3b1c:	00177613          	andi	a2,a4,1
    3b20:	00060463          	beqz	a2,3b28 <eshdn1+0x3c>
    3b24:	0017e793          	ori	a5,a5,1
    3b28:	00175713          	srli	a4,a4,0x1
    3b2c:	0027f613          	andi	a2,a5,2
    3b30:	010765b3          	or	a1,a4,a6
    3b34:	fc0606e3          	beqz	a2,3b00 <eshdn1+0x14>
    3b38:	00179793          	slli	a5,a5,0x1
    3b3c:	00b69023          	sh	a1,0(a3)
    3b40:	01079793          	slli	a5,a5,0x10
    3b44:	00268693          	addi	a3,a3,2
    3b48:	0107d793          	srli	a5,a5,0x10
    3b4c:	fcd516e3          	bne	a0,a3,3b18 <eshdn1+0x2c>
    3b50:	00008067          	ret

00003b54 <eshup1>:
    3b54:	01850693          	addi	a3,a0,24
    3b58:	00000713          	li	a4,0
    3b5c:	00250513          	addi	a0,a0,2
    3b60:	01c0006f          	j	3b7c <eshup1+0x28>
    3b64:	00171713          	slli	a4,a4,0x1
    3b68:	00f69023          	sh	a5,0(a3)
    3b6c:	01071713          	slli	a4,a4,0x10
    3b70:	ffe68693          	addi	a3,a3,-2
    3b74:	01075713          	srli	a4,a4,0x10
    3b78:	04d50463          	beq	a0,a3,3bc0 <eshup1+0x6c>
    3b7c:	0006d783          	lhu	a5,0(a3)
    3b80:	01079613          	slli	a2,a5,0x10
    3b84:	41065613          	srai	a2,a2,0x10
    3b88:	00179793          	slli	a5,a5,0x1
    3b8c:	00065463          	bgez	a2,3b94 <eshup1+0x40>
    3b90:	00176713          	ori	a4,a4,1
    3b94:	01079793          	slli	a5,a5,0x10
    3b98:	0107d793          	srli	a5,a5,0x10
    3b9c:	00277613          	andi	a2,a4,2
    3ba0:	0017e593          	ori	a1,a5,1
    3ba4:	fc0600e3          	beqz	a2,3b64 <eshup1+0x10>
    3ba8:	00171713          	slli	a4,a4,0x1
    3bac:	00b69023          	sh	a1,0(a3)
    3bb0:	01071713          	slli	a4,a4,0x10
    3bb4:	ffe68693          	addi	a3,a3,-2
    3bb8:	01075713          	srli	a4,a4,0x10
    3bbc:	fcd510e3          	bne	a0,a3,3b7c <eshup1+0x28>
    3bc0:	00008067          	ret

00003bc4 <m16m>:
    3bc4:	fe010113          	addi	sp,sp,-32
    3bc8:	00010e37          	lui	t3,0x10
    3bcc:	00011d23          	sh	zero,26(sp)
    3bd0:	00011e23          	sh	zero,28(sp)
    3bd4:	01858593          	addi	a1,a1,24
    3bd8:	01c10793          	addi	a5,sp,28
    3bdc:	00810813          	addi	a6,sp,8
    3be0:	fffe0e13          	addi	t3,t3,-1 # ffff <__udivdi3+0x3b3>
    3be4:	0005d703          	lhu	a4,0(a1)
    3be8:	ffe78793          	addi	a5,a5,-2
    3bec:	ffe58593          	addi	a1,a1,-2
    3bf0:	02071863          	bnez	a4,3c20 <m16m+0x5c>
    3bf4:	fe079f23          	sh	zero,-2(a5)
    3bf8:	ff0796e3          	bne	a5,a6,3be4 <m16m+0x20>
    3bfc:	00460613          	addi	a2,a2,4
    3c00:	01e10693          	addi	a3,sp,30
    3c04:	0007d703          	lhu	a4,0(a5)
    3c08:	00278793          	addi	a5,a5,2
    3c0c:	00260613          	addi	a2,a2,2
    3c10:	fee61f23          	sh	a4,-2(a2)
    3c14:	fed798e3          	bne	a5,a3,3c04 <m16m+0x40>
    3c18:	02010113          	addi	sp,sp,32
    3c1c:	00008067          	ret
    3c20:	02a70733          	mul	a4,a4,a0
    3c24:	0027d883          	lhu	a7,2(a5)
    3c28:	0007d303          	lhu	t1,0(a5)
    3c2c:	01c776b3          	and	a3,a4,t3
    3c30:	011686b3          	add	a3,a3,a7
    3c34:	01075713          	srli	a4,a4,0x10
    3c38:	0106d893          	srli	a7,a3,0x10
    3c3c:	00670733          	add	a4,a4,t1
    3c40:	01170733          	add	a4,a4,a7
    3c44:	01075893          	srli	a7,a4,0x10
    3c48:	00d79123          	sh	a3,2(a5)
    3c4c:	00e79023          	sh	a4,0(a5)
    3c50:	ff179f23          	sh	a7,-2(a5)
    3c54:	f90798e3          	bne	a5,a6,3be4 <m16m+0x20>
    3c58:	fa5ff06f          	j	3bfc <m16m+0x38>

00003c5c <emovo.constprop.0>:
    3c5c:	00055703          	lhu	a4,0(a0)
    3c60:	00255783          	lhu	a5,2(a0)
    3c64:	00070663          	beqz	a4,3c70 <emovo.constprop.0+0x14>
    3c68:	00008737          	lui	a4,0x8
    3c6c:	00e7e7b3          	or	a5,a5,a4
    3c70:	00f59923          	sh	a5,18(a1)
    3c74:	00255703          	lhu	a4,2(a0)
    3c78:	000087b7          	lui	a5,0x8
    3c7c:	fff78793          	addi	a5,a5,-1 # 7fff <__mdiff+0xfb>
    3c80:	02f70463          	beq	a4,a5,3ca8 <emovo.constprop.0+0x4c>
    3c84:	00650793          	addi	a5,a0,6
    3c88:	01058593          	addi	a1,a1,16
    3c8c:	01850513          	addi	a0,a0,24
    3c90:	0007d703          	lhu	a4,0(a5)
    3c94:	00278793          	addi	a5,a5,2
    3c98:	ffe58593          	addi	a1,a1,-2
    3c9c:	00e59123          	sh	a4,2(a1)
    3ca0:	fea798e3          	bne	a5,a0,3c90 <emovo.constprop.0+0x34>
    3ca4:	00008067          	ret
    3ca8:	00650793          	addi	a5,a0,6
    3cac:	01a50513          	addi	a0,a0,26
    3cb0:	0007d703          	lhu	a4,0(a5)
    3cb4:	00278793          	addi	a5,a5,2
    3cb8:	02071a63          	bnez	a4,3cec <emovo.constprop.0+0x90>
    3cbc:	fea79ae3          	bne	a5,a0,3cb0 <emovo.constprop.0+0x54>
    3cc0:	01258713          	addi	a4,a1,18
    3cc4:	00058793          	mv	a5,a1
    3cc8:	00278793          	addi	a5,a5,2
    3ccc:	fe079f23          	sh	zero,-2(a5)
    3cd0:	fef71ce3          	bne	a4,a5,3cc8 <emovo.constprop.0+0x6c>
    3cd4:	0125d783          	lhu	a5,18(a1)
    3cd8:	00008737          	lui	a4,0x8
    3cdc:	fff70713          	addi	a4,a4,-1 # 7fff <__mdiff+0xfb>
    3ce0:	00e7e7b3          	or	a5,a5,a4
    3ce4:	00f59923          	sh	a5,18(a1)
    3ce8:	00008067          	ret
    3cec:	01058713          	addi	a4,a1,16
    3cf0:	00058793          	mv	a5,a1
    3cf4:	00278793          	addi	a5,a5,2
    3cf8:	fe079f23          	sh	zero,-2(a5)
    3cfc:	fef71ce3          	bne	a4,a5,3cf4 <emovo.constprop.0+0x98>
    3d00:	ffffc7b7          	lui	a5,0xffffc
    3d04:	00f59823          	sh	a5,16(a1)
    3d08:	ffff87b7          	lui	a5,0xffff8
    3d0c:	fff7c793          	not	a5,a5
    3d10:	00f59923          	sh	a5,18(a1)
    3d14:	00008067          	ret

00003d18 <enormlz>:
    3d18:	00455783          	lhu	a5,4(a0)
    3d1c:	ff010113          	addi	sp,sp,-16
    3d20:	00912223          	sw	s1,4(sp)
    3d24:	00112623          	sw	ra,12(sp)
    3d28:	00812423          	sw	s0,8(sp)
    3d2c:	01212023          	sw	s2,0(sp)
    3d30:	00050493          	mv	s1,a0
    3d34:	0c079c63          	bnez	a5,3e0c <enormlz+0xf4>
    3d38:	00655703          	lhu	a4,6(a0)
    3d3c:	00000413          	li	s0,0
    3d40:	01071793          	slli	a5,a4,0x10
    3d44:	4107d793          	srai	a5,a5,0x10
    3d48:	0a07c463          	bltz	a5,3df0 <enormlz+0xd8>
    3d4c:	01a50693          	addi	a3,a0,26
    3d50:	0a000613          	li	a2,160
    3d54:	02071863          	bnez	a4,3d84 <enormlz+0x6c>
    3d58:	00648793          	addi	a5,s1,6
    3d5c:	0080006f          	j	3d64 <enormlz+0x4c>
    3d60:	0007d703          	lhu	a4,0(a5) # ffff8000 <_stack+0xfffb8000>
    3d64:	00278793          	addi	a5,a5,2
    3d68:	fee79e23          	sh	a4,-4(a5)
    3d6c:	fed79ae3          	bne	a5,a3,3d60 <enormlz+0x48>
    3d70:	00049c23          	sh	zero,24(s1)
    3d74:	01040413          	addi	s0,s0,16
    3d78:	06c40c63          	beq	s0,a2,3df0 <enormlz+0xd8>
    3d7c:	0064d703          	lhu	a4,6(s1)
    3d80:	fc070ce3          	beqz	a4,3d58 <enormlz+0x40>
    3d84:	f0077793          	andi	a5,a4,-256
    3d88:	04079063          	bnez	a5,3dc8 <enormlz+0xb0>
    3d8c:	01848513          	addi	a0,s1,24
    3d90:	00248593          	addi	a1,s1,2
    3d94:	00000793          	li	a5,0
    3d98:	00050713          	mv	a4,a0
    3d9c:	00075683          	lhu	a3,0(a4)
    3da0:	ffe70713          	addi	a4,a4,-2
    3da4:	00869613          	slli	a2,a3,0x8
    3da8:	00c7e7b3          	or	a5,a5,a2
    3dac:	00f71123          	sh	a5,2(a4)
    3db0:	0086d793          	srli	a5,a3,0x8
    3db4:	fee594e3          	bne	a1,a4,3d9c <enormlz+0x84>
    3db8:	0064d703          	lhu	a4,6(s1)
    3dbc:	00840413          	addi	s0,s0,8
    3dc0:	f0077793          	andi	a5,a4,-256
    3dc4:	fc0788e3          	beqz	a5,3d94 <enormlz+0x7c>
    3dc8:	0a000913          	li	s2,160
    3dcc:	0140006f          	j	3de0 <enormlz+0xc8>
    3dd0:	00140413          	addi	s0,s0,1
    3dd4:	d81ff0ef          	jal	ra,3b54 <eshup1>
    3dd8:	00894c63          	blt	s2,s0,3df0 <enormlz+0xd8>
    3ddc:	0064d703          	lhu	a4,6(s1)
    3de0:	01071713          	slli	a4,a4,0x10
    3de4:	41075713          	srai	a4,a4,0x10
    3de8:	00048513          	mv	a0,s1
    3dec:	fe0752e3          	bgez	a4,3dd0 <enormlz+0xb8>
    3df0:	00c12083          	lw	ra,12(sp)
    3df4:	00040513          	mv	a0,s0
    3df8:	00812403          	lw	s0,8(sp)
    3dfc:	00412483          	lw	s1,4(sp)
    3e00:	00012903          	lw	s2,0(sp)
    3e04:	01010113          	addi	sp,sp,16
    3e08:	00008067          	ret
    3e0c:	f007f713          	andi	a4,a5,-256
    3e10:	00000413          	li	s0,0
    3e14:	04071063          	bnez	a4,3e54 <enormlz+0x13c>
    3e18:	f6f00913          	li	s2,-145
    3e1c:	0140006f          	j	3e30 <enormlz+0x118>
    3e20:	fff40413          	addi	s0,s0,-1
    3e24:	cc9ff0ef          	jal	ra,3aec <eshdn1>
    3e28:	fd2404e3          	beq	s0,s2,3df0 <enormlz+0xd8>
    3e2c:	0044d783          	lhu	a5,4(s1)
    3e30:	00048513          	mv	a0,s1
    3e34:	fe0796e3          	bnez	a5,3e20 <enormlz+0x108>
    3e38:	00c12083          	lw	ra,12(sp)
    3e3c:	00040513          	mv	a0,s0
    3e40:	00812403          	lw	s0,8(sp)
    3e44:	00412483          	lw	s1,4(sp)
    3e48:	00012903          	lw	s2,0(sp)
    3e4c:	01010113          	addi	sp,sp,16
    3e50:	00008067          	ret
    3e54:	00450693          	addi	a3,a0,4
    3e58:	01a50593          	addi	a1,a0,26
    3e5c:	00000713          	li	a4,0
    3e60:	0080006f          	j	3e68 <enormlz+0x150>
    3e64:	0006d783          	lhu	a5,0(a3)
    3e68:	0087d613          	srli	a2,a5,0x8
    3e6c:	00c76733          	or	a4,a4,a2
    3e70:	00879793          	slli	a5,a5,0x8
    3e74:	00e69023          	sh	a4,0(a3)
    3e78:	01079713          	slli	a4,a5,0x10
    3e7c:	00268693          	addi	a3,a3,2
    3e80:	01075713          	srli	a4,a4,0x10
    3e84:	fed590e3          	bne	a1,a3,3e64 <enormlz+0x14c>
    3e88:	0044d783          	lhu	a5,4(s1)
    3e8c:	ff800413          	li	s0,-8
    3e90:	f89ff06f          	j	3e18 <enormlz+0x100>

00003e94 <eshift.part.0>:
    3e94:	fe010113          	addi	sp,sp,-32
    3e98:	00812c23          	sw	s0,24(sp)
    3e9c:	00912a23          	sw	s1,20(sp)
    3ea0:	00112e23          	sw	ra,28(sp)
    3ea4:	01212823          	sw	s2,16(sp)
    3ea8:	01312623          	sw	s3,12(sp)
    3eac:	00058493          	mv	s1,a1
    3eb0:	00050413          	mv	s0,a0
    3eb4:	0a05c463          	bltz	a1,3f5c <eshift.part.0+0xc8>
    3eb8:	00f00793          	li	a5,15
    3ebc:	00058613          	mv	a2,a1
    3ec0:	00450513          	addi	a0,a0,4
    3ec4:	01840693          	addi	a3,s0,24
    3ec8:	00f00593          	li	a1,15
    3ecc:	0297d463          	bge	a5,s1,3ef4 <eshift.part.0+0x60>
    3ed0:	00050793          	mv	a5,a0
    3ed4:	0027d703          	lhu	a4,2(a5)
    3ed8:	00278793          	addi	a5,a5,2
    3edc:	fee79f23          	sh	a4,-2(a5)
    3ee0:	fef69ae3          	bne	a3,a5,3ed4 <eshift.part.0+0x40>
    3ee4:	00041c23          	sh	zero,24(s0)
    3ee8:	ff060613          	addi	a2,a2,-16
    3eec:	fec5c2e3          	blt	a1,a2,3ed0 <eshift.part.0+0x3c>
    3ef0:	00f4f493          	andi	s1,s1,15
    3ef4:	00700793          	li	a5,7
    3ef8:	0297d863          	bge	a5,s1,3f28 <eshift.part.0+0x94>
    3efc:	01840713          	addi	a4,s0,24
    3f00:	00240593          	addi	a1,s0,2
    3f04:	00000793          	li	a5,0
    3f08:	00075683          	lhu	a3,0(a4)
    3f0c:	ffe70713          	addi	a4,a4,-2
    3f10:	00869613          	slli	a2,a3,0x8
    3f14:	00c7e7b3          	or	a5,a5,a2
    3f18:	00f71123          	sh	a5,2(a4)
    3f1c:	0086d793          	srli	a5,a3,0x8
    3f20:	fee594e3          	bne	a1,a4,3f08 <eshift.part.0+0x74>
    3f24:	ff848493          	addi	s1,s1,-8
    3f28:	00048a63          	beqz	s1,3f3c <eshift.part.0+0xa8>
    3f2c:	fff48493          	addi	s1,s1,-1
    3f30:	00040513          	mv	a0,s0
    3f34:	c21ff0ef          	jal	ra,3b54 <eshup1>
    3f38:	fe049ae3          	bnez	s1,3f2c <eshift.part.0+0x98>
    3f3c:	00000513          	li	a0,0
    3f40:	01c12083          	lw	ra,28(sp)
    3f44:	01812403          	lw	s0,24(sp)
    3f48:	01412483          	lw	s1,20(sp)
    3f4c:	01012903          	lw	s2,16(sp)
    3f50:	00c12983          	lw	s3,12(sp)
    3f54:	02010113          	addi	sp,sp,32
    3f58:	00008067          	ret
    3f5c:	ff100793          	li	a5,-15
    3f60:	40b00933          	neg	s2,a1
    3f64:	12f5de63          	bge	a1,a5,40a0 <eshift.part.0+0x20c>
    3f68:	01850593          	addi	a1,a0,24
    3f6c:	00000993          	li	s3,0
    3f70:	00450693          	addi	a3,a0,4
    3f74:	00f00613          	li	a2,15
    3f78:	01845703          	lhu	a4,24(s0)
    3f7c:	00058793          	mv	a5,a1
    3f80:	00e9e9b3          	or	s3,s3,a4
    3f84:	ffe7d703          	lhu	a4,-2(a5)
    3f88:	ffe78793          	addi	a5,a5,-2
    3f8c:	00e79123          	sh	a4,2(a5)
    3f90:	fed79ae3          	bne	a5,a3,3f84 <eshift.part.0+0xf0>
    3f94:	00041223          	sh	zero,4(s0)
    3f98:	ff090913          	addi	s2,s2,-16
    3f9c:	fd264ee3          	blt	a2,s2,3f78 <eshift.part.0+0xe4>
    3fa0:	ff000913          	li	s2,-16
    3fa4:	ff100713          	li	a4,-15
    3fa8:	40990933          	sub	s2,s2,s1
    3fac:	00000793          	li	a5,0
    3fb0:	0ae4c663          	blt	s1,a4,405c <eshift.part.0+0x1c8>
    3fb4:	00f90933          	add	s2,s2,a5
    3fb8:	00700793          	li	a5,7
    3fbc:	0527ca63          	blt	a5,s2,4010 <eshift.part.0+0x17c>
    3fc0:	0c090263          	beqz	s2,4084 <eshift.part.0+0x1f0>
    3fc4:	01845783          	lhu	a5,24(s0)
    3fc8:	fff90913          	addi	s2,s2,-1
    3fcc:	00040513          	mv	a0,s0
    3fd0:	0017f793          	andi	a5,a5,1
    3fd4:	0137e9b3          	or	s3,a5,s3
    3fd8:	b15ff0ef          	jal	ra,3aec <eshdn1>
    3fdc:	fe0914e3          	bnez	s2,3fc4 <eshift.part.0+0x130>
    3fe0:	01099793          	slli	a5,s3,0x10
    3fe4:	4107d793          	srai	a5,a5,0x10
    3fe8:	08079663          	bnez	a5,4074 <eshift.part.0+0x1e0>
    3fec:	01099513          	slli	a0,s3,0x10
    3ff0:	01055513          	srli	a0,a0,0x10
    3ff4:	01c12083          	lw	ra,28(sp)
    3ff8:	01812403          	lw	s0,24(sp)
    3ffc:	01412483          	lw	s1,20(sp)
    4000:	01012903          	lw	s2,16(sp)
    4004:	00c12983          	lw	s3,12(sp)
    4008:	02010113          	addi	sp,sp,32
    400c:	00008067          	ret
    4010:	01099993          	slli	s3,s3,0x10
    4014:	4109d993          	srai	s3,s3,0x10
    4018:	01844783          	lbu	a5,24(s0)
    401c:	01a40593          	addi	a1,s0,26
    4020:	00f9e9b3          	or	s3,s3,a5
    4024:	01099993          	slli	s3,s3,0x10
    4028:	0109d993          	srli	s3,s3,0x10
    402c:	00000793          	li	a5,0
    4030:	0006d703          	lhu	a4,0(a3)
    4034:	00268693          	addi	a3,a3,2
    4038:	00875613          	srli	a2,a4,0x8
    403c:	00c7e7b3          	or	a5,a5,a2
    4040:	00871713          	slli	a4,a4,0x8
    4044:	fef69f23          	sh	a5,-2(a3)
    4048:	01071793          	slli	a5,a4,0x10
    404c:	0107d793          	srli	a5,a5,0x10
    4050:	fed590e3          	bne	a1,a3,4030 <eshift.part.0+0x19c>
    4054:	ff890913          	addi	s2,s2,-8
    4058:	f69ff06f          	j	3fc0 <eshift.part.0+0x12c>
    405c:	ff097793          	andi	a5,s2,-16
    4060:	40f007b3          	neg	a5,a5
    4064:	00f90933          	add	s2,s2,a5
    4068:	00700793          	li	a5,7
    406c:	f527dae3          	bge	a5,s2,3fc0 <eshift.part.0+0x12c>
    4070:	fa1ff06f          	j	4010 <eshift.part.0+0x17c>
    4074:	00100993          	li	s3,1
    4078:	01099513          	slli	a0,s3,0x10
    407c:	01055513          	srli	a0,a0,0x10
    4080:	f75ff06f          	j	3ff4 <eshift.part.0+0x160>
    4084:	00098513          	mv	a0,s3
    4088:	00099863          	bnez	s3,4098 <eshift.part.0+0x204>
    408c:	01051513          	slli	a0,a0,0x10
    4090:	01055513          	srli	a0,a0,0x10
    4094:	eadff06f          	j	3f40 <eshift.part.0+0xac>
    4098:	00100513          	li	a0,1
    409c:	ff1ff06f          	j	408c <eshift.part.0+0x1f8>
    40a0:	ff900793          	li	a5,-7
    40a4:	00000993          	li	s3,0
    40a8:	00450693          	addi	a3,a0,4
    40ac:	f6f5c6e3          	blt	a1,a5,4018 <eshift.part.0+0x184>
    40b0:	f15ff06f          	j	3fc4 <eshift.part.0+0x130>

000040b4 <emovi>:
    40b4:	01255783          	lhu	a5,18(a0)
    40b8:	00008637          	lui	a2,0x8
    40bc:	fff60613          	addi	a2,a2,-1 # 7fff <__mdiff+0xfb>
    40c0:	00f7d793          	srli	a5,a5,0xf
    40c4:	40f007b3          	neg	a5,a5
    40c8:	00f59023          	sh	a5,0(a1)
    40cc:	01255683          	lhu	a3,18(a0)
    40d0:	01050793          	addi	a5,a0,16
    40d4:	00458713          	addi	a4,a1,4
    40d8:	00d676b3          	and	a3,a2,a3
    40dc:	00d59123          	sh	a3,2(a1)
    40e0:	02c68663          	beq	a3,a2,410c <emovi+0x58>
    40e4:	00658713          	addi	a4,a1,6
    40e8:	00059223          	sh	zero,4(a1)
    40ec:	ffe50513          	addi	a0,a0,-2
    40f0:	0007d683          	lhu	a3,0(a5)
    40f4:	ffe78793          	addi	a5,a5,-2
    40f8:	00270713          	addi	a4,a4,2
    40fc:	fed71f23          	sh	a3,-2(a4)
    4100:	fef518e3          	bne	a0,a5,40f0 <emovi+0x3c>
    4104:	00059c23          	sh	zero,24(a1)
    4108:	00008067          	ret
    410c:	01255603          	lhu	a2,18(a0)
    4110:	00c6f633          	and	a2,a3,a2
    4114:	00d61e63          	bne	a2,a3,4130 <emovi+0x7c>
    4118:	01250813          	addi	a6,a0,18
    411c:	00050693          	mv	a3,a0
    4120:	0006d603          	lhu	a2,0(a3)
    4124:	00268693          	addi	a3,a3,2
    4128:	00061e63          	bnez	a2,4144 <emovi+0x90>
    412c:	ff069ae3          	bne	a3,a6,4120 <emovi+0x6c>
    4130:	01a58593          	addi	a1,a1,26
    4134:	00270713          	addi	a4,a4,2
    4138:	fe071f23          	sh	zero,-2(a4)
    413c:	fee59ce3          	bne	a1,a4,4134 <emovi+0x80>
    4140:	00008067          	ret
    4144:	00658713          	addi	a4,a1,6
    4148:	00059223          	sh	zero,4(a1)
    414c:	ffc50513          	addi	a0,a0,-4
    4150:	0007d683          	lhu	a3,0(a5)
    4154:	ffe78793          	addi	a5,a5,-2
    4158:	00270713          	addi	a4,a4,2
    415c:	fed71f23          	sh	a3,-2(a4)
    4160:	fea798e3          	bne	a5,a0,4150 <emovi+0x9c>
    4164:	00008067          	ret

00004168 <ecmp>:
    4168:	01255783          	lhu	a5,18(a0)
    416c:	fb010113          	addi	sp,sp,-80
    4170:	04812423          	sw	s0,72(sp)
    4174:	fff7c793          	not	a5,a5
    4178:	04112623          	sw	ra,76(sp)
    417c:	01179713          	slli	a4,a5,0x11
    4180:	00058413          	mv	s0,a1
    4184:	00071e63          	bnez	a4,41a0 <ecmp+0x38>
    4188:	01250693          	addi	a3,a0,18
    418c:	00050793          	mv	a5,a0
    4190:	0007d703          	lhu	a4,0(a5)
    4194:	00278793          	addi	a5,a5,2
    4198:	08071c63          	bnez	a4,4230 <ecmp+0xc8>
    419c:	fed79ae3          	bne	a5,a3,4190 <ecmp+0x28>
    41a0:	01245783          	lhu	a5,18(s0)
    41a4:	fff7c793          	not	a5,a5
    41a8:	01179713          	slli	a4,a5,0x11
    41ac:	06070063          	beqz	a4,420c <ecmp+0xa4>
    41b0:	00810593          	addi	a1,sp,8
    41b4:	f01ff0ef          	jal	ra,40b4 <emovi>
    41b8:	02410593          	addi	a1,sp,36
    41bc:	00040513          	mv	a0,s0
    41c0:	ef5ff0ef          	jal	ra,40b4 <emovi>
    41c4:	00815583          	lhu	a1,8(sp)
    41c8:	02415503          	lhu	a0,36(sp)
    41cc:	06b50c63          	beq	a0,a1,4244 <ecmp+0xdc>
    41d0:	00a10793          	addi	a5,sp,10
    41d4:	02610713          	addi	a4,sp,38
    41d8:	02010613          	addi	a2,sp,32
    41dc:	0007d683          	lhu	a3,0(a5)
    41e0:	00278793          	addi	a5,a5,2
    41e4:	0a069863          	bnez	a3,4294 <ecmp+0x12c>
    41e8:	00075683          	lhu	a3,0(a4)
    41ec:	00270713          	addi	a4,a4,2
    41f0:	0a069263          	bnez	a3,4294 <ecmp+0x12c>
    41f4:	fef614e3          	bne	a2,a5,41dc <ecmp+0x74>
    41f8:	00000513          	li	a0,0
    41fc:	04c12083          	lw	ra,76(sp)
    4200:	04812403          	lw	s0,72(sp)
    4204:	05010113          	addi	sp,sp,80
    4208:	00008067          	ret
    420c:	00040793          	mv	a5,s0
    4210:	0007d703          	lhu	a4,0(a5)
    4214:	01240693          	addi	a3,s0,18
    4218:	00278793          	addi	a5,a5,2
    421c:	00071a63          	bnez	a4,4230 <ecmp+0xc8>
    4220:	f8d788e3          	beq	a5,a3,41b0 <ecmp+0x48>
    4224:	0007d703          	lhu	a4,0(a5)
    4228:	00278793          	addi	a5,a5,2
    422c:	fe070ae3          	beqz	a4,4220 <ecmp+0xb8>
    4230:	04c12083          	lw	ra,76(sp)
    4234:	04812403          	lw	s0,72(sp)
    4238:	ffe00513          	li	a0,-2
    423c:	05010113          	addi	sp,sp,80
    4240:	00008067          	ret
    4244:	00a15603          	lhu	a2,10(sp)
    4248:	02615683          	lhu	a3,38(sp)
    424c:	00153513          	seqz	a0,a0
    4250:	00a10713          	addi	a4,sp,10
    4254:	02610793          	addi	a5,sp,38
    4258:	00151513          	slli	a0,a0,0x1
    425c:	fff50513          	addi	a0,a0,-1
    4260:	03c10593          	addi	a1,sp,60
    4264:	00278793          	addi	a5,a5,2
    4268:	00270713          	addi	a4,a4,2
    426c:	00d61e63          	bne	a2,a3,4288 <ecmp+0x120>
    4270:	f8b784e3          	beq	a5,a1,41f8 <ecmp+0x90>
    4274:	00075603          	lhu	a2,0(a4)
    4278:	0007d683          	lhu	a3,0(a5)
    427c:	00270713          	addi	a4,a4,2
    4280:	00278793          	addi	a5,a5,2
    4284:	fed606e3          	beq	a2,a3,4270 <ecmp+0x108>
    4288:	f6c6eae3          	bltu	a3,a2,41fc <ecmp+0x94>
    428c:	40a00533          	neg	a0,a0
    4290:	f6dff06f          	j	41fc <ecmp+0x94>
    4294:	00100513          	li	a0,1
    4298:	f60582e3          	beqz	a1,41fc <ecmp+0x94>
    429c:	fff00513          	li	a0,-1
    42a0:	f5dff06f          	j	41fc <ecmp+0x94>

000042a4 <emdnorm>:
    42a4:	fe010113          	addi	sp,sp,-32
    42a8:	00812c23          	sw	s0,24(sp)
    42ac:	00912a23          	sw	s1,20(sp)
    42b0:	01212823          	sw	s2,16(sp)
    42b4:	01312623          	sw	s3,12(sp)
    42b8:	01412423          	sw	s4,8(sp)
    42bc:	01512223          	sw	s5,4(sp)
    42c0:	00068913          	mv	s2,a3
    42c4:	00078493          	mv	s1,a5
    42c8:	00112e23          	sw	ra,28(sp)
    42cc:	00050413          	mv	s0,a0
    42d0:	00058993          	mv	s3,a1
    42d4:	00060a13          	mv	s4,a2
    42d8:	00070a93          	mv	s5,a4
    42dc:	a3dff0ef          	jal	ra,3d18 <enormlz>
    42e0:	09000793          	li	a5,144
    42e4:	40a90933          	sub	s2,s2,a0
    42e8:	18a7dc63          	bge	a5,a0,4480 <emdnorm+0x1dc>
    42ec:	000087b7          	lui	a5,0x8
    42f0:	ffe78793          	addi	a5,a5,-2 # 7ffe <__mdiff+0xfa>
    42f4:	2127da63          	bge	a5,s2,4508 <emdnorm+0x264>
    42f8:	1e0a8463          	beqz	s5,44e0 <emdnorm+0x23c>
    42fc:	0044a503          	lw	a0,4(s1)
    4300:	0004a783          	lw	a5,0(s1)
    4304:	06f50a63          	beq	a0,a5,4378 <emdnorm+0xd4>
    4308:	01a48713          	addi	a4,s1,26
    430c:	03448793          	addi	a5,s1,52
    4310:	00270713          	addi	a4,a4,2
    4314:	fe071f23          	sh	zero,-2(a4)
    4318:	fef71ce3          	bne	a4,a5,4310 <emdnorm+0x6c>
    431c:	03800793          	li	a5,56
    4320:	36f50063          	beq	a0,a5,4680 <emdnorm+0x3dc>
    4324:	18a7d063          	bge	a5,a0,44a4 <emdnorm+0x200>
    4328:	04000793          	li	a5,64
    432c:	2ef50e63          	beq	a0,a5,4628 <emdnorm+0x384>
    4330:	07100793          	li	a5,113
    4334:	32f51063          	bne	a0,a5,4654 <emdnorm+0x3b0>
    4338:	400087b7          	lui	a5,0x40008
    433c:	fff78793          	addi	a5,a5,-1 # 40007fff <_stack+0x3ffc7fff>
    4340:	00a00713          	li	a4,10
    4344:	00f4aa23          	sw	a5,20(s1)
    4348:	ffff87b7          	lui	a5,0xffff8
    434c:	00e4a423          	sw	a4,8(s1)
    4350:	00f49c23          	sh	a5,24(s1)
    4354:	00e4a623          	sw	a4,12(s1)
    4358:	00a00793          	li	a5,10
    435c:	00008737          	lui	a4,0x8
    4360:	00878793          	addi	a5,a5,8 # ffff8008 <_stack+0xfffb8008>
    4364:	00179793          	slli	a5,a5,0x1
    4368:	00f487b3          	add	a5,s1,a5
    436c:	00e79523          	sh	a4,10(a5)
    4370:	00a4a023          	sw	a0,0(s1)
    4374:	1d205863          	blez	s2,4544 <emdnorm+0x2a0>
    4378:	0084a583          	lw	a1,8(s1)
    437c:	0144d783          	lhu	a5,20(s1)
    4380:	08f00813          	li	a6,143
    4384:	00159613          	slli	a2,a1,0x1
    4388:	00c40633          	add	a2,s0,a2
    438c:	00065703          	lhu	a4,0(a2)
    4390:	00f776b3          	and	a3,a4,a5
    4394:	02a84a63          	blt	a6,a0,43c8 <emdnorm+0x124>
    4398:	00b00813          	li	a6,11
    439c:	02b84663          	blt	a6,a1,43c8 <emdnorm+0x124>
    43a0:	00060793          	mv	a5,a2
    43a4:	01840593          	addi	a1,s0,24
    43a8:	0027d703          	lhu	a4,2(a5)
    43ac:	00070463          	beqz	a4,43b4 <emdnorm+0x110>
    43b0:	0016e693          	ori	a3,a3,1
    43b4:	00079123          	sh	zero,2(a5)
    43b8:	00278793          	addi	a5,a5,2
    43bc:	fef596e3          	bne	a1,a5,43a8 <emdnorm+0x104>
    43c0:	00065703          	lhu	a4,0(a2)
    43c4:	0144d783          	lhu	a5,20(s1)
    43c8:	fff7c793          	not	a5,a5
    43cc:	00e7f7b3          	and	a5,a5,a4
    43d0:	00f61023          	sh	a5,0(a2)
    43d4:	0164d783          	lhu	a5,22(s1)
    43d8:	00d7f733          	and	a4,a5,a3
    43dc:	06070063          	beqz	a4,443c <emdnorm+0x198>
    43e0:	02d79263          	bne	a5,a3,4404 <emdnorm+0x160>
    43e4:	20099863          	bnez	s3,45f4 <emdnorm+0x350>
    43e8:	00c4a783          	lw	a5,12(s1)
    43ec:	0184d703          	lhu	a4,24(s1)
    43f0:	00179793          	slli	a5,a5,0x1
    43f4:	00f407b3          	add	a5,s0,a5
    43f8:	0007d783          	lhu	a5,0(a5)
    43fc:	00e7f7b3          	and	a5,a5,a4
    4400:	02078e63          	beqz	a5,443c <emdnorm+0x198>
    4404:	03248613          	addi	a2,s1,50
    4408:	01840693          	addi	a3,s0,24
    440c:	01c48493          	addi	s1,s1,28
    4410:	00000713          	li	a4,0
    4414:	00065783          	lhu	a5,0(a2)
    4418:	0006d583          	lhu	a1,0(a3)
    441c:	ffe68693          	addi	a3,a3,-2
    4420:	ffe60613          	addi	a2,a2,-2
    4424:	00b787b3          	add	a5,a5,a1
    4428:	00e787b3          	add	a5,a5,a4
    442c:	0107d713          	srli	a4,a5,0x10
    4430:	00f69123          	sh	a5,2(a3)
    4434:	00177713          	andi	a4,a4,1
    4438:	fc961ee3          	bne	a2,s1,4414 <emdnorm+0x170>
    443c:	17205663          	blez	s2,45a8 <emdnorm+0x304>
    4440:	00445783          	lhu	a5,4(s0)
    4444:	12079e63          	bnez	a5,4580 <emdnorm+0x2dc>
    4448:	000087b7          	lui	a5,0x8
    444c:	00041c23          	sh	zero,24(s0)
    4450:	ffe78793          	addi	a5,a5,-2 # 7ffe <__mdiff+0xfa>
    4454:	0927c863          	blt	a5,s2,44e4 <emdnorm+0x240>
    4458:	01241123          	sh	s2,2(s0)
    445c:	01c12083          	lw	ra,28(sp)
    4460:	01812403          	lw	s0,24(sp)
    4464:	01412483          	lw	s1,20(sp)
    4468:	01012903          	lw	s2,16(sp)
    446c:	00c12983          	lw	s3,12(sp)
    4470:	00812a03          	lw	s4,8(sp)
    4474:	00412a83          	lw	s5,4(sp)
    4478:	02010113          	addi	sp,sp,32
    447c:	00008067          	ret
    4480:	0e095463          	bgez	s2,4568 <emdnorm+0x2c4>
    4484:	f7000793          	li	a5,-144
    4488:	08f95c63          	bge	s2,a5,4520 <emdnorm+0x27c>
    448c:	00240793          	addi	a5,s0,2
    4490:	01a40413          	addi	s0,s0,26
    4494:	00278793          	addi	a5,a5,2
    4498:	fe079f23          	sh	zero,-2(a5)
    449c:	fe879ce3          	bne	a5,s0,4494 <emdnorm+0x1f0>
    44a0:	fbdff06f          	j	445c <emdnorm+0x1b8>
    44a4:	01800793          	li	a5,24
    44a8:	14f50a63          	beq	a0,a5,45fc <emdnorm+0x358>
    44ac:	03500793          	li	a5,53
    44b0:	1af51263          	bne	a0,a5,4654 <emdnorm+0x3b0>
    44b4:	00001737          	lui	a4,0x1
    44b8:	040007b7          	lui	a5,0x4000
    44bc:	00600693          	li	a3,6
    44c0:	7ff78793          	addi	a5,a5,2047 # 40007ff <_stack+0x3fc07ff>
    44c4:	80070713          	addi	a4,a4,-2048 # 800 <_vfprintf_r+0x654>
    44c8:	00f4aa23          	sw	a5,20(s1)
    44cc:	00d4a423          	sw	a3,8(s1)
    44d0:	00e49c23          	sh	a4,24(s1)
    44d4:	00d4a623          	sw	a3,12(s1)
    44d8:	00600793          	li	a5,6
    44dc:	e85ff06f          	j	4360 <emdnorm+0xbc>
    44e0:	00041c23          	sh	zero,24(s0)
    44e4:	ffff87b7          	lui	a5,0xffff8
    44e8:	fff7c793          	not	a5,a5
    44ec:	00f41123          	sh	a5,2(s0)
    44f0:	00440793          	addi	a5,s0,4
    44f4:	01840413          	addi	s0,s0,24
    44f8:	00079023          	sh	zero,0(a5) # ffff8000 <_stack+0xfffb8000>
    44fc:	00278793          	addi	a5,a5,2
    4500:	fef41ce3          	bne	s0,a5,44f8 <emdnorm+0x254>
    4504:	f59ff06f          	j	445c <emdnorm+0x1b8>
    4508:	00240793          	addi	a5,s0,2
    450c:	01a40413          	addi	s0,s0,26
    4510:	00278793          	addi	a5,a5,2
    4514:	fe079f23          	sh	zero,-2(a5)
    4518:	fe879ce3          	bne	a5,s0,4510 <emdnorm+0x26c>
    451c:	f41ff06f          	j	445c <emdnorm+0x1b8>
    4520:	00090593          	mv	a1,s2
    4524:	00040513          	mv	a0,s0
    4528:	96dff0ef          	jal	ra,3e94 <eshift.part.0>
    452c:	00050463          	beqz	a0,4534 <emdnorm+0x290>
    4530:	00100993          	li	s3,1
    4534:	0a0a8a63          	beqz	s5,45e8 <emdnorm+0x344>
    4538:	0044a503          	lw	a0,4(s1)
    453c:	0004a783          	lw	a5,0(s1)
    4540:	dcf514e3          	bne	a0,a5,4308 <emdnorm+0x64>
    4544:	09000793          	li	a5,144
    4548:	08f50263          	beq	a0,a5,45cc <emdnorm+0x328>
    454c:	01845783          	lhu	a5,24(s0)
    4550:	00040513          	mv	a0,s0
    4554:	0017f793          	andi	a5,a5,1
    4558:	00f9e9b3          	or	s3,s3,a5
    455c:	d90ff0ef          	jal	ra,3aec <eshdn1>
    4560:	0044a503          	lw	a0,4(s1)
    4564:	e15ff06f          	j	4378 <emdnorm+0xd4>
    4568:	ee0a80e3          	beqz	s5,4448 <emdnorm+0x1a4>
    456c:	0044a503          	lw	a0,4(s1)
    4570:	0004a783          	lw	a5,0(s1)
    4574:	d8f51ae3          	bne	a0,a5,4308 <emdnorm+0x64>
    4578:	e12040e3          	bgtz	s2,4378 <emdnorm+0xd4>
    457c:	fc9ff06f          	j	4544 <emdnorm+0x2a0>
    4580:	00040513          	mv	a0,s0
    4584:	d68ff0ef          	jal	ra,3aec <eshdn1>
    4588:	000087b7          	lui	a5,0x8
    458c:	00190913          	addi	s2,s2,1
    4590:	00041c23          	sh	zero,24(s0)
    4594:	ffe78793          	addi	a5,a5,-2 # 7ffe <__mdiff+0xfa>
    4598:	f527c6e3          	blt	a5,s2,44e4 <emdnorm+0x240>
    459c:	ea095ee3          	bgez	s2,4458 <emdnorm+0x1b4>
    45a0:	00041123          	sh	zero,2(s0)
    45a4:	eb9ff06f          	j	445c <emdnorm+0x1b8>
    45a8:	09000793          	li	a5,144
    45ac:	00f50663          	beq	a0,a5,45b8 <emdnorm+0x314>
    45b0:	00040513          	mv	a0,s0
    45b4:	da0ff0ef          	jal	ra,3b54 <eshup1>
    45b8:	00445783          	lhu	a5,4(s0)
    45bc:	fc0792e3          	bnez	a5,4580 <emdnorm+0x2dc>
    45c0:	00041c23          	sh	zero,24(s0)
    45c4:	fc094ee3          	bltz	s2,45a0 <emdnorm+0x2fc>
    45c8:	e91ff06f          	j	4458 <emdnorm+0x1b4>
    45cc:	0084a603          	lw	a2,8(s1)
    45d0:	0144d783          	lhu	a5,20(s1)
    45d4:	00161613          	slli	a2,a2,0x1
    45d8:	00c40633          	add	a2,s0,a2
    45dc:	00065703          	lhu	a4,0(a2)
    45e0:	00e7f6b3          	and	a3,a5,a4
    45e4:	de5ff06f          	j	43c8 <emdnorm+0x124>
    45e8:	00041c23          	sh	zero,24(s0)
    45ec:	00041123          	sh	zero,2(s0)
    45f0:	e6dff06f          	j	445c <emdnorm+0x1b8>
    45f4:	e00a08e3          	beqz	s4,4404 <emdnorm+0x160>
    45f8:	e45ff06f          	j	443c <emdnorm+0x198>
    45fc:	008007b7          	lui	a5,0x800
    4600:	0ff78793          	addi	a5,a5,255 # 8000ff <_stack+0x7c00ff>
    4604:	00400713          	li	a4,4
    4608:	00f4aa23          	sw	a5,20(s1)
    460c:	10000793          	li	a5,256
    4610:	00e4a423          	sw	a4,8(s1)
    4614:	00f49c23          	sh	a5,24(s1)
    4618:	00e4a623          	sw	a4,12(s1)
    461c:	00400793          	li	a5,4
    4620:	10000713          	li	a4,256
    4624:	d3dff06f          	j	4360 <emdnorm+0xbc>
    4628:	00700793          	li	a5,7
    462c:	00f4a423          	sw	a5,8(s1)
    4630:	800107b7          	lui	a5,0x80010
    4634:	fff78793          	addi	a5,a5,-1 # 8000ffff <_stack+0x7ffcffff>
    4638:	00f4aa23          	sw	a5,20(s1)
    463c:	00100793          	li	a5,1
    4640:	00f49c23          	sh	a5,24(s1)
    4644:	00600793          	li	a5,6
    4648:	00f4a623          	sw	a5,12(s1)
    464c:	00100713          	li	a4,1
    4650:	d11ff06f          	j	4360 <emdnorm+0xbc>
    4654:	00c00793          	li	a5,12
    4658:	00f4a423          	sw	a5,8(s1)
    465c:	800107b7          	lui	a5,0x80010
    4660:	fff78793          	addi	a5,a5,-1 # 8000ffff <_stack+0x7ffcffff>
    4664:	00f4aa23          	sw	a5,20(s1)
    4668:	00100793          	li	a5,1
    466c:	00f49c23          	sh	a5,24(s1)
    4670:	00b00793          	li	a5,11
    4674:	00f4a623          	sw	a5,12(s1)
    4678:	00100713          	li	a4,1
    467c:	ce5ff06f          	j	4360 <emdnorm+0xbc>
    4680:	008007b7          	lui	a5,0x800
    4684:	0ff78793          	addi	a5,a5,255 # 8000ff <_stack+0x7c00ff>
    4688:	00600713          	li	a4,6
    468c:	00f4aa23          	sw	a5,20(s1)
    4690:	10000793          	li	a5,256
    4694:	00e4a423          	sw	a4,8(s1)
    4698:	00f49c23          	sh	a5,24(s1)
    469c:	00e4a623          	sw	a4,12(s1)
    46a0:	00600793          	li	a5,6
    46a4:	10000713          	li	a4,256
    46a8:	cb9ff06f          	j	4360 <emdnorm+0xbc>

000046ac <eiremain>:
    46ac:	fd010113          	addi	sp,sp,-48
    46b0:	03212023          	sw	s2,32(sp)
    46b4:	01312e23          	sw	s3,28(sp)
    46b8:	00058913          	mv	s2,a1
    46bc:	00255983          	lhu	s3,2(a0)
    46c0:	02112623          	sw	ra,44(sp)
    46c4:	02812423          	sw	s0,40(sp)
    46c8:	02912223          	sw	s1,36(sp)
    46cc:	01412c23          	sw	s4,24(sp)
    46d0:	00060493          	mv	s1,a2
    46d4:	01712623          	sw	s7,12(sp)
    46d8:	01512a23          	sw	s5,20(sp)
    46dc:	01612823          	sw	s6,16(sp)
    46e0:	01812423          	sw	s8,8(sp)
    46e4:	01912223          	sw	s9,4(sp)
    46e8:	01a12023          	sw	s10,0(sp)
    46ec:	00050b93          	mv	s7,a0
    46f0:	e28ff0ef          	jal	ra,3d18 <enormlz>
    46f4:	00295403          	lhu	s0,2(s2)
    46f8:	00050793          	mv	a5,a0
    46fc:	00090513          	mv	a0,s2
    4700:	40f989b3          	sub	s3,s3,a5
    4704:	03448a13          	addi	s4,s1,52
    4708:	e10ff0ef          	jal	ra,3d18 <enormlz>
    470c:	40a40433          	sub	s0,s0,a0
    4710:	04e48713          	addi	a4,s1,78
    4714:	000a0793          	mv	a5,s4
    4718:	00278793          	addi	a5,a5,2
    471c:	fe079f23          	sh	zero,-2(a5)
    4720:	fee79ce3          	bne	a5,a4,4718 <eiremain+0x6c>
    4724:	09344863          	blt	s0,s3,47b4 <eiremain+0x108>
    4728:	004b8b13          	addi	s6,s7,4
    472c:	00490a93          	addi	s5,s2,4
    4730:	01ab8c13          	addi	s8,s7,26
    4734:	00290d13          	addi	s10,s2,2
    4738:	000a8713          	mv	a4,s5
    473c:	000b0793          	mv	a5,s6
    4740:	0007d603          	lhu	a2,0(a5)
    4744:	00075683          	lhu	a3,0(a4)
    4748:	00278793          	addi	a5,a5,2
    474c:	00270713          	addi	a4,a4,2
    4750:	0ad61a63          	bne	a2,a3,4804 <eiremain+0x158>
    4754:	ff8796e3          	bne	a5,s8,4740 <eiremain+0x94>
    4758:	018b8613          	addi	a2,s7,24
    475c:	01890713          	addi	a4,s2,24
    4760:	00000693          	li	a3,0
    4764:	00075783          	lhu	a5,0(a4)
    4768:	00065583          	lhu	a1,0(a2)
    476c:	ffe70713          	addi	a4,a4,-2
    4770:	40d787b3          	sub	a5,a5,a3
    4774:	40b787b3          	sub	a5,a5,a1
    4778:	0107d693          	srli	a3,a5,0x10
    477c:	00f71123          	sh	a5,2(a4)
    4780:	0016f693          	andi	a3,a3,1
    4784:	ffe60613          	addi	a2,a2,-2
    4788:	fced1ee3          	bne	s10,a4,4764 <eiremain+0xb8>
    478c:	00100c93          	li	s9,1
    4790:	000a0513          	mv	a0,s4
    4794:	bc0ff0ef          	jal	ra,3b54 <eshup1>
    4798:	04c4d783          	lhu	a5,76(s1)
    479c:	fff40413          	addi	s0,s0,-1
    47a0:	00090513          	mv	a0,s2
    47a4:	00fce7b3          	or	a5,s9,a5
    47a8:	04f49623          	sh	a5,76(s1)
    47ac:	ba8ff0ef          	jal	ra,3b54 <eshup1>
    47b0:	f93454e3          	bge	s0,s3,4738 <eiremain+0x8c>
    47b4:	00040693          	mv	a3,s0
    47b8:	02812403          	lw	s0,40(sp)
    47bc:	02c12083          	lw	ra,44(sp)
    47c0:	01c12983          	lw	s3,28(sp)
    47c4:	01812a03          	lw	s4,24(sp)
    47c8:	01412a83          	lw	s5,20(sp)
    47cc:	01012b03          	lw	s6,16(sp)
    47d0:	00c12b83          	lw	s7,12(sp)
    47d4:	00812c03          	lw	s8,8(sp)
    47d8:	00412c83          	lw	s9,4(sp)
    47dc:	00012d03          	lw	s10,0(sp)
    47e0:	00048793          	mv	a5,s1
    47e4:	00090513          	mv	a0,s2
    47e8:	02412483          	lw	s1,36(sp)
    47ec:	02012903          	lw	s2,32(sp)
    47f0:	00000713          	li	a4,0
    47f4:	00000613          	li	a2,0
    47f8:	00000593          	li	a1,0
    47fc:	03010113          	addi	sp,sp,48
    4800:	aa5ff06f          	j	42a4 <emdnorm>
    4804:	00000c93          	li	s9,0
    4808:	f8c6e4e3          	bltu	a3,a2,4790 <eiremain+0xe4>
    480c:	f4dff06f          	j	4758 <eiremain+0xac>

00004810 <emul>:
    4810:	f7010113          	addi	sp,sp,-144
    4814:	08912223          	sw	s1,132(sp)
    4818:	00050493          	mv	s1,a0
    481c:	01255503          	lhu	a0,18(a0)
    4820:	00008737          	lui	a4,0x8
    4824:	fff70713          	addi	a4,a4,-1 # 7fff <__mdiff+0xfb>
    4828:	08812423          	sw	s0,136(sp)
    482c:	09212023          	sw	s2,128(sp)
    4830:	07412c23          	sw	s4,120(sp)
    4834:	08112623          	sw	ra,140(sp)
    4838:	07312e23          	sw	s3,124(sp)
    483c:	07512a23          	sw	s5,116(sp)
    4840:	07612823          	sw	s6,112(sp)
    4844:	07712623          	sw	s7,108(sp)
    4848:	07812423          	sw	s8,104(sp)
    484c:	07912223          	sw	s9,100(sp)
    4850:	00a77533          	and	a0,a4,a0
    4854:	00058913          	mv	s2,a1
    4858:	00060413          	mv	s0,a2
    485c:	00068a13          	mv	s4,a3
    4860:	00e51e63          	bne	a0,a4,487c <emul+0x6c>
    4864:	01248993          	addi	s3,s1,18
    4868:	00048713          	mv	a4,s1
    486c:	00075603          	lhu	a2,0(a4)
    4870:	00270713          	addi	a4,a4,2
    4874:	22061e63          	bnez	a2,4ab0 <emul+0x2a0>
    4878:	ff371ae3          	bne	a4,s3,486c <emul+0x5c>
    487c:	01295603          	lhu	a2,18(s2)
    4880:	000087b7          	lui	a5,0x8
    4884:	fff78793          	addi	a5,a5,-1 # 7fff <__mdiff+0xfb>
    4888:	00f675b3          	and	a1,a2,a5
    488c:	12f59463          	bne	a1,a5,49b4 <emul+0x1a4>
    4890:	01290693          	addi	a3,s2,18
    4894:	00090713          	mv	a4,s2
    4898:	00075783          	lhu	a5,0(a4)
    489c:	00270713          	addi	a4,a4,2
    48a0:	22079663          	bnez	a5,4acc <emul+0x2bc>
    48a4:	fee69ae3          	bne	a3,a4,4898 <emul+0x88>
    48a8:	000087b7          	lui	a5,0x8
    48ac:	fff78793          	addi	a5,a5,-1 # 7fff <__mdiff+0xfb>
    48b0:	10f50463          	beq	a0,a5,49b8 <emul+0x1a8>
    48b4:	00090793          	mv	a5,s2
    48b8:	0007d703          	lhu	a4,0(a5)
    48bc:	00278793          	addi	a5,a5,2
    48c0:	1c071863          	bnez	a4,4a90 <emul+0x280>
    48c4:	fef69ae3          	bne	a3,a5,48b8 <emul+0xa8>
    48c8:	0001c597          	auipc	a1,0x1c
    48cc:	cb058593          	addi	a1,a1,-848 # 20578 <ezero>
    48d0:	00048513          	mv	a0,s1
    48d4:	895ff0ef          	jal	ra,4168 <ecmp>
    48d8:	20050863          	beqz	a0,4ae8 <emul+0x2d8>
    48dc:	0124d503          	lhu	a0,18(s1)
    48e0:	01295603          	lhu	a2,18(s2)
    48e4:	000087b7          	lui	a5,0x8
    48e8:	fff78793          	addi	a5,a5,-1 # 7fff <__mdiff+0xfb>
    48ec:	00f57833          	and	a6,a0,a5
    48f0:	00f675b3          	and	a1,a2,a5
    48f4:	1af80a63          	beq	a6,a5,4aa8 <emul+0x298>
    48f8:	000087b7          	lui	a5,0x8
    48fc:	fff78793          	addi	a5,a5,-1 # 7fff <__mdiff+0xfb>
    4900:	14f59063          	bne	a1,a5,4a40 <emul+0x230>
    4904:	01290693          	addi	a3,s2,18
    4908:	00090793          	mv	a5,s2
    490c:	0007d703          	lhu	a4,0(a5)
    4910:	00278793          	addi	a5,a5,2
    4914:	12071663          	bnez	a4,4a40 <emul+0x230>
    4918:	fed79ae3          	bne	a5,a3,490c <emul+0xfc>
    491c:	00008737          	lui	a4,0x8
    4920:	fff70713          	addi	a4,a4,-1 # 7fff <__mdiff+0xfb>
    4924:	00f55893          	srli	a7,a0,0xf
    4928:	00080593          	mv	a1,a6
    492c:	01248993          	addi	s3,s1,18
    4930:	0ee80463          	beq	a6,a4,4a18 <emul+0x208>
    4934:	00095703          	lhu	a4,0(s2)
    4938:	00290913          	addi	s2,s2,2
    493c:	32071863          	bnez	a4,4c6c <emul+0x45c>
    4940:	fed91ae3          	bne	s2,a3,4934 <emul+0x124>
    4944:	00f65793          	srli	a5,a2,0xf
    4948:	411787b3          	sub	a5,a5,a7
    494c:	00f037b3          	snez	a5,a5
    4950:	00f79793          	slli	a5,a5,0xf
    4954:	00f41923          	sh	a5,18(s0)
    4958:	01240713          	addi	a4,s0,18
    495c:	00040793          	mv	a5,s0
    4960:	00278793          	addi	a5,a5,2
    4964:	fe079f23          	sh	zero,-2(a5)
    4968:	fee79ce3          	bne	a5,a4,4960 <emul+0x150>
    496c:	01245783          	lhu	a5,18(s0)
    4970:	00008737          	lui	a4,0x8
    4974:	fff70713          	addi	a4,a4,-1 # 7fff <__mdiff+0xfb>
    4978:	00e7e7b3          	or	a5,a5,a4
    497c:	00f41923          	sh	a5,18(s0)
    4980:	08c12083          	lw	ra,140(sp)
    4984:	08812403          	lw	s0,136(sp)
    4988:	08412483          	lw	s1,132(sp)
    498c:	08012903          	lw	s2,128(sp)
    4990:	07c12983          	lw	s3,124(sp)
    4994:	07812a03          	lw	s4,120(sp)
    4998:	07412a83          	lw	s5,116(sp)
    499c:	07012b03          	lw	s6,112(sp)
    49a0:	06c12b83          	lw	s7,108(sp)
    49a4:	06812c03          	lw	s8,104(sp)
    49a8:	06412c83          	lw	s9,100(sp)
    49ac:	09010113          	addi	sp,sp,144
    49b0:	00008067          	ret
    49b4:	08f51663          	bne	a0,a5,4a40 <emul+0x230>
    49b8:	01248993          	addi	s3,s1,18
    49bc:	00048793          	mv	a5,s1
    49c0:	0007d703          	lhu	a4,0(a5)
    49c4:	00278793          	addi	a5,a5,2
    49c8:	2a071a63          	bnez	a4,4c7c <emul+0x46c>
    49cc:	fef99ae3          	bne	s3,a5,49c0 <emul+0x1b0>
    49d0:	0001c597          	auipc	a1,0x1c
    49d4:	ba858593          	addi	a1,a1,-1112 # 20578 <ezero>
    49d8:	00090513          	mv	a0,s2
    49dc:	f8cff0ef          	jal	ra,4168 <ecmp>
    49e0:	10050463          	beqz	a0,4ae8 <emul+0x2d8>
    49e4:	01295603          	lhu	a2,18(s2)
    49e8:	000087b7          	lui	a5,0x8
    49ec:	fff78793          	addi	a5,a5,-1 # 7fff <__mdiff+0xfb>
    49f0:	00f675b3          	and	a1,a2,a5
    49f4:	12f58063          	beq	a1,a5,4b14 <emul+0x304>
    49f8:	0124d503          	lhu	a0,18(s1)
    49fc:	00f57733          	and	a4,a0,a5
    4a00:	04f71063          	bne	a4,a5,4a40 <emul+0x230>
    4a04:	00048793          	mv	a5,s1
    4a08:	0007d703          	lhu	a4,0(a5)
    4a0c:	00278793          	addi	a5,a5,2
    4a10:	2a071463          	bnez	a4,4cb8 <emul+0x4a8>
    4a14:	fef99ae3          	bne	s3,a5,4a08 <emul+0x1f8>
    4a18:	0004d783          	lhu	a5,0(s1)
    4a1c:	00248493          	addi	s1,s1,2
    4a20:	24079a63          	bnez	a5,4c74 <emul+0x464>
    4a24:	ff349ae3          	bne	s1,s3,4a18 <emul+0x208>
    4a28:	00f55893          	srli	a7,a0,0xf
    4a2c:	00008737          	lui	a4,0x8
    4a30:	fff70713          	addi	a4,a4,-1 # 7fff <__mdiff+0xfb>
    4a34:	f0e598e3          	bne	a1,a4,4944 <emul+0x134>
    4a38:	01290693          	addi	a3,s2,18
    4a3c:	ef9ff06f          	j	4934 <emul+0x124>
    4a40:	00048513          	mv	a0,s1
    4a44:	00c10593          	addi	a1,sp,12
    4a48:	e6cff0ef          	jal	ra,40b4 <emovi>
    4a4c:	02810593          	addi	a1,sp,40
    4a50:	00090513          	mv	a0,s2
    4a54:	e60ff0ef          	jal	ra,40b4 <emovi>
    4a58:	00e15483          	lhu	s1,14(sp)
    4a5c:	02a15983          	lhu	s3,42(sp)
    4a60:	0a049e63          	bnez	s1,4b1c <emul+0x30c>
    4a64:	01010793          	addi	a5,sp,16
    4a68:	02410693          	addi	a3,sp,36
    4a6c:	22d78263          	beq	a5,a3,4c90 <emul+0x480>
    4a70:	0007d703          	lhu	a4,0(a5)
    4a74:	00278793          	addi	a5,a5,2
    4a78:	fe070ae3          	beqz	a4,4a6c <emul+0x25c>
    4a7c:	00c10513          	addi	a0,sp,12
    4a80:	a98ff0ef          	jal	ra,3d18 <enormlz>
    4a84:	02a15703          	lhu	a4,42(sp)
    4a88:	40a004b3          	neg	s1,a0
    4a8c:	0940006f          	j	4b20 <emul+0x310>
    4a90:	0124d503          	lhu	a0,18(s1)
    4a94:	000087b7          	lui	a5,0x8
    4a98:	fff78793          	addi	a5,a5,-1 # 7fff <__mdiff+0xfb>
    4a9c:	00f575b3          	and	a1,a0,a5
    4aa0:	00058813          	mv	a6,a1
    4aa4:	e6f592e3          	bne	a1,a5,4908 <emul+0xf8>
    4aa8:	01248993          	addi	s3,s1,18
    4aac:	f59ff06f          	j	4a04 <emul+0x1f4>
    4ab0:	01448713          	addi	a4,s1,20
    4ab4:	0004d783          	lhu	a5,0(s1)
    4ab8:	00248493          	addi	s1,s1,2
    4abc:	00240413          	addi	s0,s0,2
    4ac0:	fef41f23          	sh	a5,-2(s0)
    4ac4:	fee498e3          	bne	s1,a4,4ab4 <emul+0x2a4>
    4ac8:	eb9ff06f          	j	4980 <emul+0x170>
    4acc:	01440713          	addi	a4,s0,20
    4ad0:	00095783          	lhu	a5,0(s2)
    4ad4:	00240413          	addi	s0,s0,2
    4ad8:	00290913          	addi	s2,s2,2
    4adc:	fef41f23          	sh	a5,-2(s0)
    4ae0:	fee418e3          	bne	s0,a4,4ad0 <emul+0x2c0>
    4ae4:	e9dff06f          	j	4980 <emul+0x170>
    4ae8:	01040713          	addi	a4,s0,16
    4aec:	00040793          	mv	a5,s0
    4af0:	00278793          	addi	a5,a5,2
    4af4:	fe079f23          	sh	zero,-2(a5)
    4af8:	fee79ce3          	bne	a5,a4,4af0 <emul+0x2e0>
    4afc:	ffffc7b7          	lui	a5,0xffffc
    4b00:	00f41823          	sh	a5,16(s0)
    4b04:	ffff87b7          	lui	a5,0xffff8
    4b08:	fff7c793          	not	a5,a5
    4b0c:	00f41923          	sh	a5,18(s0)
    4b10:	e71ff06f          	j	4980 <emul+0x170>
    4b14:	01290693          	addi	a3,s2,18
    4b18:	d9dff06f          	j	48b4 <emul+0xa4>
    4b1c:	00098713          	mv	a4,s3
    4b20:	00098913          	mv	s2,s3
    4b24:	02c10793          	addi	a5,sp,44
    4b28:	04010693          	addi	a3,sp,64
    4b2c:	02071263          	bnez	a4,4b50 <emul+0x340>
    4b30:	16f68a63          	beq	a3,a5,4ca4 <emul+0x494>
    4b34:	0007d703          	lhu	a4,0(a5) # ffff8000 <_stack+0xfffb8000>
    4b38:	00278793          	addi	a5,a5,2
    4b3c:	fe070ae3          	beqz	a4,4b30 <emul+0x320>
    4b40:	02810513          	addi	a0,sp,40
    4b44:	9d4ff0ef          	jal	ra,3d18 <enormlz>
    4b48:	02a15703          	lhu	a4,42(sp)
    4b4c:	40a98933          	sub	s2,s3,a0
    4b50:	02815783          	lhu	a5,40(sp)
    4b54:	038a0993          	addi	s3,s4,56
    4b58:	02ea1b23          	sh	a4,54(s4)
    4b5c:	02fa1a23          	sh	a5,52(s4)
    4b60:	04ea0713          	addi	a4,s4,78
    4b64:	00098793          	mv	a5,s3
    4b68:	00079023          	sh	zero,0(a5)
    4b6c:	00278793          	addi	a5,a5,2
    4b70:	fef71ce3          	bne	a4,a5,4b68 <emul+0x358>
    4b74:	04ca0c13          	addi	s8,s4,76
    4b78:	00000b93          	li	s7,0
    4b7c:	02410a93          	addi	s5,sp,36
    4b80:	01010c93          	addi	s9,sp,16
    4b84:	04610b13          	addi	s6,sp,70
    4b88:	000ad503          	lhu	a0,0(s5)
    4b8c:	ffea8a93          	addi	s5,s5,-2
    4b90:	08051c63          	bnez	a0,4c28 <emul+0x418>
    4b94:	04ca5783          	lhu	a5,76(s4)
    4b98:	000c0713          	mv	a4,s8
    4b9c:	00fbebb3          	or	s7,s7,a5
    4ba0:	ffe75603          	lhu	a2,-2(a4)
    4ba4:	ffe70713          	addi	a4,a4,-2
    4ba8:	00c71123          	sh	a2,2(a4)
    4bac:	fee99ae3          	bne	s3,a4,4ba0 <emul+0x390>
    4bb0:	020a1c23          	sh	zero,56(s4)
    4bb4:	fd9a9ae3          	bne	s5,s9,4b88 <emul+0x378>
    4bb8:	034a0713          	addi	a4,s4,52
    4bbc:	02810793          	addi	a5,sp,40
    4bc0:	04210613          	addi	a2,sp,66
    4bc4:	00075683          	lhu	a3,0(a4)
    4bc8:	00278793          	addi	a5,a5,2
    4bcc:	00270713          	addi	a4,a4,2
    4bd0:	fed79f23          	sh	a3,-2(a5)
    4bd4:	fef618e3          	bne	a2,a5,4bc4 <emul+0x3b4>
    4bd8:	ffffc6b7          	lui	a3,0xffffc
    4bdc:	012484b3          	add	s1,s1,s2
    4be0:	00268693          	addi	a3,a3,2 # ffffc002 <_stack+0xfffbc002>
    4be4:	000b8593          	mv	a1,s7
    4be8:	02810513          	addi	a0,sp,40
    4bec:	000a0793          	mv	a5,s4
    4bf0:	04000713          	li	a4,64
    4bf4:	00d486b3          	add	a3,s1,a3
    4bf8:	00000613          	li	a2,0
    4bfc:	ea8ff0ef          	jal	ra,42a4 <emdnorm>
    4c00:	02815703          	lhu	a4,40(sp)
    4c04:	00c15783          	lhu	a5,12(sp)
    4c08:	00040593          	mv	a1,s0
    4c0c:	02810513          	addi	a0,sp,40
    4c10:	40e787b3          	sub	a5,a5,a4
    4c14:	00f037b3          	snez	a5,a5
    4c18:	40f007b3          	neg	a5,a5
    4c1c:	02f11423          	sh	a5,40(sp)
    4c20:	83cff0ef          	jal	ra,3c5c <emovo.constprop.0>
    4c24:	d5dff06f          	j	4980 <emul+0x170>
    4c28:	04410613          	addi	a2,sp,68
    4c2c:	02810593          	addi	a1,sp,40
    4c30:	f95fe0ef          	jal	ra,3bc4 <m16m>
    4c34:	000c0513          	mv	a0,s8
    4c38:	00000593          	li	a1,0
    4c3c:	05c10613          	addi	a2,sp,92
    4c40:	00055783          	lhu	a5,0(a0)
    4c44:	00065703          	lhu	a4,0(a2)
    4c48:	ffe50513          	addi	a0,a0,-2
    4c4c:	ffe60613          	addi	a2,a2,-2
    4c50:	00f70733          	add	a4,a4,a5
    4c54:	00b70733          	add	a4,a4,a1
    4c58:	01075593          	srli	a1,a4,0x10
    4c5c:	00e51123          	sh	a4,2(a0)
    4c60:	0015f593          	andi	a1,a1,1
    4c64:	fd661ee3          	bne	a2,s6,4c40 <emul+0x430>
    4c68:	f2dff06f          	j	4b94 <emul+0x384>
    4c6c:	00000793          	li	a5,0
    4c70:	cd9ff06f          	j	4948 <emul+0x138>
    4c74:	00000893          	li	a7,0
    4c78:	db5ff06f          	j	4a2c <emul+0x21c>
    4c7c:	000087b7          	lui	a5,0x8
    4c80:	fff78793          	addi	a5,a5,-1 # 7fff <__mdiff+0xfb>
    4c84:	e8f588e3          	beq	a1,a5,4b14 <emul+0x304>
    4c88:	0124d503          	lhu	a0,18(s1)
    4c8c:	d79ff06f          	j	4a04 <emul+0x1f4>
    4c90:	01440793          	addi	a5,s0,20
    4c94:	00240413          	addi	s0,s0,2
    4c98:	fe041f23          	sh	zero,-2(s0)
    4c9c:	fef41ce3          	bne	s0,a5,4c94 <emul+0x484>
    4ca0:	ce1ff06f          	j	4980 <emul+0x170>
    4ca4:	01440793          	addi	a5,s0,20
    4ca8:	00240413          	addi	s0,s0,2
    4cac:	fe041f23          	sh	zero,-2(s0)
    4cb0:	fef41ce3          	bne	s0,a5,4ca8 <emul+0x498>
    4cb4:	ccdff06f          	j	4980 <emul+0x170>
    4cb8:	00008837          	lui	a6,0x8
    4cbc:	fff80813          	addi	a6,a6,-1 # 7fff <__mdiff+0xfb>
    4cc0:	c39ff06f          	j	48f8 <emul+0xe8>

00004cc4 <ediv>:
    4cc4:	01255783          	lhu	a5,18(a0)
    4cc8:	f5010113          	addi	sp,sp,-176
    4ccc:	0a812423          	sw	s0,168(sp)
    4cd0:	fff7c793          	not	a5,a5
    4cd4:	0a912223          	sw	s1,164(sp)
    4cd8:	0b212023          	sw	s2,160(sp)
    4cdc:	09312e23          	sw	s3,156(sp)
    4ce0:	0a112623          	sw	ra,172(sp)
    4ce4:	09412c23          	sw	s4,152(sp)
    4ce8:	09512a23          	sw	s5,148(sp)
    4cec:	09612823          	sw	s6,144(sp)
    4cf0:	09712623          	sw	s7,140(sp)
    4cf4:	09812423          	sw	s8,136(sp)
    4cf8:	09912223          	sw	s9,132(sp)
    4cfc:	09a12023          	sw	s10,128(sp)
    4d00:	07b12e23          	sw	s11,124(sp)
    4d04:	01179713          	slli	a4,a5,0x11
    4d08:	00050493          	mv	s1,a0
    4d0c:	00058913          	mv	s2,a1
    4d10:	00060413          	mv	s0,a2
    4d14:	00068993          	mv	s3,a3
    4d18:	00071e63          	bnez	a4,4d34 <ediv+0x70>
    4d1c:	01250693          	addi	a3,a0,18
    4d20:	00050793          	mv	a5,a0
    4d24:	0007d703          	lhu	a4,0(a5)
    4d28:	00278793          	addi	a5,a5,2
    4d2c:	30071263          	bnez	a4,5030 <ediv+0x36c>
    4d30:	fed79ae3          	bne	a5,a3,4d24 <ediv+0x60>
    4d34:	01295783          	lhu	a5,18(s2)
    4d38:	fff7c793          	not	a5,a5
    4d3c:	01179713          	slli	a4,a5,0x11
    4d40:	00071e63          	bnez	a4,4d5c <ediv+0x98>
    4d44:	01290693          	addi	a3,s2,18
    4d48:	00090793          	mv	a5,s2
    4d4c:	0007d703          	lhu	a4,0(a5)
    4d50:	00278793          	addi	a5,a5,2
    4d54:	2e071c63          	bnez	a4,504c <ediv+0x388>
    4d58:	fef69ae3          	bne	a3,a5,4d4c <ediv+0x88>
    4d5c:	0001c597          	auipc	a1,0x1c
    4d60:	81c58593          	addi	a1,a1,-2020 # 20578 <ezero>
    4d64:	00048513          	mv	a0,s1
    4d68:	c00ff0ef          	jal	ra,4168 <ecmp>
    4d6c:	2e050e63          	beqz	a0,5068 <ediv+0x3a4>
    4d70:	0124d603          	lhu	a2,18(s1)
    4d74:	01295583          	lhu	a1,18(s2)
    4d78:	000087b7          	lui	a5,0x8
    4d7c:	fff78793          	addi	a5,a5,-1 # 7fff <__mdiff+0xfb>
    4d80:	00f67533          	and	a0,a2,a5
    4d84:	00f5f6b3          	and	a3,a1,a5
    4d88:	0af51663          	bne	a0,a5,4e34 <ediv+0x170>
    4d8c:	01248813          	addi	a6,s1,18
    4d90:	00048793          	mv	a5,s1
    4d94:	0007d703          	lhu	a4,0(a5)
    4d98:	00278793          	addi	a5,a5,2
    4d9c:	08071863          	bnez	a4,4e2c <ediv+0x168>
    4da0:	ff079ae3          	bne	a5,a6,4d94 <ediv+0xd0>
    4da4:	000087b7          	lui	a5,0x8
    4da8:	fff78793          	addi	a5,a5,-1 # 7fff <__mdiff+0xfb>
    4dac:	2cf69c63          	bne	a3,a5,5084 <ediv+0x3c0>
    4db0:	01290693          	addi	a3,s2,18
    4db4:	00090793          	mv	a5,s2
    4db8:	0007d703          	lhu	a4,0(a5)
    4dbc:	00278793          	addi	a5,a5,2
    4dc0:	48071e63          	bnez	a4,525c <ediv+0x598>
    4dc4:	fed79ae3          	bne	a5,a3,4db8 <ediv+0xf4>
    4dc8:	01040713          	addi	a4,s0,16
    4dcc:	00040793          	mv	a5,s0
    4dd0:	00278793          	addi	a5,a5,2
    4dd4:	fe079f23          	sh	zero,-2(a5)
    4dd8:	fee79ce3          	bne	a5,a4,4dd0 <ediv+0x10c>
    4ddc:	ffffc7b7          	lui	a5,0xffffc
    4de0:	00f41823          	sh	a5,16(s0)
    4de4:	ffff87b7          	lui	a5,0xffff8
    4de8:	fff7c793          	not	a5,a5
    4dec:	00f41923          	sh	a5,18(s0)
    4df0:	0ac12083          	lw	ra,172(sp)
    4df4:	0a812403          	lw	s0,168(sp)
    4df8:	0a412483          	lw	s1,164(sp)
    4dfc:	0a012903          	lw	s2,160(sp)
    4e00:	09c12983          	lw	s3,156(sp)
    4e04:	09812a03          	lw	s4,152(sp)
    4e08:	09412a83          	lw	s5,148(sp)
    4e0c:	09012b03          	lw	s6,144(sp)
    4e10:	08c12b83          	lw	s7,140(sp)
    4e14:	08812c03          	lw	s8,136(sp)
    4e18:	08412c83          	lw	s9,132(sp)
    4e1c:	08012d03          	lw	s10,128(sp)
    4e20:	07c12d83          	lw	s11,124(sp)
    4e24:	0b010113          	addi	sp,sp,176
    4e28:	00008067          	ret
    4e2c:	000087b7          	lui	a5,0x8
    4e30:	fff78793          	addi	a5,a5,-1 # 7fff <__mdiff+0xfb>
    4e34:	26f68263          	beq	a3,a5,5098 <ediv+0x3d4>
    4e38:	00048513          	mv	a0,s1
    4e3c:	01c10593          	addi	a1,sp,28
    4e40:	a74ff0ef          	jal	ra,40b4 <emovi>
    4e44:	03810593          	addi	a1,sp,56
    4e48:	00090513          	mv	a0,s2
    4e4c:	a68ff0ef          	jal	ra,40b4 <emovi>
    4e50:	03a15a83          	lhu	s5,58(sp)
    4e54:	01e15483          	lhu	s1,30(sp)
    4e58:	2c0a8863          	beqz	s5,5128 <ediv+0x464>
    4e5c:	01512623          	sw	s5,12(sp)
    4e60:	00048613          	mv	a2,s1
    4e64:	00912423          	sw	s1,8(sp)
    4e68:	02010793          	addi	a5,sp,32
    4e6c:	03410693          	addi	a3,sp,52
    4e70:	02061263          	bnez	a2,4e94 <ediv+0x1d0>
    4e74:	3af68663          	beq	a3,a5,5220 <ediv+0x55c>
    4e78:	0007d703          	lhu	a4,0(a5)
    4e7c:	00278793          	addi	a5,a5,2
    4e80:	fe070ae3          	beqz	a4,4e74 <ediv+0x1b0>
    4e84:	01c10513          	addi	a0,sp,28
    4e88:	e91fe0ef          	jal	ra,3d18 <enormlz>
    4e8c:	40a487b3          	sub	a5,s1,a0
    4e90:	00f12423          	sw	a5,8(sp)
    4e94:	03812703          	lw	a4,56(sp)
    4e98:	03898a93          	addi	s5,s3,56
    4e9c:	000a8793          	mv	a5,s5
    4ea0:	02e9aa23          	sw	a4,52(s3)
    4ea4:	04e98493          	addi	s1,s3,78
    4ea8:	00278793          	addi	a5,a5,2
    4eac:	fe079f23          	sh	zero,-2(a5)
    4eb0:	fe979ce3          	bne	a5,s1,4ea8 <ediv+0x1e4>
    4eb4:	03810513          	addi	a0,sp,56
    4eb8:	c35fe0ef          	jal	ra,3aec <eshdn1>
    4ebc:	02215b03          	lhu	s6,34(sp)
    4ec0:	00010937          	lui	s2,0x10
    4ec4:	05010c13          	addi	s8,sp,80
    4ec8:	010b1a13          	slli	s4,s6,0x10
    4ecc:	416a0a33          	sub	s4,s4,s6
    4ed0:	03a10c93          	addi	s9,sp,58
    4ed4:	fff90913          	addi	s2,s2,-1 # ffff <__udivdi3+0x3b3>
    4ed8:	06e10d13          	addi	s10,sp,110
    4edc:	05610d93          	addi	s11,sp,86
    4ee0:	03c15783          	lhu	a5,60(sp)
    4ee4:	03e15703          	lhu	a4,62(sp)
    4ee8:	00090b93          	mv	s7,s2
    4eec:	01079793          	slli	a5,a5,0x10
    4ef0:	00e787b3          	add	a5,a5,a4
    4ef4:	00fa6863          	bltu	s4,a5,4f04 <ediv+0x240>
    4ef8:	0367d533          	divu	a0,a5,s6
    4efc:	01051b93          	slli	s7,a0,0x10
    4f00:	010bdb93          	srli	s7,s7,0x10
    4f04:	05410613          	addi	a2,sp,84
    4f08:	01c10593          	addi	a1,sp,28
    4f0c:	000b8513          	mv	a0,s7
    4f10:	cb5fe0ef          	jal	ra,3bc4 <m16m>
    4f14:	03c10713          	addi	a4,sp,60
    4f18:	05810793          	addi	a5,sp,88
    4f1c:	0007d603          	lhu	a2,0(a5)
    4f20:	00075683          	lhu	a3,0(a4)
    4f24:	00278793          	addi	a5,a5,2
    4f28:	00270713          	addi	a4,a4,2
    4f2c:	22d61663          	bne	a2,a3,5158 <ediv+0x494>
    4f30:	ffa796e3          	bne	a5,s10,4f1c <ediv+0x258>
    4f34:	00000793          	li	a5,0
    4f38:	06c10693          	addi	a3,sp,108
    4f3c:	000c0613          	mv	a2,s8
    4f40:	00065703          	lhu	a4,0(a2)
    4f44:	0006d583          	lhu	a1,0(a3)
    4f48:	ffe60613          	addi	a2,a2,-2
    4f4c:	40f70733          	sub	a4,a4,a5
    4f50:	40b70733          	sub	a4,a4,a1
    4f54:	01075793          	srli	a5,a4,0x10
    4f58:	00e61123          	sh	a4,2(a2)
    4f5c:	0017f793          	andi	a5,a5,1
    4f60:	ffe68693          	addi	a3,a3,-2
    4f64:	fd961ee3          	bne	a2,s9,4f40 <ediv+0x27c>
    4f68:	017a9023          	sh	s7,0(s5)
    4f6c:	03c10793          	addi	a5,sp,60
    4f70:	0027d703          	lhu	a4,2(a5)
    4f74:	00278793          	addi	a5,a5,2
    4f78:	fee79f23          	sh	a4,-2(a5)
    4f7c:	ff879ae3          	bne	a5,s8,4f70 <ediv+0x2ac>
    4f80:	04011823          	sh	zero,80(sp)
    4f84:	002a8a93          	addi	s5,s5,2
    4f88:	f5549ce3          	bne	s1,s5,4ee0 <ediv+0x21c>
    4f8c:	00000713          	li	a4,0
    4f90:	03c10793          	addi	a5,sp,60
    4f94:	05210613          	addi	a2,sp,82
    4f98:	0007d683          	lhu	a3,0(a5)
    4f9c:	00278793          	addi	a5,a5,2
    4fa0:	00d76733          	or	a4,a4,a3
    4fa4:	fec79ae3          	bne	a5,a2,4f98 <ediv+0x2d4>
    4fa8:	01071793          	slli	a5,a4,0x10
    4fac:	4107d793          	srai	a5,a5,0x10
    4fb0:	00078463          	beqz	a5,4fb8 <ediv+0x2f4>
    4fb4:	00100713          	li	a4,1
    4fb8:	01071593          	slli	a1,a4,0x10
    4fbc:	0105d593          	srli	a1,a1,0x10
    4fc0:	03498713          	addi	a4,s3,52
    4fc4:	03810793          	addi	a5,sp,56
    4fc8:	00075683          	lhu	a3,0(a4)
    4fcc:	00278793          	addi	a5,a5,2
    4fd0:	00270713          	addi	a4,a4,2
    4fd4:	fed79f23          	sh	a3,-2(a5)
    4fd8:	fef618e3          	bne	a2,a5,4fc8 <ediv+0x304>
    4fdc:	00c12783          	lw	a5,12(sp)
    4fe0:	00812703          	lw	a4,8(sp)
    4fe4:	000046b7          	lui	a3,0x4
    4fe8:	fff68693          	addi	a3,a3,-1 # 3fff <eshift.part.0+0x16b>
    4fec:	40e78ab3          	sub	s5,a5,a4
    4ff0:	03810513          	addi	a0,sp,56
    4ff4:	00098793          	mv	a5,s3
    4ff8:	04000713          	li	a4,64
    4ffc:	00da86b3          	add	a3,s5,a3
    5000:	00000613          	li	a2,0
    5004:	aa0ff0ef          	jal	ra,42a4 <emdnorm>
    5008:	03815703          	lhu	a4,56(sp)
    500c:	01c15783          	lhu	a5,28(sp)
    5010:	00040593          	mv	a1,s0
    5014:	03810513          	addi	a0,sp,56
    5018:	40e787b3          	sub	a5,a5,a4
    501c:	00f037b3          	snez	a5,a5
    5020:	40f007b3          	neg	a5,a5
    5024:	02f11c23          	sh	a5,56(sp)
    5028:	c35fe0ef          	jal	ra,3c5c <emovo.constprop.0>
    502c:	dc5ff06f          	j	4df0 <ediv+0x12c>
    5030:	01448713          	addi	a4,s1,20
    5034:	0004d783          	lhu	a5,0(s1)
    5038:	00248493          	addi	s1,s1,2
    503c:	00240413          	addi	s0,s0,2
    5040:	fef41f23          	sh	a5,-2(s0)
    5044:	fee498e3          	bne	s1,a4,5034 <ediv+0x370>
    5048:	da9ff06f          	j	4df0 <ediv+0x12c>
    504c:	01490713          	addi	a4,s2,20
    5050:	00095783          	lhu	a5,0(s2)
    5054:	00290913          	addi	s2,s2,2
    5058:	00240413          	addi	s0,s0,2
    505c:	fef41f23          	sh	a5,-2(s0)
    5060:	fee918e3          	bne	s2,a4,5050 <ediv+0x38c>
    5064:	d8dff06f          	j	4df0 <ediv+0x12c>
    5068:	0001b597          	auipc	a1,0x1b
    506c:	51058593          	addi	a1,a1,1296 # 20578 <ezero>
    5070:	00090513          	mv	a0,s2
    5074:	8f4ff0ef          	jal	ra,4168 <ecmp>
    5078:	ce051ce3          	bnez	a0,4d70 <ediv+0xac>
    507c:	d4dff06f          	j	4dc8 <ediv+0x104>
    5080:	da080ce3          	beqz	a6,4e38 <ediv+0x174>
    5084:	01440793          	addi	a5,s0,20
    5088:	00240413          	addi	s0,s0,2
    508c:	fe041f23          	sh	zero,-2(s0)
    5090:	fef41ce3          	bne	s0,a5,5088 <ediv+0x3c4>
    5094:	d5dff06f          	j	4df0 <ediv+0x12c>
    5098:	00000813          	li	a6,0
    509c:	01290693          	addi	a3,s2,18
    50a0:	00090793          	mv	a5,s2
    50a4:	0007d703          	lhu	a4,0(a5)
    50a8:	00278793          	addi	a5,a5,2
    50ac:	fc071ae3          	bnez	a4,5080 <ediv+0x3bc>
    50b0:	fed79ae3          	bne	a5,a3,50a4 <ediv+0x3e0>
    50b4:	000087b7          	lui	a5,0x8
    50b8:	fff78793          	addi	a5,a5,-1 # 7fff <__mdiff+0xfb>
    50bc:	04f50a63          	beq	a0,a5,5110 <ediv+0x44c>
    50c0:	00f65613          	srli	a2,a2,0xf
    50c4:	00095783          	lhu	a5,0(s2)
    50c8:	00290913          	addi	s2,s2,2
    50cc:	18079063          	bnez	a5,524c <ediv+0x588>
    50d0:	fed91ae3          	bne	s2,a3,50c4 <ediv+0x400>
    50d4:	00f5d593          	srli	a1,a1,0xf
    50d8:	00c58463          	beq	a1,a2,50e0 <ediv+0x41c>
    50dc:	00008737          	lui	a4,0x8
    50e0:	00e41923          	sh	a4,18(s0)
    50e4:	00040793          	mv	a5,s0
    50e8:	01240713          	addi	a4,s0,18
    50ec:	00278793          	addi	a5,a5,2
    50f0:	fe079f23          	sh	zero,-2(a5)
    50f4:	fee79ce3          	bne	a5,a4,50ec <ediv+0x428>
    50f8:	01245783          	lhu	a5,18(s0)
    50fc:	00008737          	lui	a4,0x8
    5100:	fff70713          	addi	a4,a4,-1 # 7fff <__mdiff+0xfb>
    5104:	00e7e7b3          	or	a5,a5,a4
    5108:	00f41923          	sh	a5,18(s0)
    510c:	ce5ff06f          	j	4df0 <ediv+0x12c>
    5110:	01248513          	addi	a0,s1,18
    5114:	0004d783          	lhu	a5,0(s1)
    5118:	00248493          	addi	s1,s1,2
    511c:	12079c63          	bnez	a5,5254 <ediv+0x590>
    5120:	fea49ae3          	bne	s1,a0,5114 <ediv+0x450>
    5124:	f9dff06f          	j	50c0 <ediv+0x3fc>
    5128:	03c10793          	addi	a5,sp,60
    512c:	05010c13          	addi	s8,sp,80
    5130:	0cfc0e63          	beq	s8,a5,520c <ediv+0x548>
    5134:	0007d703          	lhu	a4,0(a5)
    5138:	00278793          	addi	a5,a5,2
    513c:	fe070ae3          	beqz	a4,5130 <ediv+0x46c>
    5140:	03810513          	addi	a0,sp,56
    5144:	bd5fe0ef          	jal	ra,3d18 <enormlz>
    5148:	40a007b3          	neg	a5,a0
    514c:	01e15603          	lhu	a2,30(sp)
    5150:	00f12623          	sw	a5,12(sp)
    5154:	d11ff06f          	j	4e64 <ediv+0x1a0>
    5158:	dcc6fee3          	bgeu	a3,a2,4f34 <ediv+0x270>
    515c:	fffb8793          	addi	a5,s7,-1
    5160:	01079893          	slli	a7,a5,0x10
    5164:	0108d893          	srli	a7,a7,0x10
    5168:	00000693          	li	a3,0
    516c:	03410613          	addi	a2,sp,52
    5170:	06c10713          	addi	a4,sp,108
    5174:	00075783          	lhu	a5,0(a4)
    5178:	00065583          	lhu	a1,0(a2)
    517c:	ffe70713          	addi	a4,a4,-2
    5180:	40d787b3          	sub	a5,a5,a3
    5184:	40b787b3          	sub	a5,a5,a1
    5188:	0107d693          	srli	a3,a5,0x10
    518c:	00f71123          	sh	a5,2(a4)
    5190:	0016f693          	andi	a3,a3,1
    5194:	ffe60613          	addi	a2,a2,-2
    5198:	fdb71ee3          	bne	a4,s11,5174 <ediv+0x4b0>
    519c:	03c10713          	addi	a4,sp,60
    51a0:	05810793          	addi	a5,sp,88
    51a4:	0007d603          	lhu	a2,0(a5)
    51a8:	00075683          	lhu	a3,0(a4)
    51ac:	00278793          	addi	a5,a5,2
    51b0:	00270713          	addi	a4,a4,2
    51b4:	00d61863          	bne	a2,a3,51c4 <ediv+0x500>
    51b8:	ffa796e3          	bne	a5,s10,51a4 <ediv+0x4e0>
    51bc:	00088b93          	mv	s7,a7
    51c0:	d75ff06f          	j	4f34 <ediv+0x270>
    51c4:	fec6fce3          	bgeu	a3,a2,51bc <ediv+0x4f8>
    51c8:	ffeb8513          	addi	a0,s7,-2
    51cc:	01051b93          	slli	s7,a0,0x10
    51d0:	010bdb93          	srli	s7,s7,0x10
    51d4:	00000693          	li	a3,0
    51d8:	03410613          	addi	a2,sp,52
    51dc:	06c10713          	addi	a4,sp,108
    51e0:	00075783          	lhu	a5,0(a4)
    51e4:	00065583          	lhu	a1,0(a2)
    51e8:	ffe70713          	addi	a4,a4,-2
    51ec:	40d787b3          	sub	a5,a5,a3
    51f0:	40b787b3          	sub	a5,a5,a1
    51f4:	0107d693          	srli	a3,a5,0x10
    51f8:	00f71123          	sh	a5,2(a4)
    51fc:	0016f693          	andi	a3,a3,1
    5200:	ffe60613          	addi	a2,a2,-2
    5204:	fdb71ee3          	bne	a4,s11,51e0 <ediv+0x51c>
    5208:	d2dff06f          	j	4f34 <ediv+0x270>
    520c:	01440793          	addi	a5,s0,20
    5210:	00240413          	addi	s0,s0,2
    5214:	fe041f23          	sh	zero,-2(s0)
    5218:	fef41ce3          	bne	s0,a5,5210 <ediv+0x54c>
    521c:	bd5ff06f          	j	4df0 <ediv+0x12c>
    5220:	01c15703          	lhu	a4,28(sp)
    5224:	03815783          	lhu	a5,56(sp)
    5228:	00f70463          	beq	a4,a5,5230 <ediv+0x56c>
    522c:	00008637          	lui	a2,0x8
    5230:	00c41923          	sh	a2,18(s0)
    5234:	01240713          	addi	a4,s0,18
    5238:	00040793          	mv	a5,s0
    523c:	00278793          	addi	a5,a5,2
    5240:	fe079f23          	sh	zero,-2(a5)
    5244:	fee79ce3          	bne	a5,a4,523c <ediv+0x578>
    5248:	eb1ff06f          	j	50f8 <ediv+0x434>
    524c:	00000593          	li	a1,0
    5250:	e89ff06f          	j	50d8 <ediv+0x414>
    5254:	00000613          	li	a2,0
    5258:	e6dff06f          	j	50c4 <ediv+0x400>
    525c:	00100813          	li	a6,1
    5260:	e41ff06f          	j	50a0 <ediv+0x3dc>

00005264 <e113toe.isra.0>:
    5264:	fd010113          	addi	sp,sp,-48
    5268:	02812423          	sw	s0,40(sp)
    526c:	02112623          	sw	ra,44(sp)
    5270:	00058413          	mv	s0,a1
    5274:	00410793          	addi	a5,sp,4
    5278:	01e10713          	addi	a4,sp,30
    527c:	00278793          	addi	a5,a5,2
    5280:	fe079f23          	sh	zero,-2(a5)
    5284:	fee79ce3          	bne	a5,a4,527c <e113toe.isra.0+0x18>
    5288:	00e55603          	lhu	a2,14(a0)
    528c:	01061793          	slli	a5,a2,0x10
    5290:	4107d793          	srai	a5,a5,0x10
    5294:	0607ca63          	bltz	a5,5308 <e113toe.isra.0+0xa4>
    5298:	000087b7          	lui	a5,0x8
    529c:	fff78793          	addi	a5,a5,-1 # 7fff <__mdiff+0xfb>
    52a0:	00011223          	sh	zero,4(sp)
    52a4:	00f67633          	and	a2,a2,a5
    52a8:	06f60c63          	beq	a2,a5,5320 <e113toe.isra.0+0xbc>
    52ac:	00e50793          	addi	a5,a0,14
    52b0:	00c11323          	sh	a2,6(sp)
    52b4:	00a10713          	addi	a4,sp,10
    52b8:	ffe7d683          	lhu	a3,-2(a5)
    52bc:	ffe78793          	addi	a5,a5,-2
    52c0:	00270713          	addi	a4,a4,2
    52c4:	fed71f23          	sh	a3,-2(a4)
    52c8:	fef518e3          	bne	a0,a5,52b8 <e113toe.isra.0+0x54>
    52cc:	02061263          	bnez	a2,52f0 <e113toe.isra.0+0x8c>
    52d0:	00011423          	sh	zero,8(sp)
    52d4:	00040593          	mv	a1,s0
    52d8:	00410513          	addi	a0,sp,4
    52dc:	981fe0ef          	jal	ra,3c5c <emovo.constprop.0>
    52e0:	02c12083          	lw	ra,44(sp)
    52e4:	02812403          	lw	s0,40(sp)
    52e8:	03010113          	addi	sp,sp,48
    52ec:	00008067          	ret
    52f0:	00100793          	li	a5,1
    52f4:	fff00593          	li	a1,-1
    52f8:	00410513          	addi	a0,sp,4
    52fc:	00f11423          	sh	a5,8(sp)
    5300:	b95fe0ef          	jal	ra,3e94 <eshift.part.0>
    5304:	fd1ff06f          	j	52d4 <e113toe.isra.0+0x70>
    5308:	fff00793          	li	a5,-1
    530c:	00f11223          	sh	a5,4(sp)
    5310:	000087b7          	lui	a5,0x8
    5314:	fff78793          	addi	a5,a5,-1 # 7fff <__mdiff+0xfb>
    5318:	00f67633          	and	a2,a2,a5
    531c:	f8f618e3          	bne	a2,a5,52ac <e113toe.isra.0+0x48>
    5320:	00050793          	mv	a5,a0
    5324:	00e50693          	addi	a3,a0,14
    5328:	0007d703          	lhu	a4,0(a5)
    532c:	00278793          	addi	a5,a5,2
    5330:	06071c63          	bnez	a4,53a8 <e113toe.isra.0+0x144>
    5334:	fef69ae3          	bne	a3,a5,5328 <e113toe.isra.0+0xc4>
    5338:	01440713          	addi	a4,s0,20
    533c:	00040793          	mv	a5,s0
    5340:	00278793          	addi	a5,a5,2
    5344:	fe079f23          	sh	zero,-2(a5)
    5348:	fee79ce3          	bne	a5,a4,5340 <e113toe.isra.0+0xdc>
    534c:	01240713          	addi	a4,s0,18
    5350:	00040793          	mv	a5,s0
    5354:	00278793          	addi	a5,a5,2
    5358:	fe079f23          	sh	zero,-2(a5)
    535c:	fef71ce3          	bne	a4,a5,5354 <e113toe.isra.0+0xf0>
    5360:	01245783          	lhu	a5,18(s0)
    5364:	000086b7          	lui	a3,0x8
    5368:	fff68693          	addi	a3,a3,-1 # 7fff <__mdiff+0xfb>
    536c:	00d7e7b3          	or	a5,a5,a3
    5370:	01079793          	slli	a5,a5,0x10
    5374:	0107d793          	srli	a5,a5,0x10
    5378:	00f41923          	sh	a5,18(s0)
    537c:	00e51683          	lh	a3,14(a0)
    5380:	f606d0e3          	bgez	a3,52e0 <e113toe.isra.0+0x7c>
    5384:	00040693          	mv	a3,s0
    5388:	0006d603          	lhu	a2,0(a3)
    538c:	00268693          	addi	a3,a3,2
    5390:	f40618e3          	bnez	a2,52e0 <e113toe.isra.0+0x7c>
    5394:	fed71ae3          	bne	a4,a3,5388 <e113toe.isra.0+0x124>
    5398:	ffff8737          	lui	a4,0xffff8
    539c:	00e7c7b3          	xor	a5,a5,a4
    53a0:	00f41923          	sh	a5,18(s0)
    53a4:	f3dff06f          	j	52e0 <e113toe.isra.0+0x7c>
    53a8:	01040713          	addi	a4,s0,16
    53ac:	00040793          	mv	a5,s0
    53b0:	00278793          	addi	a5,a5,2
    53b4:	fe079f23          	sh	zero,-2(a5)
    53b8:	fee79ce3          	bne	a5,a4,53b0 <e113toe.isra.0+0x14c>
    53bc:	ffffc7b7          	lui	a5,0xffffc
    53c0:	00f41823          	sh	a5,16(s0)
    53c4:	ffff87b7          	lui	a5,0xffff8
    53c8:	fff7c793          	not	a5,a5
    53cc:	00f41923          	sh	a5,18(s0)
    53d0:	f11ff06f          	j	52e0 <e113toe.isra.0+0x7c>

000053d4 <_ldtoa_r>:
    53d4:	00c5a883          	lw	a7,12(a1)
    53d8:	e1010113          	addi	sp,sp,-496
    53dc:	0005ae83          	lw	t4,0(a1)
    53e0:	0045ae03          	lw	t3,4(a1)
    53e4:	0085a303          	lw	t1,8(a1)
    53e8:	03112e23          	sw	a7,60(sp)
    53ec:	04052583          	lw	a1,64(a0)
    53f0:	fff00893          	li	a7,-1
    53f4:	17112023          	sw	a7,352(sp)
    53f8:	09000893          	li	a7,144
    53fc:	1e812423          	sw	s0,488(sp)
    5400:	1d412c23          	sw	s4,472(sp)
    5404:	1e112623          	sw	ra,492(sp)
    5408:	1e912223          	sw	s1,484(sp)
    540c:	1f212023          	sw	s2,480(sp)
    5410:	1d312e23          	sw	s3,476(sp)
    5414:	1d512a23          	sw	s5,468(sp)
    5418:	1d612823          	sw	s6,464(sp)
    541c:	1d712623          	sw	s7,460(sp)
    5420:	1d812423          	sw	s8,456(sp)
    5424:	1d912223          	sw	s9,452(sp)
    5428:	1da12023          	sw	s10,448(sp)
    542c:	1bb12e23          	sw	s11,444(sp)
    5430:	03d12823          	sw	t4,48(sp)
    5434:	03c12a23          	sw	t3,52(sp)
    5438:	02612c23          	sw	t1,56(sp)
    543c:	17112223          	sw	a7,356(sp)
    5440:	00c12623          	sw	a2,12(sp)
    5444:	00d12a23          	sw	a3,20(sp)
    5448:	00e12c23          	sw	a4,24(sp)
    544c:	03012023          	sw	a6,32(sp)
    5450:	00050a13          	mv	s4,a0
    5454:	00078413          	mv	s0,a5
    5458:	02058063          	beqz	a1,5478 <_ldtoa_r+0xa4>
    545c:	04452703          	lw	a4,68(a0)
    5460:	00100793          	li	a5,1
    5464:	00e797b3          	sll	a5,a5,a4
    5468:	00e5a223          	sw	a4,4(a1)
    546c:	00f5a423          	sw	a5,8(a1)
    5470:	074020ef          	jal	ra,74e4 <_Bfree>
    5474:	040a2023          	sw	zero,64(s4)
    5478:	06010913          	addi	s2,sp,96
    547c:	00090593          	mv	a1,s2
    5480:	03010513          	addi	a0,sp,48
    5484:	de1ff0ef          	jal	ra,5264 <e113toe.isra.0>
    5488:	07215603          	lhu	a2,114(sp)
    548c:	00008737          	lui	a4,0x8
    5490:	fff70713          	addi	a4,a4,-1 # 7fff <__mdiff+0xfb>
    5494:	00e675b3          	and	a1,a2,a4
    5498:	00e59e63          	bne	a1,a4,54b4 <_ldtoa_r+0xe0>
    549c:	00090713          	mv	a4,s2
    54a0:	07210793          	addi	a5,sp,114
    54a4:	00075683          	lhu	a3,0(a4)
    54a8:	00270713          	addi	a4,a4,2
    54ac:	3c0698e3          	bnez	a3,607c <_ldtoa_r+0xca8>
    54b0:	fef71ae3          	bne	a4,a5,54a4 <_ldtoa_r+0xd0>
    54b4:	00f65613          	srli	a2,a2,0xf
    54b8:	00c12703          	lw	a4,12(sp)
    54bc:	00c42023          	sw	a2,0(s0)
    54c0:	00300793          	li	a5,3
    54c4:	0af704e3          	beq	a4,a5,5d6c <_ldtoa_r+0x998>
    54c8:	01400793          	li	a5,20
    54cc:	00f12823          	sw	a5,16(sp)
    54d0:	3a071ae3          	bnez	a4,6084 <_ldtoa_r+0xcb0>
    54d4:	16412703          	lw	a4,356(sp)
    54d8:	000087b7          	lui	a5,0x8
    54dc:	fff78793          	addi	a5,a5,-1 # 7fff <__mdiff+0xfb>
    54e0:	00e12e23          	sw	a4,28(sp)
    54e4:	00f59e63          	bne	a1,a5,5500 <_ldtoa_r+0x12c>
    54e8:	00090793          	mv	a5,s2
    54ec:	07210693          	addi	a3,sp,114
    54f0:	0007d703          	lhu	a4,0(a5)
    54f4:	00278793          	addi	a5,a5,2
    54f8:	0e0712e3          	bnez	a4,5ddc <_ldtoa_r+0xa08>
    54fc:	fed79ae3          	bne	a5,a3,54f0 <_ldtoa_r+0x11c>
    5500:	09000793          	li	a5,144
    5504:	16f12223          	sw	a5,356(sp)
    5508:	07c10713          	addi	a4,sp,124
    550c:	00090793          	mv	a5,s2
    5510:	07410613          	addi	a2,sp,116
    5514:	0007d683          	lhu	a3,0(a5)
    5518:	00278793          	addi	a5,a5,2
    551c:	00270713          	addi	a4,a4,2
    5520:	fed71f23          	sh	a3,-2(a4)
    5524:	fec798e3          	bne	a5,a2,5514 <_ldtoa_r+0x140>
    5528:	08e15603          	lhu	a2,142(sp)
    552c:	00000b93          	li	s7,0
    5530:	01061793          	slli	a5,a2,0x10
    5534:	4107d793          	srai	a5,a5,0x10
    5538:	5807c063          	bltz	a5,5ab8 <_ldtoa_r+0x6e4>
    553c:	00000693          	li	a3,0
    5540:	09810793          	addi	a5,sp,152
    5544:	0001b717          	auipc	a4,0x1b
    5548:	f1c70713          	addi	a4,a4,-228 # 20460 <eone>
    554c:	0ac10d93          	addi	s11,sp,172
    5550:	0080006f          	j	5558 <_ldtoa_r+0x184>
    5554:	00075683          	lhu	a3,0(a4)
    5558:	00278793          	addi	a5,a5,2
    555c:	fed79f23          	sh	a3,-2(a5)
    5560:	00270713          	addi	a4,a4,2
    5564:	ffb798e3          	bne	a5,s11,5554 <_ldtoa_r+0x180>
    5568:	16060663          	beqz	a2,56d4 <_ldtoa_r+0x300>
    556c:	000087b7          	lui	a5,0x8
    5570:	fff78793          	addi	a5,a5,-1 # 7fff <__mdiff+0xfb>
    5574:	4cf604e3          	beq	a2,a5,623c <_ldtoa_r+0xe68>
    5578:	08c11783          	lh	a5,140(sp)
    557c:	5407d0e3          	bgez	a5,62bc <_ldtoa_r+0xee8>
    5580:	07c10593          	addi	a1,sp,124
    5584:	0001b517          	auipc	a0,0x1b
    5588:	edc50513          	addi	a0,a0,-292 # 20460 <eone>
    558c:	bddfe0ef          	jal	ra,4168 <ecmp>
    5590:	14050e63          	beqz	a0,56ec <_ldtoa_r+0x318>
    5594:	060544e3          	bltz	a0,5dfc <_ldtoa_r+0xa28>
    5598:	08e15783          	lhu	a5,142(sp)
    559c:	5c0790e3          	bnez	a5,635c <_ldtoa_r+0xf88>
    55a0:	08c11783          	lh	a5,140(sp)
    55a4:	00000493          	li	s1,0
    55a8:	16010993          	addi	s3,sp,352
    55ac:	0207c663          	bltz	a5,55d8 <_ldtoa_r+0x204>
    55b0:	0001b417          	auipc	s0,0x1b
    55b4:	fb440413          	addi	s0,s0,-76 # 20564 <etens+0xf0>
    55b8:	07c10613          	addi	a2,sp,124
    55bc:	00098693          	mv	a3,s3
    55c0:	00060593          	mv	a1,a2
    55c4:	00040513          	mv	a0,s0
    55c8:	a48ff0ef          	jal	ra,4810 <emul>
    55cc:	08c11783          	lh	a5,140(sp)
    55d0:	fff48493          	addi	s1,s1,-1
    55d4:	fe07d2e3          	bgez	a5,55b8 <_ldtoa_r+0x1e4>
    55d8:	0d010413          	addi	s0,sp,208
    55dc:	0e810b13          	addi	s6,sp,232
    55e0:	00040713          	mv	a4,s0
    55e4:	07c10793          	addi	a5,sp,124
    55e8:	09010613          	addi	a2,sp,144
    55ec:	0007d683          	lhu	a3,0(a5)
    55f0:	00278793          	addi	a5,a5,2
    55f4:	00270713          	addi	a4,a4,2
    55f8:	fed71f23          	sh	a3,-2(a4)
    55fc:	fec798e3          	bne	a5,a2,55ec <_ldtoa_r+0x218>
    5600:	00000693          	li	a3,0
    5604:	09810793          	addi	a5,sp,152
    5608:	0001b717          	auipc	a4,0x1b
    560c:	e5870713          	addi	a4,a4,-424 # 20460 <eone>
    5610:	0080006f          	j	5618 <_ldtoa_r+0x244>
    5614:	00075683          	lhu	a3,0(a4)
    5618:	00278793          	addi	a5,a5,2
    561c:	fed79f23          	sh	a3,-2(a5)
    5620:	00270713          	addi	a4,a4,2
    5624:	ffb798e3          	bne	a5,s11,5614 <_ldtoa_r+0x240>
    5628:	fffffab7          	lui	s5,0xfffff
    562c:	0001bc17          	auipc	s8,0x1b
    5630:	e48c0c13          	addi	s8,s8,-440 # 20474 <etens>
    5634:	0001bc97          	auipc	s9,0x1b
    5638:	d28c8c93          	addi	s9,s9,-728 # 2035c <emtens>
    563c:	0001bd97          	auipc	s11,0x1b
    5640:	e24d8d93          	addi	s11,s11,-476 # 20460 <eone>
    5644:	0001bd17          	auipc	s10,0x1b
    5648:	f20d0d13          	addi	s10,s10,-224 # 20564 <etens+0xf0>
    564c:	00c0006f          	j	5658 <_ldtoa_r+0x284>
    5650:	014c8c93          	addi	s9,s9,20
    5654:	014c0c13          	addi	s8,s8,20
    5658:	00040593          	mv	a1,s0
    565c:	000d8513          	mv	a0,s11
    5660:	b09fe0ef          	jal	ra,4168 <ecmp>
    5664:	04a05863          	blez	a0,56b4 <_ldtoa_r+0x2e0>
    5668:	00040593          	mv	a1,s0
    566c:	000c8513          	mv	a0,s9
    5670:	af9fe0ef          	jal	ra,4168 <ecmp>
    5674:	02054863          	bltz	a0,56a4 <_ldtoa_r+0x2d0>
    5678:	00098693          	mv	a3,s3
    567c:	00040613          	mv	a2,s0
    5680:	00040593          	mv	a1,s0
    5684:	000c0513          	mv	a0,s8
    5688:	988ff0ef          	jal	ra,4810 <emul>
    568c:	09810613          	addi	a2,sp,152
    5690:	00098693          	mv	a3,s3
    5694:	00060593          	mv	a1,a2
    5698:	000c0513          	mv	a0,s8
    569c:	974ff0ef          	jal	ra,4810 <emul>
    56a0:	015484b3          	add	s1,s1,s5
    56a4:	01fad793          	srli	a5,s5,0x1f
    56a8:	015787b3          	add	a5,a5,s5
    56ac:	4017da93          	srai	s5,a5,0x1
    56b0:	fbac10e3          	bne	s8,s10,5650 <_ldtoa_r+0x27c>
    56b4:	09810613          	addi	a2,sp,152
    56b8:	00098693          	mv	a3,s3
    56bc:	0001b597          	auipc	a1,0x1b
    56c0:	da458593          	addi	a1,a1,-604 # 20460 <eone>
    56c4:	00060513          	mv	a0,a2
    56c8:	dfcff0ef          	jal	ra,4cc4 <ediv>
    56cc:	12410a93          	addi	s5,sp,292
    56d0:	0300006f          	j	5700 <_ldtoa_r+0x32c>
    56d4:	07c10793          	addi	a5,sp,124
    56d8:	08e10693          	addi	a3,sp,142
    56dc:	0007d703          	lhu	a4,0(a5)
    56e0:	ea0710e3          	bnez	a4,5580 <_ldtoa_r+0x1ac>
    56e4:	00278793          	addi	a5,a5,2
    56e8:	fef69ae3          	bne	a3,a5,56dc <_ldtoa_r+0x308>
    56ec:	00000493          	li	s1,0
    56f0:	12410a93          	addi	s5,sp,292
    56f4:	16010993          	addi	s3,sp,352
    56f8:	0d010413          	addi	s0,sp,208
    56fc:	0e810b13          	addi	s6,sp,232
    5700:	00040593          	mv	a1,s0
    5704:	09810513          	addi	a0,sp,152
    5708:	9adfe0ef          	jal	ra,40b4 <emovi>
    570c:	09810713          	addi	a4,sp,152
    5710:	00040793          	mv	a5,s0
    5714:	0007d683          	lhu	a3,0(a5)
    5718:	00278793          	addi	a5,a5,2
    571c:	00270713          	addi	a4,a4,2
    5720:	fed71f23          	sh	a3,-2(a4)
    5724:	ff6798e3          	bne	a5,s6,5714 <_ldtoa_r+0x340>
    5728:	00040593          	mv	a1,s0
    572c:	07c10513          	addi	a0,sp,124
    5730:	0a011823          	sh	zero,176(sp)
    5734:	981fe0ef          	jal	ra,40b4 <emovi>
    5738:	07c10793          	addi	a5,sp,124
    573c:	00045703          	lhu	a4,0(s0)
    5740:	00240413          	addi	s0,s0,2
    5744:	00278793          	addi	a5,a5,2
    5748:	fee79f23          	sh	a4,-2(a5)
    574c:	ff6418e3          	bne	s0,s6,573c <_ldtoa_r+0x368>
    5750:	09810513          	addi	a0,sp,152
    5754:	00098613          	mv	a2,s3
    5758:	07c10593          	addi	a1,sp,124
    575c:	08011a23          	sh	zero,148(sp)
    5760:	f4dfe0ef          	jal	ra,46ac <eiremain>
    5764:	1ac15503          	lhu	a0,428(sp)
    5768:	16051e63          	bnez	a0,58e4 <_ldtoa_r+0x510>
    576c:	0001b417          	auipc	s0,0x1b
    5770:	e0c40413          	addi	s0,s0,-500 # 20578 <ezero>
    5774:	09410c93          	addi	s9,sp,148
    5778:	07e10d13          	addi	s10,sp,126
    577c:	0b610c13          	addi	s8,sp,182
    5780:	00040593          	mv	a1,s0
    5784:	07c10513          	addi	a0,sp,124
    5788:	9e1fe0ef          	jal	ra,4168 <ecmp>
    578c:	14050c63          	beqz	a0,58e4 <_ldtoa_r+0x510>
    5790:	00000713          	li	a4,0
    5794:	000c8693          	mv	a3,s9
    5798:	0006d783          	lhu	a5,0(a3)
    579c:	01079613          	slli	a2,a5,0x10
    57a0:	41065613          	srai	a2,a2,0x10
    57a4:	00065463          	bgez	a2,57ac <_ldtoa_r+0x3d8>
    57a8:	00176713          	ori	a4,a4,1
    57ac:	00179793          	slli	a5,a5,0x1
    57b0:	01079793          	slli	a5,a5,0x10
    57b4:	00277613          	andi	a2,a4,2
    57b8:	0107d793          	srli	a5,a5,0x10
    57bc:	00060463          	beqz	a2,57c4 <_ldtoa_r+0x3f0>
    57c0:	0017e793          	ori	a5,a5,1
    57c4:	00171713          	slli	a4,a4,0x1
    57c8:	00f69023          	sh	a5,0(a3)
    57cc:	01071713          	slli	a4,a4,0x10
    57d0:	ffe68693          	addi	a3,a3,-2
    57d4:	01075713          	srli	a4,a4,0x10
    57d8:	fda690e3          	bne	a3,s10,5798 <_ldtoa_r+0x3c4>
    57dc:	0b410713          	addi	a4,sp,180
    57e0:	07c10793          	addi	a5,sp,124
    57e4:	0007d683          	lhu	a3,0(a5)
    57e8:	00278793          	addi	a5,a5,2
    57ec:	00270713          	addi	a4,a4,2
    57f0:	fed71f23          	sh	a3,-2(a4)
    57f4:	ff9798e3          	bne	a5,s9,57e4 <_ldtoa_r+0x410>
    57f8:	0c011623          	sh	zero,204(sp)
    57fc:	00000713          	li	a4,0
    5800:	0cc10693          	addi	a3,sp,204
    5804:	0006d783          	lhu	a5,0(a3)
    5808:	01079613          	slli	a2,a5,0x10
    580c:	41065613          	srai	a2,a2,0x10
    5810:	00065463          	bgez	a2,5818 <_ldtoa_r+0x444>
    5814:	00176713          	ori	a4,a4,1
    5818:	00179793          	slli	a5,a5,0x1
    581c:	01079793          	slli	a5,a5,0x10
    5820:	00277613          	andi	a2,a4,2
    5824:	0107d793          	srli	a5,a5,0x10
    5828:	00060463          	beqz	a2,5830 <_ldtoa_r+0x45c>
    582c:	0017e793          	ori	a5,a5,1
    5830:	00171713          	slli	a4,a4,0x1
    5834:	00f69023          	sh	a5,0(a3)
    5838:	01071713          	slli	a4,a4,0x10
    583c:	ffe68693          	addi	a3,a3,-2
    5840:	01075713          	srli	a4,a4,0x10
    5844:	fd8690e3          	bne	a3,s8,5804 <_ldtoa_r+0x430>
    5848:	00000713          	li	a4,0
    584c:	0cc10693          	addi	a3,sp,204
    5850:	0006d783          	lhu	a5,0(a3)
    5854:	01079613          	slli	a2,a5,0x10
    5858:	41065613          	srai	a2,a2,0x10
    585c:	00065463          	bgez	a2,5864 <_ldtoa_r+0x490>
    5860:	00176713          	ori	a4,a4,1
    5864:	00179793          	slli	a5,a5,0x1
    5868:	01079793          	slli	a5,a5,0x10
    586c:	00277613          	andi	a2,a4,2
    5870:	0107d793          	srli	a5,a5,0x10
    5874:	00060463          	beqz	a2,587c <_ldtoa_r+0x4a8>
    5878:	0017e793          	ori	a5,a5,1
    587c:	00171713          	slli	a4,a4,0x1
    5880:	00f69023          	sh	a5,0(a3)
    5884:	01071713          	slli	a4,a4,0x10
    5888:	ffe68693          	addi	a3,a3,-2
    588c:	01075713          	srli	a4,a4,0x10
    5890:	fd8690e3          	bne	a3,s8,5850 <_ldtoa_r+0x47c>
    5894:	00000613          	li	a2,0
    5898:	000c8693          	mv	a3,s9
    589c:	0cc10713          	addi	a4,sp,204
    58a0:	0006d583          	lhu	a1,0(a3)
    58a4:	00075783          	lhu	a5,0(a4)
    58a8:	ffe68693          	addi	a3,a3,-2
    58ac:	ffe70713          	addi	a4,a4,-2
    58b0:	00b787b3          	add	a5,a5,a1
    58b4:	00c787b3          	add	a5,a5,a2
    58b8:	0107d613          	srli	a2,a5,0x10
    58bc:	00f69123          	sh	a5,2(a3)
    58c0:	00167613          	andi	a2,a2,1
    58c4:	fd871ee3          	bne	a4,s8,58a0 <_ldtoa_r+0x4cc>
    58c8:	09810513          	addi	a0,sp,152
    58cc:	00098613          	mv	a2,s3
    58d0:	07c10593          	addi	a1,sp,124
    58d4:	dd9fe0ef          	jal	ra,46ac <eiremain>
    58d8:	1ac15503          	lhu	a0,428(sp)
    58dc:	fff48493          	addi	s1,s1,-1
    58e0:	ea0500e3          	beqz	a0,5780 <_ldtoa_r+0x3ac>
    58e4:	017037b3          	snez	a5,s7
    58e8:	40f007b3          	neg	a5,a5
    58ec:	00d7f793          	andi	a5,a5,13
    58f0:	00c12683          	lw	a3,12(sp)
    58f4:	02078793          	addi	a5,a5,32
    58f8:	12f10223          	sb	a5,292(sp)
    58fc:	00300713          	li	a4,3
    5900:	01012783          	lw	a5,16(sp)
    5904:	00e69463          	bne	a3,a4,590c <_ldtoa_r+0x538>
    5908:	009787b3          	add	a5,a5,s1
    590c:	02a00713          	li	a4,42
    5910:	00078413          	mv	s0,a5
    5914:	00f75463          	bge	a4,a5,591c <_ldtoa_r+0x548>
    5918:	02a00413          	li	s0,42
    591c:	00a00713          	li	a4,10
    5920:	48e50863          	beq	a0,a4,5db0 <_ldtoa_r+0x9dc>
    5924:	03050513          	addi	a0,a0,48
    5928:	02e00713          	li	a4,46
    592c:	12a102a3          	sb	a0,293(sp)
    5930:	12e10323          	sb	a4,294(sp)
    5934:	1807ce63          	bltz	a5,5ad0 <_ldtoa_r+0x6fc>
    5938:	12710b93          	addi	s7,sp,295
    593c:	00000b13          	li	s6,0
    5940:	0b410c13          	addi	s8,sp,180
    5944:	09410d13          	addi	s10,sp,148
    5948:	07e10d93          	addi	s11,sp,126
    594c:	0b610c93          	addi	s9,sp,182
    5950:	00000713          	li	a4,0
    5954:	000d0693          	mv	a3,s10
    5958:	0006d783          	lhu	a5,0(a3)
    595c:	01079613          	slli	a2,a5,0x10
    5960:	41065613          	srai	a2,a2,0x10
    5964:	00065463          	bgez	a2,596c <_ldtoa_r+0x598>
    5968:	00176713          	ori	a4,a4,1
    596c:	00179793          	slli	a5,a5,0x1
    5970:	01079793          	slli	a5,a5,0x10
    5974:	00277613          	andi	a2,a4,2
    5978:	0107d793          	srli	a5,a5,0x10
    597c:	00060463          	beqz	a2,5984 <_ldtoa_r+0x5b0>
    5980:	0017e793          	ori	a5,a5,1
    5984:	00171713          	slli	a4,a4,0x1
    5988:	00f69023          	sh	a5,0(a3)
    598c:	01071713          	slli	a4,a4,0x10
    5990:	ffe68693          	addi	a3,a3,-2
    5994:	01075713          	srli	a4,a4,0x10
    5998:	fdb690e3          	bne	a3,s11,5958 <_ldtoa_r+0x584>
    599c:	000c0713          	mv	a4,s8
    59a0:	07c10793          	addi	a5,sp,124
    59a4:	0007d683          	lhu	a3,0(a5)
    59a8:	00278793          	addi	a5,a5,2
    59ac:	00270713          	addi	a4,a4,2
    59b0:	fed71f23          	sh	a3,-2(a4)
    59b4:	ffa798e3          	bne	a5,s10,59a4 <_ldtoa_r+0x5d0>
    59b8:	0c011623          	sh	zero,204(sp)
    59bc:	00000713          	li	a4,0
    59c0:	0cc10693          	addi	a3,sp,204
    59c4:	0006d783          	lhu	a5,0(a3)
    59c8:	01079613          	slli	a2,a5,0x10
    59cc:	41065613          	srai	a2,a2,0x10
    59d0:	00065463          	bgez	a2,59d8 <_ldtoa_r+0x604>
    59d4:	00176713          	ori	a4,a4,1
    59d8:	00179793          	slli	a5,a5,0x1
    59dc:	01079793          	slli	a5,a5,0x10
    59e0:	00277613          	andi	a2,a4,2
    59e4:	0107d793          	srli	a5,a5,0x10
    59e8:	00060463          	beqz	a2,59f0 <_ldtoa_r+0x61c>
    59ec:	0017e793          	ori	a5,a5,1
    59f0:	00171713          	slli	a4,a4,0x1
    59f4:	00f69023          	sh	a5,0(a3)
    59f8:	01071713          	slli	a4,a4,0x10
    59fc:	ffe68693          	addi	a3,a3,-2
    5a00:	01075713          	srli	a4,a4,0x10
    5a04:	fd9690e3          	bne	a3,s9,59c4 <_ldtoa_r+0x5f0>
    5a08:	00000713          	li	a4,0
    5a0c:	0cc10693          	addi	a3,sp,204
    5a10:	0006d783          	lhu	a5,0(a3)
    5a14:	01079613          	slli	a2,a5,0x10
    5a18:	41065613          	srai	a2,a2,0x10
    5a1c:	00065463          	bgez	a2,5a24 <_ldtoa_r+0x650>
    5a20:	00176713          	ori	a4,a4,1
    5a24:	00179793          	slli	a5,a5,0x1
    5a28:	01079793          	slli	a5,a5,0x10
    5a2c:	00277613          	andi	a2,a4,2
    5a30:	0107d793          	srli	a5,a5,0x10
    5a34:	00060463          	beqz	a2,5a3c <_ldtoa_r+0x668>
    5a38:	0017e793          	ori	a5,a5,1
    5a3c:	00171713          	slli	a4,a4,0x1
    5a40:	00f69023          	sh	a5,0(a3)
    5a44:	01071713          	slli	a4,a4,0x10
    5a48:	ffe68693          	addi	a3,a3,-2
    5a4c:	01075713          	srli	a4,a4,0x10
    5a50:	fd9690e3          	bne	a3,s9,5a10 <_ldtoa_r+0x63c>
    5a54:	00000613          	li	a2,0
    5a58:	000d0693          	mv	a3,s10
    5a5c:	0cc10713          	addi	a4,sp,204
    5a60:	0006d583          	lhu	a1,0(a3)
    5a64:	00075783          	lhu	a5,0(a4)
    5a68:	ffe68693          	addi	a3,a3,-2
    5a6c:	ffe70713          	addi	a4,a4,-2
    5a70:	00b787b3          	add	a5,a5,a1
    5a74:	00c787b3          	add	a5,a5,a2
    5a78:	0107d613          	srli	a2,a5,0x10
    5a7c:	00f69123          	sh	a5,2(a3)
    5a80:	00167613          	andi	a2,a2,1
    5a84:	fd971ee3          	bne	a4,s9,5a60 <_ldtoa_r+0x68c>
    5a88:	00098613          	mv	a2,s3
    5a8c:	07c10593          	addi	a1,sp,124
    5a90:	09810513          	addi	a0,sp,152
    5a94:	c19fe0ef          	jal	ra,46ac <eiremain>
    5a98:	1ac15603          	lhu	a2,428(sp)
    5a9c:	001b8793          	addi	a5,s7,1
    5aa0:	001b0b13          	addi	s6,s6,1
    5aa4:	03060713          	addi	a4,a2,48 # 8030 <__mdiff+0x12c>
    5aa8:	fee78fa3          	sb	a4,-1(a5)
    5aac:	03644863          	blt	s0,s6,5adc <_ldtoa_r+0x708>
    5ab0:	00078b93          	mv	s7,a5
    5ab4:	e9dff06f          	j	5950 <_ldtoa_r+0x57c>
    5ab8:	01161613          	slli	a2,a2,0x11
    5abc:	01165613          	srli	a2,a2,0x11
    5ac0:	000107b7          	lui	a5,0x10
    5ac4:	08c11723          	sh	a2,142(sp)
    5ac8:	fff78b93          	addi	s7,a5,-1 # ffff <__udivdi3+0x3b3>
    5acc:	a71ff06f          	j	553c <_ldtoa_r+0x168>
    5ad0:	1ac15603          	lhu	a2,428(sp)
    5ad4:	12610b93          	addi	s7,sp,294
    5ad8:	12710793          	addi	a5,sp,295
    5adc:	00400713          	li	a4,4
    5ae0:	04c75863          	bge	a4,a2,5b30 <_ldtoa_r+0x75c>
    5ae4:	00500713          	li	a4,5
    5ae8:	7ee60a63          	beq	a2,a4,62dc <_ldtoa_r+0xf08>
    5aec:	ffe7c703          	lbu	a4,-2(a5)
    5af0:	ffe78613          	addi	a2,a5,-2
    5af4:	07f77713          	andi	a4,a4,127
    5af8:	02044663          	bltz	s0,5b24 <_ldtoa_r+0x750>
    5afc:	02e00793          	li	a5,46
    5b00:	03800593          	li	a1,56
    5b04:	03000513          	li	a0,48
    5b08:	76f70063          	beq	a4,a5,6268 <_ldtoa_r+0xe94>
    5b0c:	76e5dc63          	bge	a1,a4,6284 <_ldtoa_r+0xeb0>
    5b10:	fff64703          	lbu	a4,-1(a2)
    5b14:	00a60023          	sb	a0,0(a2)
    5b18:	fff60613          	addi	a2,a2,-1
    5b1c:	07f77713          	andi	a4,a4,127
    5b20:	fe9ff06f          	j	5b08 <_ldtoa_r+0x734>
    5b24:	03100713          	li	a4,49
    5b28:	fee78f23          	sb	a4,-2(a5)
    5b2c:	00148493          	addi	s1,s1,1
    5b30:	00048613          	mv	a2,s1
    5b34:	0001a597          	auipc	a1,0x1a
    5b38:	76858593          	addi	a1,a1,1896 # 2029c <zeroes.0+0x2c>
    5b3c:	000b8513          	mv	a0,s7
    5b40:	479020ef          	jal	ra,87b8 <sprintf>
    5b44:	07215783          	lhu	a5,114(sp)
    5b48:	01c12703          	lw	a4,28(sp)
    5b4c:	16912823          	sw	s1,368(sp)
    5b50:	fff7c793          	not	a5,a5
    5b54:	16e12223          	sw	a4,356(sp)
    5b58:	01179713          	slli	a4,a5,0x11
    5b5c:	18070863          	beqz	a4,5cec <_ldtoa_r+0x918>
    5b60:	01812683          	lw	a3,24(sp)
    5b64:	12414703          	lbu	a4,292(sp)
    5b68:	00148793          	addi	a5,s1,1
    5b6c:	00f6a023          	sw	a5,0(a3)
    5b70:	000a8793          	mv	a5,s5
    5b74:	02070a63          	beqz	a4,5ba8 <_ldtoa_r+0x7d4>
    5b78:	02e00693          	li	a3,46
    5b7c:	20d70463          	beq	a4,a3,5d84 <_ldtoa_r+0x9b0>
    5b80:	0017c703          	lbu	a4,1(a5)
    5b84:	00178793          	addi	a5,a5,1
    5b88:	fe071ae3          	bnez	a4,5b7c <_ldtoa_r+0x7a8>
    5b8c:	04500693          	li	a3,69
    5b90:	00fae663          	bltu	s5,a5,5b9c <_ldtoa_r+0x7c8>
    5b94:	0140006f          	j	5ba8 <_ldtoa_r+0x7d4>
    5b98:	01578863          	beq	a5,s5,5ba8 <_ldtoa_r+0x7d4>
    5b9c:	fff7c703          	lbu	a4,-1(a5)
    5ba0:	fff78793          	addi	a5,a5,-1
    5ba4:	fed71ae3          	bne	a4,a3,5b98 <_ldtoa_r+0x7c4>
    5ba8:	00078023          	sb	zero,0(a5)
    5bac:	000a8793          	mv	a5,s5
    5bb0:	02000693          	li	a3,32
    5bb4:	02d00613          	li	a2,45
    5bb8:	0007c703          	lbu	a4,0(a5)
    5bbc:	00d70463          	beq	a4,a3,5bc4 <_ldtoa_r+0x7f0>
    5bc0:	00c71663          	bne	a4,a2,5bcc <_ldtoa_r+0x7f8>
    5bc4:	00178793          	addi	a5,a5,1
    5bc8:	ff1ff06f          	j	5bb8 <_ldtoa_r+0x7e4>
    5bcc:	000a8413          	mv	s0,s5
    5bd0:	00c0006f          	j	5bdc <_ldtoa_r+0x808>
    5bd4:	0007c703          	lbu	a4,0(a5)
    5bd8:	00068413          	mv	s0,a3
    5bdc:	00e40023          	sb	a4,0(s0)
    5be0:	00140693          	addi	a3,s0,1
    5be4:	00178793          	addi	a5,a5,1
    5be8:	fe0716e3          	bnez	a4,5bd4 <_ldtoa_r+0x800>
    5bec:	00c12703          	lw	a4,12(sp)
    5bf0:	00200793          	li	a5,2
    5bf4:	fff44683          	lbu	a3,-1(s0)
    5bf8:	12f70063          	beq	a4,a5,5d18 <_ldtoa_r+0x944>
    5bfc:	01012783          	lw	a5,16(sp)
    5c00:	00078713          	mv	a4,a5
    5c04:	0097d463          	bge	a5,s1,5c0c <_ldtoa_r+0x838>
    5c08:	00048713          	mv	a4,s1
    5c0c:	03000793          	li	a5,48
    5c10:	02f69663          	bne	a3,a5,5c3c <_ldtoa_r+0x868>
    5c14:	415407b3          	sub	a5,s0,s5
    5c18:	02f75263          	bge	a4,a5,5c3c <_ldtoa_r+0x868>
    5c1c:	03000693          	li	a3,48
    5c20:	00c0006f          	j	5c2c <_ldtoa_r+0x858>
    5c24:	415407b3          	sub	a5,s0,s5
    5c28:	00f75a63          	bge	a4,a5,5c3c <_ldtoa_r+0x868>
    5c2c:	ffe44783          	lbu	a5,-2(s0)
    5c30:	fe040fa3          	sb	zero,-1(s0)
    5c34:	fff40413          	addi	s0,s0,-1
    5c38:	fed786e3          	beq	a5,a3,5c24 <_ldtoa_r+0x850>
    5c3c:	00c12703          	lw	a4,12(sp)
    5c40:	00300793          	li	a5,3
    5c44:	0ef70663          	beq	a4,a5,5d30 <_ldtoa_r+0x95c>
    5c48:	01412783          	lw	a5,20(sp)
    5c4c:	040a2223          	sw	zero,68(s4)
    5c50:	00978613          	addi	a2,a5,9
    5c54:	01700793          	li	a5,23
    5c58:	10c7f663          	bgeu	a5,a2,5d64 <_ldtoa_r+0x990>
    5c5c:	00100713          	li	a4,1
    5c60:	00400793          	li	a5,4
    5c64:	00179793          	slli	a5,a5,0x1
    5c68:	01478693          	addi	a3,a5,20
    5c6c:	00070593          	mv	a1,a4
    5c70:	00170713          	addi	a4,a4,1
    5c74:	fed678e3          	bgeu	a2,a3,5c64 <_ldtoa_r+0x890>
    5c78:	04ba2223          	sw	a1,68(s4)
    5c7c:	000a0513          	mv	a0,s4
    5c80:	7bc010ef          	jal	ra,743c <_Balloc>
    5c84:	00050493          	mv	s1,a0
    5c88:	060504e3          	beqz	a0,64f0 <_ldtoa_r+0x111c>
    5c8c:	04aa2023          	sw	a0,64(s4)
    5c90:	000a8593          	mv	a1,s5
    5c94:	679020ef          	jal	ra,8b0c <strcpy>
    5c98:	02012703          	lw	a4,32(sp)
    5c9c:	00070863          	beqz	a4,5cac <_ldtoa_r+0x8d8>
    5ca0:	415407b3          	sub	a5,s0,s5
    5ca4:	00f487b3          	add	a5,s1,a5
    5ca8:	00f72023          	sw	a5,0(a4)
    5cac:	1ec12083          	lw	ra,492(sp)
    5cb0:	1e812403          	lw	s0,488(sp)
    5cb4:	1e012903          	lw	s2,480(sp)
    5cb8:	1dc12983          	lw	s3,476(sp)
    5cbc:	1d812a03          	lw	s4,472(sp)
    5cc0:	1d412a83          	lw	s5,468(sp)
    5cc4:	1d012b03          	lw	s6,464(sp)
    5cc8:	1cc12b83          	lw	s7,460(sp)
    5ccc:	1c812c03          	lw	s8,456(sp)
    5cd0:	1c412c83          	lw	s9,452(sp)
    5cd4:	1c012d03          	lw	s10,448(sp)
    5cd8:	1bc12d83          	lw	s11,444(sp)
    5cdc:	00048513          	mv	a0,s1
    5ce0:	1e412483          	lw	s1,484(sp)
    5ce4:	1f010113          	addi	sp,sp,496
    5ce8:	00008067          	ret
    5cec:	00090793          	mv	a5,s2
    5cf0:	07210693          	addi	a3,sp,114
    5cf4:	0007d703          	lhu	a4,0(a5)
    5cf8:	00278793          	addi	a5,a5,2
    5cfc:	58071a63          	bnez	a4,6290 <_ldtoa_r+0xebc>
    5d00:	fed79ae3          	bne	a5,a3,5cf4 <_ldtoa_r+0x920>
    5d04:	01812703          	lw	a4,24(sp)
    5d08:	000027b7          	lui	a5,0x2
    5d0c:	70f78793          	addi	a5,a5,1807 # 270f <_vfprintf_r+0x2563>
    5d10:	00f72023          	sw	a5,0(a4)
    5d14:	e99ff06f          	j	5bac <_ldtoa_r+0x7d8>
    5d18:	03000793          	li	a5,48
    5d1c:	f2f696e3          	bne	a3,a5,5c48 <_ldtoa_r+0x874>
    5d20:	415407b3          	sub	a5,s0,s5
    5d24:	00100713          	li	a4,1
    5d28:	eef74ae3          	blt	a4,a5,5c1c <_ldtoa_r+0x848>
    5d2c:	f1dff06f          	j	5c48 <_ldtoa_r+0x874>
    5d30:	01012783          	lw	a5,16(sp)
    5d34:	009784b3          	add	s1,a5,s1
    5d38:	4c04cc63          	bltz	s1,6210 <_ldtoa_r+0xe3c>
    5d3c:	01812783          	lw	a5,24(sp)
    5d40:	01412703          	lw	a4,20(sp)
    5d44:	0007a783          	lw	a5,0(a5)
    5d48:	00f707b3          	add	a5,a4,a5
    5d4c:	00f12a23          	sw	a5,20(sp)
    5d50:	01412783          	lw	a5,20(sp)
    5d54:	040a2223          	sw	zero,68(s4)
    5d58:	00378613          	addi	a2,a5,3
    5d5c:	01700793          	li	a5,23
    5d60:	eec7eee3          	bltu	a5,a2,5c5c <_ldtoa_r+0x888>
    5d64:	00000593          	li	a1,0
    5d68:	f15ff06f          	j	5c7c <_ldtoa_r+0x8a8>
    5d6c:	01412b83          	lw	s7,20(sp)
    5d70:	01712823          	sw	s7,16(sp)
    5d74:	02a00793          	li	a5,42
    5d78:	f577de63          	bge	a5,s7,54d4 <_ldtoa_r+0x100>
    5d7c:	00f12823          	sw	a5,16(sp)
    5d80:	f54ff06f          	j	54d4 <_ldtoa_r+0x100>
    5d84:	0007c703          	lbu	a4,0(a5)
    5d88:	e00702e3          	beqz	a4,5b8c <_ldtoa_r+0x7b8>
    5d8c:	0017c703          	lbu	a4,1(a5)
    5d90:	00178793          	addi	a5,a5,1
    5d94:	fee78fa3          	sb	a4,-1(a5)
    5d98:	de070ae3          	beqz	a4,5b8c <_ldtoa_r+0x7b8>
    5d9c:	0017c703          	lbu	a4,1(a5)
    5da0:	00178793          	addi	a5,a5,1
    5da4:	fee78fa3          	sb	a4,-1(a5)
    5da8:	fe0712e3          	bnez	a4,5d8c <_ldtoa_r+0x9b8>
    5dac:	de1ff06f          	j	5b8c <_ldtoa_r+0x7b8>
    5db0:	03100713          	li	a4,49
    5db4:	12e102a3          	sb	a4,293(sp)
    5db8:	02e00713          	li	a4,46
    5dbc:	12e10323          	sb	a4,294(sp)
    5dc0:	00148493          	addi	s1,s1,1
    5dc4:	2af05663          	blez	a5,6070 <_ldtoa_r+0xc9c>
    5dc8:	03000793          	li	a5,48
    5dcc:	12f103a3          	sb	a5,295(sp)
    5dd0:	fff40413          	addi	s0,s0,-1
    5dd4:	12810b93          	addi	s7,sp,296
    5dd8:	b65ff06f          	j	593c <_ldtoa_r+0x568>
    5ddc:	12410a93          	addi	s5,sp,292
    5de0:	0001a597          	auipc	a1,0x1a
    5de4:	55058593          	addi	a1,a1,1360 # 20330 <zeroes.0+0xc0>
    5de8:	000a8513          	mv	a0,s5
    5dec:	000024b7          	lui	s1,0x2
    5df0:	1c9020ef          	jal	ra,87b8 <sprintf>
    5df4:	70f48493          	addi	s1,s1,1807 # 270f <_vfprintf_r+0x2563>
    5df8:	d4dff06f          	j	5b44 <_ldtoa_r+0x770>
    5dfc:	0b410c13          	addi	s8,sp,180
    5e00:	000c0713          	mv	a4,s8
    5e04:	07c10793          	addi	a5,sp,124
    5e08:	09010613          	addi	a2,sp,144
    5e0c:	0007d683          	lhu	a3,0(a5)
    5e10:	00278793          	addi	a5,a5,2
    5e14:	00270713          	addi	a4,a4,2
    5e18:	fed71f23          	sh	a3,-2(a4)
    5e1c:	fec798e3          	bne	a5,a2,5e0c <_ldtoa_r+0xa38>
    5e20:	000047b7          	lui	a5,0x4
    5e24:	08e78793          	addi	a5,a5,142 # 408e <eshift.part.0+0x1fa>
    5e28:	0cf11323          	sh	a5,198(sp)
    5e2c:	000087b7          	lui	a5,0x8
    5e30:	fff78793          	addi	a5,a5,-1 # 7fff <__mdiff+0xfb>
    5e34:	02f12223          	sw	a5,36(sp)
    5e38:	ffffc7b7          	lui	a5,0xffffc
    5e3c:	00278793          	addi	a5,a5,2 # ffffc002 <_stack+0xfffbc002>
    5e40:	01000c93          	li	s9,16
    5e44:	00000493          	li	s1,0
    5e48:	0001ad17          	auipc	s10,0x1a
    5e4c:	6ccd0d13          	addi	s10,s10,1740 # 20514 <etens+0xa0>
    5e50:	12410a93          	addi	s5,sp,292
    5e54:	16010993          	addi	s3,sp,352
    5e58:	0d010413          	addi	s0,sp,208
    5e5c:	0aa10b13          	addi	s6,sp,170
    5e60:	02f12423          	sw	a5,40(sp)
    5e64:	00098693          	mv	a3,s3
    5e68:	09810613          	addi	a2,sp,152
    5e6c:	000c0593          	mv	a1,s8
    5e70:	000d0513          	mv	a0,s10
    5e74:	e51fe0ef          	jal	ra,4cc4 <ediv>
    5e78:	04c10713          	addi	a4,sp,76
    5e7c:	09810793          	addi	a5,sp,152
    5e80:	0007d683          	lhu	a3,0(a5)
    5e84:	00278793          	addi	a5,a5,2
    5e88:	00270713          	addi	a4,a4,2
    5e8c:	fed71f23          	sh	a3,-2(a4)
    5e90:	ffb798e3          	bne	a5,s11,5e80 <_ldtoa_r+0xaac>
    5e94:	02412783          	lw	a5,36(sp)
    5e98:	05e15503          	lhu	a0,94(sp)
    5e9c:	00f57633          	and	a2,a0,a5
    5ea0:	02812783          	lw	a5,40(sp)
    5ea4:	00f605b3          	add	a1,a2,a5
    5ea8:	36b05e63          	blez	a1,6224 <_ldtoa_r+0xe50>
    5eac:	09000613          	li	a2,144
    5eb0:	40b60633          	sub	a2,a2,a1
    5eb4:	00040713          	mv	a4,s0
    5eb8:	04c10793          	addi	a5,sp,76
    5ebc:	0007d683          	lhu	a3,0(a5)
    5ec0:	00278793          	addi	a5,a5,2
    5ec4:	00270713          	addi	a4,a4,2
    5ec8:	fed71f23          	sh	a3,-2(a4)
    5ecc:	ff2798e3          	bne	a5,s2,5ebc <_ldtoa_r+0xae8>
    5ed0:	06c05a63          	blez	a2,5f44 <_ldtoa_r+0xb70>
    5ed4:	00f00793          	li	a5,15
    5ed8:	00040713          	mv	a4,s0
    5edc:	02c7de63          	bge	a5,a2,5f18 <_ldtoa_r+0xb44>
    5ee0:	08000693          	li	a3,128
    5ee4:	40b686b3          	sub	a3,a3,a1
    5ee8:	0046d693          	srli	a3,a3,0x4
    5eec:	00168713          	addi	a4,a3,1
    5ef0:	00171713          	slli	a4,a4,0x1
    5ef4:	00e40733          	add	a4,s0,a4
    5ef8:	00040793          	mv	a5,s0
    5efc:	00278793          	addi	a5,a5,2
    5f00:	fe079f23          	sh	zero,-2(a5)
    5f04:	fef71ce3          	bne	a4,a5,5efc <_ldtoa_r+0xb28>
    5f08:	08000613          	li	a2,128
    5f0c:	40b60633          	sub	a2,a2,a1
    5f10:	00469693          	slli	a3,a3,0x4
    5f14:	40d60633          	sub	a2,a2,a3
    5f18:	0001a797          	auipc	a5,0x1a
    5f1c:	42078793          	addi	a5,a5,1056 # 20338 <bmask>
    5f20:	00161613          	slli	a2,a2,0x1
    5f24:	00c78633          	add	a2,a5,a2
    5f28:	00065683          	lhu	a3,0(a2)
    5f2c:	00075783          	lhu	a5,0(a4)
    5f30:	00d7f7b3          	and	a5,a5,a3
    5f34:	00f71023          	sh	a5,0(a4)
    5f38:	01051513          	slli	a0,a0,0x10
    5f3c:	41055513          	srai	a0,a0,0x10
    5f40:	14054863          	bltz	a0,6090 <_ldtoa_r+0xcbc>
    5f44:	09810793          	addi	a5,sp,152
    5f48:	00040713          	mv	a4,s0
    5f4c:	0007d603          	lhu	a2,0(a5)
    5f50:	00075683          	lhu	a3,0(a4)
    5f54:	02d61863          	bne	a2,a3,5f84 <_ldtoa_r+0xbb0>
    5f58:	00278793          	addi	a5,a5,2
    5f5c:	00270713          	addi	a4,a4,2
    5f60:	fefb16e3          	bne	s6,a5,5f4c <_ldtoa_r+0xb78>
    5f64:	000c0713          	mv	a4,s8
    5f68:	09810793          	addi	a5,sp,152
    5f6c:	0007d683          	lhu	a3,0(a5)
    5f70:	00278793          	addi	a5,a5,2
    5f74:	00270713          	addi	a4,a4,2
    5f78:	fed71f23          	sh	a3,-2(a4)
    5f7c:	ffb798e3          	bne	a5,s11,5f6c <_ldtoa_r+0xb98>
    5f80:	019484b3          	add	s1,s1,s9
    5f84:	014d0d13          	addi	s10,s10,20
    5f88:	0001a797          	auipc	a5,0x1a
    5f8c:	5f078793          	addi	a5,a5,1520 # 20578 <ezero>
    5f90:	001cdc93          	srli	s9,s9,0x1
    5f94:	ecfd18e3          	bne	s10,a5,5e64 <_ldtoa_r+0xa90>
    5f98:	0c615783          	lhu	a5,198(sp)
    5f9c:	08e15703          	lhu	a4,142(sp)
    5fa0:	0c810613          	addi	a2,sp,200
    5fa4:	00e787b3          	add	a5,a5,a4
    5fa8:	ffffc737          	lui	a4,0xffffc
    5fac:	f7270713          	addi	a4,a4,-142 # ffffbf72 <_stack+0xfffbbf72>
    5fb0:	00e787b3          	add	a5,a5,a4
    5fb4:	0cf11323          	sh	a5,198(sp)
    5fb8:	07c10713          	addi	a4,sp,124
    5fbc:	000c0793          	mv	a5,s8
    5fc0:	0007d683          	lhu	a3,0(a5)
    5fc4:	00278793          	addi	a5,a5,2
    5fc8:	00270713          	addi	a4,a4,2
    5fcc:	fed71f23          	sh	a3,-2(a4)
    5fd0:	fec798e3          	bne	a5,a2,5fc0 <_ldtoa_r+0xbec>
    5fd4:	00000693          	li	a3,0
    5fd8:	09810793          	addi	a5,sp,152
    5fdc:	0001a717          	auipc	a4,0x1a
    5fe0:	48470713          	addi	a4,a4,1156 # 20460 <eone>
    5fe4:	0080006f          	j	5fec <_ldtoa_r+0xc18>
    5fe8:	00075683          	lhu	a3,0(a4)
    5fec:	00278793          	addi	a5,a5,2
    5ff0:	fed79f23          	sh	a3,-2(a5)
    5ff4:	00270713          	addi	a4,a4,2
    5ff8:	ffb798e3          	bne	a5,s11,5fe8 <_ldtoa_r+0xc14>
    5ffc:	00001cb7          	lui	s9,0x1
    6000:	0001ad97          	auipc	s11,0x1a
    6004:	474d8d93          	addi	s11,s11,1140 # 20474 <etens>
    6008:	0001ad17          	auipc	s10,0x1a
    600c:	55cd0d13          	addi	s10,s10,1372 # 20564 <etens+0xf0>
    6010:	0100006f          	j	6020 <_ldtoa_r+0xc4c>
    6014:	001cdc93          	srli	s9,s9,0x1
    6018:	25ad8463          	beq	s11,s10,6260 <_ldtoa_r+0xe8c>
    601c:	014d8d93          	addi	s11,s11,20
    6020:	000c0593          	mv	a1,s8
    6024:	000d0513          	mv	a0,s10
    6028:	940fe0ef          	jal	ra,4168 <ecmp>
    602c:	22a04a63          	bgtz	a0,6260 <_ldtoa_r+0xe8c>
    6030:	000c0593          	mv	a1,s8
    6034:	000d8513          	mv	a0,s11
    6038:	930fe0ef          	jal	ra,4168 <ecmp>
    603c:	fca04ce3          	bgtz	a0,6014 <_ldtoa_r+0xc40>
    6040:	00098693          	mv	a3,s3
    6044:	000c0613          	mv	a2,s8
    6048:	000c0593          	mv	a1,s8
    604c:	000d8513          	mv	a0,s11
    6050:	c75fe0ef          	jal	ra,4cc4 <ediv>
    6054:	09810613          	addi	a2,sp,152
    6058:	00098693          	mv	a3,s3
    605c:	00060593          	mv	a1,a2
    6060:	000d8513          	mv	a0,s11
    6064:	facfe0ef          	jal	ra,4810 <emul>
    6068:	019484b3          	add	s1,s1,s9
    606c:	fa9ff06f          	j	6014 <_ldtoa_r+0xc40>
    6070:	12710b93          	addi	s7,sp,295
    6074:	aa079ee3          	bnez	a5,5b30 <_ldtoa_r+0x75c>
    6078:	8c5ff06f          	j	593c <_ldtoa_r+0x568>
    607c:	00000613          	li	a2,0
    6080:	c38ff06f          	j	54b8 <_ldtoa_r+0xe4>
    6084:	01412783          	lw	a5,20(sp)
    6088:	fff78b93          	addi	s7,a5,-1
    608c:	ce5ff06f          	j	5d70 <_ldtoa_r+0x99c>
    6090:	04c10793          	addi	a5,sp,76
    6094:	00040713          	mv	a4,s0
    6098:	0140006f          	j	60ac <_ldtoa_r+0xcd8>
    609c:	00278793          	addi	a5,a5,2
    60a0:	05e10693          	addi	a3,sp,94
    60a4:	00270713          	addi	a4,a4,2
    60a8:	e8f68ee3          	beq	a3,a5,5f44 <_ldtoa_r+0xb70>
    60ac:	0007d603          	lhu	a2,0(a5)
    60b0:	00075683          	lhu	a3,0(a4)
    60b4:	fed604e3          	beq	a2,a3,609c <_ldtoa_r+0xcc8>
    60b8:	0e215783          	lhu	a5,226(sp)
    60bc:	02412703          	lw	a4,36(sp)
    60c0:	00f777b3          	and	a5,a4,a5
    60c4:	3ae78863          	beq	a5,a4,6474 <_ldtoa_r+0x10a0>
    60c8:	0ec10593          	addi	a1,sp,236
    60cc:	0001a517          	auipc	a0,0x1a
    60d0:	39450513          	addi	a0,a0,916 # 20460 <eone>
    60d4:	fe1fd0ef          	jal	ra,40b4 <emovi>
    60d8:	10810593          	addi	a1,sp,264
    60dc:	00040513          	mv	a0,s0
    60e0:	fd5fd0ef          	jal	ra,40b4 <emovi>
    60e4:	0ec15703          	lhu	a4,236(sp)
    60e8:	10a15603          	lhu	a2,266(sp)
    60ec:	0ee15803          	lhu	a6,238(sp)
    60f0:	fff74713          	not	a4,a4
    60f4:	01071713          	slli	a4,a4,0x10
    60f8:	01075713          	srli	a4,a4,0x10
    60fc:	0ee11623          	sh	a4,236(sp)
    6100:	40c805b3          	sub	a1,a6,a2
    6104:	00060693          	mv	a3,a2
    6108:	06b05e63          	blez	a1,6184 <_ldtoa_r+0xdb0>
    610c:	000a8593          	mv	a1,s5
    6110:	10810693          	addi	a3,sp,264
    6114:	12010793          	addi	a5,sp,288
    6118:	0006d503          	lhu	a0,0(a3)
    611c:	00268693          	addi	a3,a3,2
    6120:	00258593          	addi	a1,a1,2
    6124:	fea59f23          	sh	a0,-2(a1)
    6128:	fef698e3          	bne	a3,a5,6118 <_ldtoa_r+0xd44>
    612c:	12011e23          	sh	zero,316(sp)
    6130:	10810693          	addi	a3,sp,264
    6134:	0ec10593          	addi	a1,sp,236
    6138:	0080006f          	j	6140 <_ldtoa_r+0xd6c>
    613c:	0005d703          	lhu	a4,0(a1)
    6140:	00268693          	addi	a3,a3,2
    6144:	fee69f23          	sh	a4,-2(a3)
    6148:	00258593          	addi	a1,a1,2
    614c:	fef698e3          	bne	a3,a5,613c <_ldtoa_r+0xd68>
    6150:	12011023          	sh	zero,288(sp)
    6154:	0ec10713          	addi	a4,sp,236
    6158:	000a8793          	mv	a5,s5
    615c:	13c10513          	addi	a0,sp,316
    6160:	0007d683          	lhu	a3,0(a5)
    6164:	00278793          	addi	a5,a5,2
    6168:	00270713          	addi	a4,a4,2
    616c:	fed71f23          	sh	a3,-2(a4)
    6170:	fea798e3          	bne	a5,a0,6160 <_ldtoa_r+0xd8c>
    6174:	10a15683          	lhu	a3,266(sp)
    6178:	410605b3          	sub	a1,a2,a6
    617c:	10011223          	sh	zero,260(sp)
    6180:	00068613          	mv	a2,a3
    6184:	32058263          	beqz	a1,64a8 <_ldtoa_r+0x10d4>
    6188:	02d12623          	sw	a3,44(sp)
    618c:	f6f00793          	li	a5,-145
    6190:	06f5c863          	blt	a1,a5,6200 <_ldtoa_r+0xe2c>
    6194:	0ec10513          	addi	a0,sp,236
    6198:	cfdfd0ef          	jal	ra,3e94 <eshift.part.0>
    619c:	02c12683          	lw	a3,44(sp)
    61a0:	00050593          	mv	a1,a0
    61a4:	12010793          	addi	a5,sp,288
    61a8:	10410713          	addi	a4,sp,260
    61ac:	0ec15503          	lhu	a0,236(sp)
    61b0:	10815603          	lhu	a2,264(sp)
    61b4:	38c50e63          	beq	a0,a2,6550 <_ldtoa_r+0x117c>
    61b8:	00000613          	li	a2,0
    61bc:	10a10813          	addi	a6,sp,266
    61c0:	00060513          	mv	a0,a2
    61c4:	0007d603          	lhu	a2,0(a5)
    61c8:	00075883          	lhu	a7,0(a4)
    61cc:	ffe78793          	addi	a5,a5,-2
    61d0:	40a60633          	sub	a2,a2,a0
    61d4:	41160633          	sub	a2,a2,a7
    61d8:	01065513          	srli	a0,a2,0x10
    61dc:	00c79123          	sh	a2,2(a5)
    61e0:	00157513          	andi	a0,a0,1
    61e4:	ffe70713          	addi	a4,a4,-2
    61e8:	fd079ee3          	bne	a5,a6,61c4 <_ldtoa_r+0xdf0>
    61ec:	00100613          	li	a2,1
    61f0:	00098793          	mv	a5,s3
    61f4:	04000713          	li	a4,64
    61f8:	10810513          	addi	a0,sp,264
    61fc:	8a8fe0ef          	jal	ra,42a4 <emdnorm>
    6200:	00040593          	mv	a1,s0
    6204:	10810513          	addi	a0,sp,264
    6208:	a55fd0ef          	jal	ra,3c5c <emovo.constprop.0>
    620c:	d39ff06f          	j	5f44 <_ldtoa_r+0xb70>
    6210:	01812783          	lw	a5,24(sp)
    6214:	12010223          	sb	zero,292(sp)
    6218:	000a8413          	mv	s0,s5
    621c:	0007a023          	sw	zero,0(a5)
    6220:	b31ff06f          	j	5d50 <_ldtoa_r+0x97c>
    6224:	00040793          	mv	a5,s0
    6228:	0e410713          	addi	a4,sp,228
    622c:	00278793          	addi	a5,a5,2
    6230:	fe079f23          	sh	zero,-2(a5)
    6234:	fee79ce3          	bne	a5,a4,622c <_ldtoa_r+0xe58>
    6238:	d01ff06f          	j	5f38 <_ldtoa_r+0xb64>
    623c:	12410a93          	addi	s5,sp,292
    6240:	0e0b8a63          	beqz	s7,6334 <_ldtoa_r+0xf60>
    6244:	0001a597          	auipc	a1,0x1a
    6248:	03c58593          	addi	a1,a1,60 # 20280 <zeroes.0+0x10>
    624c:	000a8513          	mv	a0,s5
    6250:	000024b7          	lui	s1,0x2
    6254:	564020ef          	jal	ra,87b8 <sprintf>
    6258:	70f48493          	addi	s1,s1,1807 # 270f <_vfprintf_r+0x2563>
    625c:	8e9ff06f          	j	5b44 <_ldtoa_r+0x770>
    6260:	0e810b13          	addi	s6,sp,232
    6264:	c9cff06f          	j	5700 <_ldtoa_r+0x32c>
    6268:	fff64783          	lbu	a5,-1(a2)
    626c:	03800713          	li	a4,56
    6270:	0ef77063          	bgeu	a4,a5,6350 <_ldtoa_r+0xf7c>
    6274:	03100793          	li	a5,49
    6278:	00148493          	addi	s1,s1,1
    627c:	fef60fa3          	sb	a5,-1(a2)
    6280:	8b1ff06f          	j	5b30 <_ldtoa_r+0x75c>
    6284:	00170713          	addi	a4,a4,1
    6288:	00e60023          	sb	a4,0(a2)
    628c:	8a5ff06f          	j	5b30 <_ldtoa_r+0x75c>
    6290:	07210713          	addi	a4,sp,114
    6294:	0080006f          	j	629c <_ldtoa_r+0xec8>
    6298:	8ce904e3          	beq	s2,a4,5b60 <_ldtoa_r+0x78c>
    629c:	00095783          	lhu	a5,0(s2)
    62a0:	00290913          	addi	s2,s2,2
    62a4:	fe078ae3          	beqz	a5,6298 <_ldtoa_r+0xec4>
    62a8:	01812703          	lw	a4,24(sp)
    62ac:	000027b7          	lui	a5,0x2
    62b0:	70f78793          	addi	a5,a5,1807 # 270f <_vfprintf_r+0x2563>
    62b4:	00f72023          	sw	a5,0(a4)
    62b8:	8f5ff06f          	j	5bac <_ldtoa_r+0x7d8>
    62bc:	12410a93          	addi	s5,sp,292
    62c0:	0001a597          	auipc	a1,0x1a
    62c4:	fd858593          	addi	a1,a1,-40 # 20298 <zeroes.0+0x28>
    62c8:	000a8513          	mv	a0,s5
    62cc:	000024b7          	lui	s1,0x2
    62d0:	4e8020ef          	jal	ra,87b8 <sprintf>
    62d4:	70f48493          	addi	s1,s1,1807 # 270f <_vfprintf_r+0x2563>
    62d8:	86dff06f          	j	5b44 <_ldtoa_r+0x770>
    62dc:	09810593          	addi	a1,sp,152
    62e0:	07c10513          	addi	a0,sp,124
    62e4:	02f12223          	sw	a5,36(sp)
    62e8:	975fd0ef          	jal	ra,3c5c <emovo.constprop.0>
    62ec:	0001a597          	auipc	a1,0x1a
    62f0:	28c58593          	addi	a1,a1,652 # 20578 <ezero>
    62f4:	09810513          	addi	a0,sp,152
    62f8:	e71fd0ef          	jal	ra,4168 <ecmp>
    62fc:	02412783          	lw	a5,36(sp)
    6300:	fe051663          	bnez	a0,5aec <_ldtoa_r+0x718>
    6304:	820446e3          	bltz	s0,5b30 <_ldtoa_r+0x75c>
    6308:	ffe7c703          	lbu	a4,-2(a5)
    630c:	fd270613          	addi	a2,a4,-46
    6310:	00163613          	seqz	a2,a2
    6314:	fff64613          	not	a2,a2
    6318:	00cb8633          	add	a2,s7,a2
    631c:	00064603          	lbu	a2,0(a2)
    6320:	00167613          	andi	a2,a2,1
    6324:	800606e3          	beqz	a2,5b30 <_ldtoa_r+0x75c>
    6328:	ffe78613          	addi	a2,a5,-2
    632c:	07f77713          	andi	a4,a4,127
    6330:	fccff06f          	j	5afc <_ldtoa_r+0x728>
    6334:	0001a597          	auipc	a1,0x1a
    6338:	f5858593          	addi	a1,a1,-168 # 2028c <zeroes.0+0x1c>
    633c:	000a8513          	mv	a0,s5
    6340:	000024b7          	lui	s1,0x2
    6344:	474020ef          	jal	ra,87b8 <sprintf>
    6348:	70f48493          	addi	s1,s1,1807 # 270f <_vfprintf_r+0x2563>
    634c:	ff8ff06f          	j	5b44 <_ldtoa_r+0x770>
    6350:	00178793          	addi	a5,a5,1
    6354:	fef60fa3          	sb	a5,-1(a2)
    6358:	fd8ff06f          	j	5b30 <_ldtoa_r+0x75c>
    635c:	0d010413          	addi	s0,sp,208
    6360:	00040593          	mv	a1,s0
    6364:	07c10513          	addi	a0,sp,124
    6368:	00004c37          	lui	s8,0x4
    636c:	d49fd0ef          	jal	ra,40b4 <emovi>
    6370:	00000493          	li	s1,0
    6374:	0e810b13          	addi	s6,sp,232
    6378:	0cc10993          	addi	s3,sp,204
    637c:	0d210a93          	addi	s5,sp,210
    6380:	ffec0c13          	addi	s8,s8,-2 # 3ffe <eshift.part.0+0x16a>
    6384:	fd500c93          	li	s9,-43
    6388:	0e815783          	lhu	a5,232(sp)
    638c:	0077f793          	andi	a5,a5,7
    6390:	0c079863          	bnez	a5,6460 <_ldtoa_r+0x108c>
    6394:	0b410713          	addi	a4,sp,180
    6398:	00040793          	mv	a5,s0
    639c:	0007d683          	lhu	a3,0(a5)
    63a0:	00278793          	addi	a5,a5,2
    63a4:	00270713          	addi	a4,a4,2
    63a8:	fed71f23          	sh	a3,-2(a4)
    63ac:	ff6798e3          	bne	a5,s6,639c <_ldtoa_r+0xfc8>
    63b0:	0b410513          	addi	a0,sp,180
    63b4:	0c011623          	sh	zero,204(sp)
    63b8:	f34fd0ef          	jal	ra,3aec <eshdn1>
    63bc:	0b410513          	addi	a0,sp,180
    63c0:	f2cfd0ef          	jal	ra,3aec <eshdn1>
    63c4:	00000613          	li	a2,0
    63c8:	00098693          	mv	a3,s3
    63cc:	000b0713          	mv	a4,s6
    63d0:	0006d583          	lhu	a1,0(a3)
    63d4:	00075783          	lhu	a5,0(a4)
    63d8:	ffe68693          	addi	a3,a3,-2
    63dc:	ffe70713          	addi	a4,a4,-2
    63e0:	00b787b3          	add	a5,a5,a1
    63e4:	00c787b3          	add	a5,a5,a2
    63e8:	0107d613          	srli	a2,a5,0x10
    63ec:	00f69123          	sh	a5,2(a3)
    63f0:	00167613          	andi	a2,a2,1
    63f4:	fd571ee3          	bne	a4,s5,63d0 <_ldtoa_r+0xffc>
    63f8:	0b615783          	lhu	a5,182(sp)
    63fc:	0b815703          	lhu	a4,184(sp)
    6400:	00378793          	addi	a5,a5,3
    6404:	0af11b23          	sh	a5,182(sp)
    6408:	02070063          	beqz	a4,6428 <_ldtoa_r+0x1054>
    640c:	0b410513          	addi	a0,sp,180
    6410:	edcfd0ef          	jal	ra,3aec <eshdn1>
    6414:	0b615783          	lhu	a5,182(sp)
    6418:	0b815703          	lhu	a4,184(sp)
    641c:	00178793          	addi	a5,a5,1
    6420:	0af11b23          	sh	a5,182(sp)
    6424:	fe0714e3          	bnez	a4,640c <_ldtoa_r+0x1038>
    6428:	0cc15783          	lhu	a5,204(sp)
    642c:	02079a63          	bnez	a5,6460 <_ldtoa_r+0x108c>
    6430:	0b615783          	lhu	a5,182(sp)
    6434:	02fc6663          	bltu	s8,a5,6460 <_ldtoa_r+0x108c>
    6438:	00040713          	mv	a4,s0
    643c:	0b410793          	addi	a5,sp,180
    6440:	0007d683          	lhu	a3,0(a5)
    6444:	00278793          	addi	a5,a5,2
    6448:	00270713          	addi	a4,a4,2
    644c:	fed71f23          	sh	a3,-2(a4)
    6450:	ff3798e3          	bne	a5,s3,6440 <_ldtoa_r+0x106c>
    6454:	0e011423          	sh	zero,232(sp)
    6458:	fff48493          	addi	s1,s1,-1
    645c:	f39496e3          	bne	s1,s9,6388 <_ldtoa_r+0xfb4>
    6460:	07c10593          	addi	a1,sp,124
    6464:	00040513          	mv	a0,s0
    6468:	ff4fd0ef          	jal	ra,3c5c <emovo.constprop.0>
    646c:	16010993          	addi	s3,sp,352
    6470:	970ff06f          	j	55e0 <_ldtoa_r+0x20c>
    6474:	00040793          	mv	a5,s0
    6478:	0007d703          	lhu	a4,0(a5)
    647c:	00278793          	addi	a5,a5,2
    6480:	ac0712e3          	bnez	a4,5f44 <_ldtoa_r+0xb70>
    6484:	0e210713          	addi	a4,sp,226
    6488:	fee798e3          	bne	a5,a4,6478 <_ldtoa_r+0x10a4>
    648c:	00040793          	mv	a5,s0
    6490:	0007d703          	lhu	a4,0(a5)
    6494:	00278793          	addi	a5,a5,2
    6498:	c20718e3          	bnez	a4,60c8 <_ldtoa_r+0xcf4>
    649c:	0e210713          	addi	a4,sp,226
    64a0:	fee798e3          	bne	a5,a4,6490 <_ldtoa_r+0x10bc>
    64a4:	aa1ff06f          	j	5f44 <_ldtoa_r+0xb70>
    64a8:	10c10713          	addi	a4,sp,268
    64ac:	0f010793          	addi	a5,sp,240
    64b0:	0007d803          	lhu	a6,0(a5)
    64b4:	00075503          	lhu	a0,0(a4)
    64b8:	00278793          	addi	a5,a5,2
    64bc:	00270713          	addi	a4,a4,2
    64c0:	04a81863          	bne	a6,a0,6510 <_ldtoa_r+0x113c>
    64c4:	10610513          	addi	a0,sp,262
    64c8:	fea794e3          	bne	a5,a0,64b0 <_ldtoa_r+0x10dc>
    64cc:	0ec15703          	lhu	a4,236(sp)
    64d0:	10815783          	lhu	a5,264(sp)
    64d4:	04f70663          	beq	a4,a5,6520 <_ldtoa_r+0x114c>
    64d8:	00040793          	mv	a5,s0
    64dc:	0e410713          	addi	a4,sp,228
    64e0:	00278793          	addi	a5,a5,2
    64e4:	fe079f23          	sh	zero,-2(a5)
    64e8:	fee79ce3          	bne	a5,a4,64e0 <_ldtoa_r+0x110c>
    64ec:	a59ff06f          	j	5f44 <_ldtoa_r+0xb70>
    64f0:	000015b7          	lui	a1,0x1
    64f4:	0001a697          	auipc	a3,0x1a
    64f8:	dac68693          	addi	a3,a3,-596 # 202a0 <zeroes.0+0x30>
    64fc:	00000613          	li	a2,0
    6500:	b6e58593          	addi	a1,a1,-1170 # b6e <_vfprintf_r+0x9c2>
    6504:	0001a517          	auipc	a0,0x1a
    6508:	db050513          	addi	a0,a0,-592 # 202b4 <zeroes.0+0x44>
    650c:	728060ef          	jal	ra,cc34 <__assert_func>
    6510:	07056c63          	bltu	a0,a6,6588 <_ldtoa_r+0x11b4>
    6514:	12010793          	addi	a5,sp,288
    6518:	10410713          	addi	a4,sp,260
    651c:	c91ff06f          	j	61ac <_ldtoa_r+0xdd8>
    6520:	00068713          	mv	a4,a3
    6524:	00069663          	bnez	a3,6530 <_ldtoa_r+0x115c>
    6528:	10e11783          	lh	a5,270(sp)
    652c:	0c07d663          	bgez	a5,65f8 <_ldtoa_r+0x1224>
    6530:	10a10713          	addi	a4,sp,266
    6534:	12010793          	addi	a5,sp,288
    6538:	00075583          	lhu	a1,0(a4)
    653c:	10059663          	bnez	a1,6648 <_ldtoa_r+0x1274>
    6540:	00270713          	addi	a4,a4,2
    6544:	fee79ae3          	bne	a5,a4,6538 <_ldtoa_r+0x1164>
    6548:	10c11523          	sh	a2,266(sp)
    654c:	cb5ff06f          	j	6200 <_ldtoa_r+0xe2c>
    6550:	00000613          	li	a2,0
    6554:	0ee10813          	addi	a6,sp,238
    6558:	0007d883          	lhu	a7,0(a5)
    655c:	00075503          	lhu	a0,0(a4)
    6560:	ffe78793          	addi	a5,a5,-2
    6564:	ffe70713          	addi	a4,a4,-2
    6568:	01150533          	add	a0,a0,a7
    656c:	00c50633          	add	a2,a0,a2
    6570:	01065513          	srli	a0,a2,0x10
    6574:	00c79123          	sh	a2,2(a5)
    6578:	00157613          	andi	a2,a0,1
    657c:	fd071ee3          	bne	a4,a6,6558 <_ldtoa_r+0x1184>
    6580:	00000613          	li	a2,0
    6584:	c6dff06f          	j	61f0 <_ldtoa_r+0xe1c>
    6588:	000a8613          	mv	a2,s5
    658c:	10810713          	addi	a4,sp,264
    6590:	12010793          	addi	a5,sp,288
    6594:	00075503          	lhu	a0,0(a4)
    6598:	00270713          	addi	a4,a4,2
    659c:	00260613          	addi	a2,a2,2
    65a0:	fea61f23          	sh	a0,-2(a2)
    65a4:	fef718e3          	bne	a4,a5,6594 <_ldtoa_r+0x11c0>
    65a8:	12011e23          	sh	zero,316(sp)
    65ac:	10810513          	addi	a0,sp,264
    65b0:	0ec10613          	addi	a2,sp,236
    65b4:	10410713          	addi	a4,sp,260
    65b8:	00065803          	lhu	a6,0(a2)
    65bc:	00260613          	addi	a2,a2,2
    65c0:	00250513          	addi	a0,a0,2
    65c4:	ff051f23          	sh	a6,-2(a0)
    65c8:	fee618e3          	bne	a2,a4,65b8 <_ldtoa_r+0x11e4>
    65cc:	12011023          	sh	zero,288(sp)
    65d0:	0ec10813          	addi	a6,sp,236
    65d4:	000a8613          	mv	a2,s5
    65d8:	13c10513          	addi	a0,sp,316
    65dc:	00065883          	lhu	a7,0(a2)
    65e0:	00260613          	addi	a2,a2,2
    65e4:	00280813          	addi	a6,a6,2
    65e8:	ff181f23          	sh	a7,-2(a6)
    65ec:	fea618e3          	bne	a2,a0,65dc <_ldtoa_r+0x1208>
    65f0:	10011223          	sh	zero,260(sp)
    65f4:	bb9ff06f          	j	61ac <_ldtoa_r+0xdd8>
    65f8:	12010693          	addi	a3,sp,288
    65fc:	10a10813          	addi	a6,sp,266
    6600:	0006d783          	lhu	a5,0(a3)
    6604:	01079613          	slli	a2,a5,0x10
    6608:	41065613          	srai	a2,a2,0x10
    660c:	00065463          	bgez	a2,6614 <_ldtoa_r+0x1240>
    6610:	00176713          	ori	a4,a4,1
    6614:	00179793          	slli	a5,a5,0x1
    6618:	01079793          	slli	a5,a5,0x10
    661c:	00277613          	andi	a2,a4,2
    6620:	0107d793          	srli	a5,a5,0x10
    6624:	00060463          	beqz	a2,662c <_ldtoa_r+0x1258>
    6628:	0017e793          	ori	a5,a5,1
    662c:	00171713          	slli	a4,a4,0x1
    6630:	00f69023          	sh	a5,0(a3)
    6634:	01071713          	slli	a4,a4,0x10
    6638:	ffe68693          	addi	a3,a3,-2
    663c:	01075713          	srli	a4,a4,0x10
    6640:	fd0690e3          	bne	a3,a6,6600 <_ldtoa_r+0x122c>
    6644:	bbdff06f          	j	6200 <_ldtoa_r+0xe2c>
    6648:	00168613          	addi	a2,a3,1
    664c:	10c11523          	sh	a2,266(sp)
    6650:	bb1ff06f          	j	6200 <_ldtoa_r+0xe2c>

00006654 <_ldcheck>:
    6654:	00852703          	lw	a4,8(a0)
    6658:	00c52783          	lw	a5,12(a0)
    665c:	00052603          	lw	a2,0(a0)
    6660:	00452683          	lw	a3,4(a0)
    6664:	fc010113          	addi	sp,sp,-64
    6668:	00010513          	mv	a0,sp
    666c:	01410593          	addi	a1,sp,20
    6670:	00e12423          	sw	a4,8(sp)
    6674:	00f12623          	sw	a5,12(sp)
    6678:	02112e23          	sw	ra,60(sp)
    667c:	00c12023          	sw	a2,0(sp)
    6680:	00d12223          	sw	a3,4(sp)
    6684:	be1fe0ef          	jal	ra,5264 <e113toe.isra.0>
    6688:	02615783          	lhu	a5,38(sp)
    668c:	00000513          	li	a0,0
    6690:	fff7c793          	not	a5,a5
    6694:	01179713          	slli	a4,a5,0x11
    6698:	02071063          	bnez	a4,66b8 <_ldcheck+0x64>
    669c:	01410793          	addi	a5,sp,20
    66a0:	02610693          	addi	a3,sp,38
    66a4:	0007d703          	lhu	a4,0(a5)
    66a8:	00278793          	addi	a5,a5,2
    66ac:	00071c63          	bnez	a4,66c4 <_ldcheck+0x70>
    66b0:	fed79ae3          	bne	a5,a3,66a4 <_ldcheck+0x50>
    66b4:	00200513          	li	a0,2
    66b8:	03c12083          	lw	ra,60(sp)
    66bc:	04010113          	addi	sp,sp,64
    66c0:	00008067          	ret
    66c4:	00100513          	li	a0,1
    66c8:	ff1ff06f          	j	66b8 <_ldcheck+0x64>

000066cc <__localeconv_l>:
    66cc:	0f050513          	addi	a0,a0,240
    66d0:	00008067          	ret

000066d4 <_localeconv_r>:
    66d4:	0001b517          	auipc	a0,0x1b
    66d8:	d2c50513          	addi	a0,a0,-724 # 21400 <__global_locale+0xf0>
    66dc:	00008067          	ret

000066e0 <localeconv>:
    66e0:	0001b517          	auipc	a0,0x1b
    66e4:	d2050513          	addi	a0,a0,-736 # 21400 <__global_locale+0xf0>
    66e8:	00008067          	ret

000066ec <_setlocale_r>:
    66ec:	04060063          	beqz	a2,672c <_setlocale_r+0x40>
    66f0:	ff010113          	addi	sp,sp,-16
    66f4:	0001a597          	auipc	a1,0x1a
    66f8:	e9c58593          	addi	a1,a1,-356 # 20590 <ezero+0x18>
    66fc:	00060513          	mv	a0,a2
    6700:	00812423          	sw	s0,8(sp)
    6704:	00112623          	sw	ra,12(sp)
    6708:	00060413          	mv	s0,a2
    670c:	284020ef          	jal	ra,8990 <strcmp>
    6710:	02051463          	bnez	a0,6738 <_setlocale_r+0x4c>
    6714:	0001a517          	auipc	a0,0x1a
    6718:	e7850513          	addi	a0,a0,-392 # 2058c <ezero+0x14>
    671c:	00c12083          	lw	ra,12(sp)
    6720:	00812403          	lw	s0,8(sp)
    6724:	01010113          	addi	sp,sp,16
    6728:	00008067          	ret
    672c:	0001a517          	auipc	a0,0x1a
    6730:	e6050513          	addi	a0,a0,-416 # 2058c <ezero+0x14>
    6734:	00008067          	ret
    6738:	0001a597          	auipc	a1,0x1a
    673c:	e5458593          	addi	a1,a1,-428 # 2058c <ezero+0x14>
    6740:	00040513          	mv	a0,s0
    6744:	24c020ef          	jal	ra,8990 <strcmp>
    6748:	fc0506e3          	beqz	a0,6714 <_setlocale_r+0x28>
    674c:	0001a597          	auipc	a1,0x1a
    6750:	31458593          	addi	a1,a1,788 # 20a60 <zeroes.0+0x1c>
    6754:	00040513          	mv	a0,s0
    6758:	238020ef          	jal	ra,8990 <strcmp>
    675c:	fa050ce3          	beqz	a0,6714 <_setlocale_r+0x28>
    6760:	00000513          	li	a0,0
    6764:	fb9ff06f          	j	671c <_setlocale_r+0x30>

00006768 <__locale_mb_cur_max>:
    6768:	0001b517          	auipc	a0,0x1b
    676c:	cd054503          	lbu	a0,-816(a0) # 21438 <__global_locale+0x128>
    6770:	00008067          	ret

00006774 <setlocale>:
    6774:	04058063          	beqz	a1,67b4 <setlocale+0x40>
    6778:	ff010113          	addi	sp,sp,-16
    677c:	00812423          	sw	s0,8(sp)
    6780:	00058413          	mv	s0,a1
    6784:	00040513          	mv	a0,s0
    6788:	0001a597          	auipc	a1,0x1a
    678c:	e0858593          	addi	a1,a1,-504 # 20590 <ezero+0x18>
    6790:	00112623          	sw	ra,12(sp)
    6794:	1fc020ef          	jal	ra,8990 <strcmp>
    6798:	02051463          	bnez	a0,67c0 <setlocale+0x4c>
    679c:	0001a517          	auipc	a0,0x1a
    67a0:	df050513          	addi	a0,a0,-528 # 2058c <ezero+0x14>
    67a4:	00c12083          	lw	ra,12(sp)
    67a8:	00812403          	lw	s0,8(sp)
    67ac:	01010113          	addi	sp,sp,16
    67b0:	00008067          	ret
    67b4:	0001a517          	auipc	a0,0x1a
    67b8:	dd850513          	addi	a0,a0,-552 # 2058c <ezero+0x14>
    67bc:	00008067          	ret
    67c0:	0001a597          	auipc	a1,0x1a
    67c4:	dcc58593          	addi	a1,a1,-564 # 2058c <ezero+0x14>
    67c8:	00040513          	mv	a0,s0
    67cc:	1c4020ef          	jal	ra,8990 <strcmp>
    67d0:	fc0506e3          	beqz	a0,679c <setlocale+0x28>
    67d4:	0001a597          	auipc	a1,0x1a
    67d8:	28c58593          	addi	a1,a1,652 # 20a60 <zeroes.0+0x1c>
    67dc:	00040513          	mv	a0,s0
    67e0:	1b0020ef          	jal	ra,8990 <strcmp>
    67e4:	fa050ce3          	beqz	a0,679c <setlocale+0x28>
    67e8:	00000513          	li	a0,0
    67ec:	fb9ff06f          	j	67a4 <setlocale+0x30>

000067f0 <__smakebuf_r>:
    67f0:	00c5d783          	lhu	a5,12(a1)
    67f4:	f8010113          	addi	sp,sp,-128
    67f8:	06812c23          	sw	s0,120(sp)
    67fc:	06112e23          	sw	ra,124(sp)
    6800:	06912a23          	sw	s1,116(sp)
    6804:	07212823          	sw	s2,112(sp)
    6808:	07312623          	sw	s3,108(sp)
    680c:	07412423          	sw	s4,104(sp)
    6810:	0027f713          	andi	a4,a5,2
    6814:	00058413          	mv	s0,a1
    6818:	02070c63          	beqz	a4,6850 <__smakebuf_r+0x60>
    681c:	04358793          	addi	a5,a1,67
    6820:	00f5a023          	sw	a5,0(a1)
    6824:	00f5a823          	sw	a5,16(a1)
    6828:	00100793          	li	a5,1
    682c:	00f5aa23          	sw	a5,20(a1)
    6830:	07c12083          	lw	ra,124(sp)
    6834:	07812403          	lw	s0,120(sp)
    6838:	07412483          	lw	s1,116(sp)
    683c:	07012903          	lw	s2,112(sp)
    6840:	06c12983          	lw	s3,108(sp)
    6844:	06812a03          	lw	s4,104(sp)
    6848:	08010113          	addi	sp,sp,128
    684c:	00008067          	ret
    6850:	00e59583          	lh	a1,14(a1)
    6854:	00050493          	mv	s1,a0
    6858:	0805cc63          	bltz	a1,68f0 <__smakebuf_r+0x100>
    685c:	00810613          	addi	a2,sp,8
    6860:	191060ef          	jal	ra,d1f0 <_fstat_r>
    6864:	08054463          	bltz	a0,68ec <__smakebuf_r+0xfc>
    6868:	00c12783          	lw	a5,12(sp)
    686c:	0000f937          	lui	s2,0xf
    6870:	40000993          	li	s3,1024
    6874:	00f97933          	and	s2,s2,a5
    6878:	ffffe7b7          	lui	a5,0xffffe
    687c:	00f90933          	add	s2,s2,a5
    6880:	000017b7          	lui	a5,0x1
    6884:	00193913          	seqz	s2,s2
    6888:	80078a13          	addi	s4,a5,-2048 # 800 <_vfprintf_r+0x654>
    688c:	00098593          	mv	a1,s3
    6890:	00048513          	mv	a0,s1
    6894:	1bc000ef          	jal	ra,6a50 <_malloc_r>
    6898:	00c41783          	lh	a5,12(s0)
    689c:	06050e63          	beqz	a0,6918 <__smakebuf_r+0x128>
    68a0:	ffffd717          	auipc	a4,0xffffd
    68a4:	90870713          	addi	a4,a4,-1784 # 31a8 <_cleanup_r>
    68a8:	02e4ae23          	sw	a4,60(s1)
    68ac:	0807e793          	ori	a5,a5,128
    68b0:	00f41623          	sh	a5,12(s0)
    68b4:	00a42023          	sw	a0,0(s0)
    68b8:	00a42823          	sw	a0,16(s0)
    68bc:	01342a23          	sw	s3,20(s0)
    68c0:	08091863          	bnez	s2,6950 <__smakebuf_r+0x160>
    68c4:	0147e7b3          	or	a5,a5,s4
    68c8:	07c12083          	lw	ra,124(sp)
    68cc:	00f41623          	sh	a5,12(s0)
    68d0:	07812403          	lw	s0,120(sp)
    68d4:	07412483          	lw	s1,116(sp)
    68d8:	07012903          	lw	s2,112(sp)
    68dc:	06c12983          	lw	s3,108(sp)
    68e0:	06812a03          	lw	s4,104(sp)
    68e4:	08010113          	addi	sp,sp,128
    68e8:	00008067          	ret
    68ec:	00c45783          	lhu	a5,12(s0)
    68f0:	0807f793          	andi	a5,a5,128
    68f4:	00000913          	li	s2,0
    68f8:	04078663          	beqz	a5,6944 <__smakebuf_r+0x154>
    68fc:	04000993          	li	s3,64
    6900:	00098593          	mv	a1,s3
    6904:	00048513          	mv	a0,s1
    6908:	148000ef          	jal	ra,6a50 <_malloc_r>
    690c:	00c41783          	lh	a5,12(s0)
    6910:	00000a13          	li	s4,0
    6914:	f80516e3          	bnez	a0,68a0 <__smakebuf_r+0xb0>
    6918:	2007f713          	andi	a4,a5,512
    691c:	f0071ae3          	bnez	a4,6830 <__smakebuf_r+0x40>
    6920:	ffc7f793          	andi	a5,a5,-4
    6924:	0027e793          	ori	a5,a5,2
    6928:	04340713          	addi	a4,s0,67
    692c:	00f41623          	sh	a5,12(s0)
    6930:	00100793          	li	a5,1
    6934:	00e42023          	sw	a4,0(s0)
    6938:	00e42823          	sw	a4,16(s0)
    693c:	00f42a23          	sw	a5,20(s0)
    6940:	ef1ff06f          	j	6830 <__smakebuf_r+0x40>
    6944:	40000993          	li	s3,1024
    6948:	00000a13          	li	s4,0
    694c:	f41ff06f          	j	688c <__smakebuf_r+0x9c>
    6950:	00e41583          	lh	a1,14(s0)
    6954:	00048513          	mv	a0,s1
    6958:	591060ef          	jal	ra,d6e8 <_isatty_r>
    695c:	00051663          	bnez	a0,6968 <__smakebuf_r+0x178>
    6960:	00c41783          	lh	a5,12(s0)
    6964:	f61ff06f          	j	68c4 <__smakebuf_r+0xd4>
    6968:	00c45783          	lhu	a5,12(s0)
    696c:	ffc7f793          	andi	a5,a5,-4
    6970:	0017e793          	ori	a5,a5,1
    6974:	01079793          	slli	a5,a5,0x10
    6978:	4107d793          	srai	a5,a5,0x10
    697c:	f49ff06f          	j	68c4 <__smakebuf_r+0xd4>

00006980 <__swhatbuf_r>:
    6980:	f9010113          	addi	sp,sp,-112
    6984:	06812423          	sw	s0,104(sp)
    6988:	00058413          	mv	s0,a1
    698c:	00e59583          	lh	a1,14(a1)
    6990:	06912223          	sw	s1,100(sp)
    6994:	07212023          	sw	s2,96(sp)
    6998:	06112623          	sw	ra,108(sp)
    699c:	00060493          	mv	s1,a2
    69a0:	00068913          	mv	s2,a3
    69a4:	0405ca63          	bltz	a1,69f8 <__swhatbuf_r+0x78>
    69a8:	00810613          	addi	a2,sp,8
    69ac:	045060ef          	jal	ra,d1f0 <_fstat_r>
    69b0:	04054463          	bltz	a0,69f8 <__swhatbuf_r+0x78>
    69b4:	00c12703          	lw	a4,12(sp)
    69b8:	0000f7b7          	lui	a5,0xf
    69bc:	06c12083          	lw	ra,108(sp)
    69c0:	00e7f7b3          	and	a5,a5,a4
    69c4:	ffffe737          	lui	a4,0xffffe
    69c8:	00e787b3          	add	a5,a5,a4
    69cc:	06812403          	lw	s0,104(sp)
    69d0:	0017b793          	seqz	a5,a5
    69d4:	00f92023          	sw	a5,0(s2) # f000 <_svfiprintf_r+0xcc8>
    69d8:	40000793          	li	a5,1024
    69dc:	00f4a023          	sw	a5,0(s1)
    69e0:	00001537          	lui	a0,0x1
    69e4:	06412483          	lw	s1,100(sp)
    69e8:	06012903          	lw	s2,96(sp)
    69ec:	80050513          	addi	a0,a0,-2048 # 800 <_vfprintf_r+0x654>
    69f0:	07010113          	addi	sp,sp,112
    69f4:	00008067          	ret
    69f8:	00c41783          	lh	a5,12(s0)
    69fc:	00092023          	sw	zero,0(s2)
    6a00:	0807f793          	andi	a5,a5,128
    6a04:	02078463          	beqz	a5,6a2c <__swhatbuf_r+0xac>
    6a08:	06c12083          	lw	ra,108(sp)
    6a0c:	06812403          	lw	s0,104(sp)
    6a10:	04000793          	li	a5,64
    6a14:	00f4a023          	sw	a5,0(s1)
    6a18:	06012903          	lw	s2,96(sp)
    6a1c:	06412483          	lw	s1,100(sp)
    6a20:	00000513          	li	a0,0
    6a24:	07010113          	addi	sp,sp,112
    6a28:	00008067          	ret
    6a2c:	06c12083          	lw	ra,108(sp)
    6a30:	06812403          	lw	s0,104(sp)
    6a34:	40000793          	li	a5,1024
    6a38:	00f4a023          	sw	a5,0(s1)
    6a3c:	06012903          	lw	s2,96(sp)
    6a40:	06412483          	lw	s1,100(sp)
    6a44:	00000513          	li	a0,0
    6a48:	07010113          	addi	sp,sp,112
    6a4c:	00008067          	ret

00006a50 <_malloc_r>:
    6a50:	fd010113          	addi	sp,sp,-48
    6a54:	03212023          	sw	s2,32(sp)
    6a58:	02112623          	sw	ra,44(sp)
    6a5c:	02812423          	sw	s0,40(sp)
    6a60:	02912223          	sw	s1,36(sp)
    6a64:	01312e23          	sw	s3,28(sp)
    6a68:	01412c23          	sw	s4,24(sp)
    6a6c:	01512a23          	sw	s5,20(sp)
    6a70:	01612823          	sw	s6,16(sp)
    6a74:	01712623          	sw	s7,12(sp)
    6a78:	01812423          	sw	s8,8(sp)
    6a7c:	01912223          	sw	s9,4(sp)
    6a80:	00b58793          	addi	a5,a1,11
    6a84:	01600713          	li	a4,22
    6a88:	00050913          	mv	s2,a0
    6a8c:	06f76663          	bltu	a4,a5,6af8 <_malloc_r+0xa8>
    6a90:	01000793          	li	a5,16
    6a94:	1eb7e863          	bltu	a5,a1,6c84 <_malloc_r+0x234>
    6a98:	19d000ef          	jal	ra,7434 <__malloc_lock>
    6a9c:	01000493          	li	s1,16
    6aa0:	01800793          	li	a5,24
    6aa4:	00200613          	li	a2,2
    6aa8:	0001b997          	auipc	s3,0x1b
    6aac:	9d498993          	addi	s3,s3,-1580 # 2147c <__malloc_av_>
    6ab0:	00f987b3          	add	a5,s3,a5
    6ab4:	0047a403          	lw	s0,4(a5) # f004 <_svfiprintf_r+0xccc>
    6ab8:	ff878713          	addi	a4,a5,-8
    6abc:	20e40c63          	beq	s0,a4,6cd4 <_malloc_r+0x284>
    6ac0:	00442783          	lw	a5,4(s0)
    6ac4:	00c42683          	lw	a3,12(s0)
    6ac8:	00842603          	lw	a2,8(s0)
    6acc:	ffc7f793          	andi	a5,a5,-4
    6ad0:	00f407b3          	add	a5,s0,a5
    6ad4:	0047a703          	lw	a4,4(a5)
    6ad8:	00d62623          	sw	a3,12(a2)
    6adc:	00c6a423          	sw	a2,8(a3)
    6ae0:	00176713          	ori	a4,a4,1
    6ae4:	00090513          	mv	a0,s2
    6ae8:	00e7a223          	sw	a4,4(a5)
    6aec:	14d000ef          	jal	ra,7438 <__malloc_unlock>
    6af0:	00840513          	addi	a0,s0,8
    6af4:	19c0006f          	j	6c90 <_malloc_r+0x240>
    6af8:	ff87f493          	andi	s1,a5,-8
    6afc:	1807c463          	bltz	a5,6c84 <_malloc_r+0x234>
    6b00:	18b4e263          	bltu	s1,a1,6c84 <_malloc_r+0x234>
    6b04:	131000ef          	jal	ra,7434 <__malloc_lock>
    6b08:	1f700793          	li	a5,503
    6b0c:	4897f063          	bgeu	a5,s1,6f8c <_malloc_r+0x53c>
    6b10:	0094d793          	srli	a5,s1,0x9
    6b14:	1a078863          	beqz	a5,6cc4 <_malloc_r+0x274>
    6b18:	00400713          	li	a4,4
    6b1c:	3ef76663          	bltu	a4,a5,6f08 <_malloc_r+0x4b8>
    6b20:	0064d793          	srli	a5,s1,0x6
    6b24:	03978613          	addi	a2,a5,57
    6b28:	03878513          	addi	a0,a5,56
    6b2c:	00361693          	slli	a3,a2,0x3
    6b30:	0001b997          	auipc	s3,0x1b
    6b34:	94c98993          	addi	s3,s3,-1716 # 2147c <__malloc_av_>
    6b38:	00d986b3          	add	a3,s3,a3
    6b3c:	0046a403          	lw	s0,4(a3)
    6b40:	ff868693          	addi	a3,a3,-8
    6b44:	02868663          	beq	a3,s0,6b70 <_malloc_r+0x120>
    6b48:	00f00593          	li	a1,15
    6b4c:	0100006f          	j	6b5c <_malloc_r+0x10c>
    6b50:	34075663          	bgez	a4,6e9c <_malloc_r+0x44c>
    6b54:	00c42403          	lw	s0,12(s0)
    6b58:	00868c63          	beq	a3,s0,6b70 <_malloc_r+0x120>
    6b5c:	00442783          	lw	a5,4(s0)
    6b60:	ffc7f793          	andi	a5,a5,-4
    6b64:	40978733          	sub	a4,a5,s1
    6b68:	fee5d4e3          	bge	a1,a4,6b50 <_malloc_r+0x100>
    6b6c:	00050613          	mv	a2,a0
    6b70:	0109a403          	lw	s0,16(s3)
    6b74:	0001b897          	auipc	a7,0x1b
    6b78:	91088893          	addi	a7,a7,-1776 # 21484 <__malloc_av_+0x8>
    6b7c:	17140a63          	beq	s0,a7,6cf0 <_malloc_r+0x2a0>
    6b80:	00442503          	lw	a0,4(s0)
    6b84:	00f00693          	li	a3,15
    6b88:	ffc57513          	andi	a0,a0,-4
    6b8c:	409507b3          	sub	a5,a0,s1
    6b90:	42f6c463          	blt	a3,a5,6fb8 <_malloc_r+0x568>
    6b94:	0119aa23          	sw	a7,20(s3)
    6b98:	0119a823          	sw	a7,16(s3)
    6b9c:	3e07de63          	bgez	a5,6f98 <_malloc_r+0x548>
    6ba0:	1ff00793          	li	a5,511
    6ba4:	30a7e263          	bltu	a5,a0,6ea8 <_malloc_r+0x458>
    6ba8:	ff857793          	andi	a5,a0,-8
    6bac:	00878793          	addi	a5,a5,8
    6bb0:	0049a583          	lw	a1,4(s3)
    6bb4:	00f987b3          	add	a5,s3,a5
    6bb8:	0007a683          	lw	a3,0(a5)
    6bbc:	00555513          	srli	a0,a0,0x5
    6bc0:	00100713          	li	a4,1
    6bc4:	00a71733          	sll	a4,a4,a0
    6bc8:	00b76733          	or	a4,a4,a1
    6bcc:	ff878593          	addi	a1,a5,-8
    6bd0:	00b42623          	sw	a1,12(s0)
    6bd4:	00d42423          	sw	a3,8(s0)
    6bd8:	00e9a223          	sw	a4,4(s3)
    6bdc:	0087a023          	sw	s0,0(a5)
    6be0:	0086a623          	sw	s0,12(a3)
    6be4:	40265793          	srai	a5,a2,0x2
    6be8:	00100593          	li	a1,1
    6bec:	00f595b3          	sll	a1,a1,a5
    6bf0:	10b76a63          	bltu	a4,a1,6d04 <_malloc_r+0x2b4>
    6bf4:	00e5f7b3          	and	a5,a1,a4
    6bf8:	02079463          	bnez	a5,6c20 <_malloc_r+0x1d0>
    6bfc:	00159593          	slli	a1,a1,0x1
    6c00:	ffc67613          	andi	a2,a2,-4
    6c04:	00e5f7b3          	and	a5,a1,a4
    6c08:	00460613          	addi	a2,a2,4
    6c0c:	00079a63          	bnez	a5,6c20 <_malloc_r+0x1d0>
    6c10:	00159593          	slli	a1,a1,0x1
    6c14:	00e5f7b3          	and	a5,a1,a4
    6c18:	00460613          	addi	a2,a2,4
    6c1c:	fe078ae3          	beqz	a5,6c10 <_malloc_r+0x1c0>
    6c20:	00f00813          	li	a6,15
    6c24:	00361313          	slli	t1,a2,0x3
    6c28:	00698333          	add	t1,s3,t1
    6c2c:	00030513          	mv	a0,t1
    6c30:	00c52783          	lw	a5,12(a0)
    6c34:	00060e13          	mv	t3,a2
    6c38:	2ef50a63          	beq	a0,a5,6f2c <_malloc_r+0x4dc>
    6c3c:	0047a703          	lw	a4,4(a5)
    6c40:	00078413          	mv	s0,a5
    6c44:	00c7a783          	lw	a5,12(a5)
    6c48:	ffc77713          	andi	a4,a4,-4
    6c4c:	409706b3          	sub	a3,a4,s1
    6c50:	2ed84a63          	blt	a6,a3,6f44 <_malloc_r+0x4f4>
    6c54:	fe06c2e3          	bltz	a3,6c38 <_malloc_r+0x1e8>
    6c58:	00e40733          	add	a4,s0,a4
    6c5c:	00472683          	lw	a3,4(a4) # ffffe004 <_stack+0xfffbe004>
    6c60:	00842603          	lw	a2,8(s0)
    6c64:	00090513          	mv	a0,s2
    6c68:	0016e693          	ori	a3,a3,1
    6c6c:	00d72223          	sw	a3,4(a4)
    6c70:	00f62623          	sw	a5,12(a2)
    6c74:	00c7a423          	sw	a2,8(a5)
    6c78:	7c0000ef          	jal	ra,7438 <__malloc_unlock>
    6c7c:	00840513          	addi	a0,s0,8
    6c80:	0100006f          	j	6c90 <_malloc_r+0x240>
    6c84:	00c00793          	li	a5,12
    6c88:	00f92023          	sw	a5,0(s2)
    6c8c:	00000513          	li	a0,0
    6c90:	02c12083          	lw	ra,44(sp)
    6c94:	02812403          	lw	s0,40(sp)
    6c98:	02412483          	lw	s1,36(sp)
    6c9c:	02012903          	lw	s2,32(sp)
    6ca0:	01c12983          	lw	s3,28(sp)
    6ca4:	01812a03          	lw	s4,24(sp)
    6ca8:	01412a83          	lw	s5,20(sp)
    6cac:	01012b03          	lw	s6,16(sp)
    6cb0:	00c12b83          	lw	s7,12(sp)
    6cb4:	00812c03          	lw	s8,8(sp)
    6cb8:	00412c83          	lw	s9,4(sp)
    6cbc:	03010113          	addi	sp,sp,48
    6cc0:	00008067          	ret
    6cc4:	20000693          	li	a3,512
    6cc8:	04000613          	li	a2,64
    6ccc:	03f00513          	li	a0,63
    6cd0:	e61ff06f          	j	6b30 <_malloc_r+0xe0>
    6cd4:	00c7a403          	lw	s0,12(a5)
    6cd8:	00260613          	addi	a2,a2,2
    6cdc:	de8792e3          	bne	a5,s0,6ac0 <_malloc_r+0x70>
    6ce0:	0109a403          	lw	s0,16(s3)
    6ce4:	0001a897          	auipc	a7,0x1a
    6ce8:	7a088893          	addi	a7,a7,1952 # 21484 <__malloc_av_+0x8>
    6cec:	e9141ae3          	bne	s0,a7,6b80 <_malloc_r+0x130>
    6cf0:	0049a703          	lw	a4,4(s3)
    6cf4:	40265793          	srai	a5,a2,0x2
    6cf8:	00100593          	li	a1,1
    6cfc:	00f595b3          	sll	a1,a1,a5
    6d00:	eeb77ae3          	bgeu	a4,a1,6bf4 <_malloc_r+0x1a4>
    6d04:	0089a403          	lw	s0,8(s3)
    6d08:	00442a83          	lw	s5,4(s0)
    6d0c:	ffcafb13          	andi	s6,s5,-4
    6d10:	009b6863          	bltu	s6,s1,6d20 <_malloc_r+0x2d0>
    6d14:	409b07b3          	sub	a5,s6,s1
    6d18:	00f00713          	li	a4,15
    6d1c:	14f74c63          	blt	a4,a5,6e74 <_malloc_r+0x424>
    6d20:	00019c97          	auipc	s9,0x19
    6d24:	314c8c93          	addi	s9,s9,788 # 20034 <__malloc_sbrk_base>
    6d28:	000ca703          	lw	a4,0(s9)
    6d2c:	0001ba97          	auipc	s5,0x1b
    6d30:	b64aaa83          	lw	s5,-1180(s5) # 21890 <__malloc_top_pad>
    6d34:	fff00793          	li	a5,-1
    6d38:	01640a33          	add	s4,s0,s6
    6d3c:	01548ab3          	add	s5,s1,s5
    6d40:	34f70e63          	beq	a4,a5,709c <_malloc_r+0x64c>
    6d44:	000017b7          	lui	a5,0x1
    6d48:	00f78793          	addi	a5,a5,15 # 100f <_vfprintf_r+0xe63>
    6d4c:	00fa8ab3          	add	s5,s5,a5
    6d50:	fffff7b7          	lui	a5,0xfffff
    6d54:	00fafab3          	and	s5,s5,a5
    6d58:	000a8593          	mv	a1,s5
    6d5c:	00090513          	mv	a0,s2
    6d60:	0e5010ef          	jal	ra,8644 <_sbrk_r>
    6d64:	fff00793          	li	a5,-1
    6d68:	00050b93          	mv	s7,a0
    6d6c:	2af50063          	beq	a0,a5,700c <_malloc_r+0x5bc>
    6d70:	29456c63          	bltu	a0,s4,7008 <_malloc_r+0x5b8>
    6d74:	0001bc17          	auipc	s8,0x1b
    6d78:	b28c0c13          	addi	s8,s8,-1240 # 2189c <__malloc_current_mallinfo>
    6d7c:	000c2583          	lw	a1,0(s8)
    6d80:	00ba85b3          	add	a1,s5,a1
    6d84:	00bc2023          	sw	a1,0(s8)
    6d88:	00058793          	mv	a5,a1
    6d8c:	3aaa0863          	beq	s4,a0,713c <_malloc_r+0x6ec>
    6d90:	000ca683          	lw	a3,0(s9)
    6d94:	fff00713          	li	a4,-1
    6d98:	3ce68063          	beq	a3,a4,7158 <_malloc_r+0x708>
    6d9c:	414b8a33          	sub	s4,s7,s4
    6da0:	00fa07b3          	add	a5,s4,a5
    6da4:	00fc2023          	sw	a5,0(s8)
    6da8:	007bfc93          	andi	s9,s7,7
    6dac:	300c8a63          	beqz	s9,70c0 <_malloc_r+0x670>
    6db0:	000017b7          	lui	a5,0x1
    6db4:	419b8bb3          	sub	s7,s7,s9
    6db8:	00878593          	addi	a1,a5,8 # 1008 <_vfprintf_r+0xe5c>
    6dbc:	008b8b93          	addi	s7,s7,8
    6dc0:	419585b3          	sub	a1,a1,s9
    6dc4:	015b8ab3          	add	s5,s7,s5
    6dc8:	fff78793          	addi	a5,a5,-1
    6dcc:	415585b3          	sub	a1,a1,s5
    6dd0:	00f5fa33          	and	s4,a1,a5
    6dd4:	000a0593          	mv	a1,s4
    6dd8:	00090513          	mv	a0,s2
    6ddc:	069010ef          	jal	ra,8644 <_sbrk_r>
    6de0:	fff00793          	li	a5,-1
    6de4:	3cf50463          	beq	a0,a5,71ac <_malloc_r+0x75c>
    6de8:	41750533          	sub	a0,a0,s7
    6dec:	01450ab3          	add	s5,a0,s4
    6df0:	000c2583          	lw	a1,0(s8)
    6df4:	0179a423          	sw	s7,8(s3)
    6df8:	001aea93          	ori	s5,s5,1
    6dfc:	00ba05b3          	add	a1,s4,a1
    6e00:	00bc2023          	sw	a1,0(s8)
    6e04:	015ba223          	sw	s5,4(s7)
    6e08:	35340c63          	beq	s0,s3,7160 <_malloc_r+0x710>
    6e0c:	00f00693          	li	a3,15
    6e10:	3566fc63          	bgeu	a3,s6,7168 <_malloc_r+0x718>
    6e14:	00442703          	lw	a4,4(s0)
    6e18:	ff4b0793          	addi	a5,s6,-12
    6e1c:	ff87f793          	andi	a5,a5,-8
    6e20:	00177713          	andi	a4,a4,1
    6e24:	00f76733          	or	a4,a4,a5
    6e28:	00e42223          	sw	a4,4(s0)
    6e2c:	00500613          	li	a2,5
    6e30:	00f40733          	add	a4,s0,a5
    6e34:	00c72223          	sw	a2,4(a4)
    6e38:	00c72423          	sw	a2,8(a4)
    6e3c:	38f6e263          	bltu	a3,a5,71c0 <_malloc_r+0x770>
    6e40:	004baa83          	lw	s5,4(s7)
    6e44:	000b8413          	mv	s0,s7
    6e48:	0001b797          	auipc	a5,0x1b
    6e4c:	a4078793          	addi	a5,a5,-1472 # 21888 <__malloc_max_sbrked_mem>
    6e50:	0007a703          	lw	a4,0(a5)
    6e54:	00b77463          	bgeu	a4,a1,6e5c <_malloc_r+0x40c>
    6e58:	00b7a023          	sw	a1,0(a5)
    6e5c:	0001b797          	auipc	a5,0x1b
    6e60:	a3078793          	addi	a5,a5,-1488 # 2188c <__malloc_max_total_mem>
    6e64:	0007a703          	lw	a4,0(a5)
    6e68:	1ab77663          	bgeu	a4,a1,7014 <_malloc_r+0x5c4>
    6e6c:	00b7a023          	sw	a1,0(a5)
    6e70:	1a40006f          	j	7014 <_malloc_r+0x5c4>
    6e74:	0014e713          	ori	a4,s1,1
    6e78:	00e42223          	sw	a4,4(s0)
    6e7c:	009404b3          	add	s1,s0,s1
    6e80:	0099a423          	sw	s1,8(s3)
    6e84:	0017e793          	ori	a5,a5,1
    6e88:	00090513          	mv	a0,s2
    6e8c:	00f4a223          	sw	a5,4(s1)
    6e90:	5a8000ef          	jal	ra,7438 <__malloc_unlock>
    6e94:	00840513          	addi	a0,s0,8
    6e98:	df9ff06f          	j	6c90 <_malloc_r+0x240>
    6e9c:	00c42683          	lw	a3,12(s0)
    6ea0:	00842603          	lw	a2,8(s0)
    6ea4:	c2dff06f          	j	6ad0 <_malloc_r+0x80>
    6ea8:	00955793          	srli	a5,a0,0x9
    6eac:	00400713          	li	a4,4
    6eb0:	14f77263          	bgeu	a4,a5,6ff4 <_malloc_r+0x5a4>
    6eb4:	01400713          	li	a4,20
    6eb8:	22f76a63          	bltu	a4,a5,70ec <_malloc_r+0x69c>
    6ebc:	05c78693          	addi	a3,a5,92
    6ec0:	05b78593          	addi	a1,a5,91
    6ec4:	00369693          	slli	a3,a3,0x3
    6ec8:	00d986b3          	add	a3,s3,a3
    6ecc:	0006a783          	lw	a5,0(a3)
    6ed0:	ff868693          	addi	a3,a3,-8
    6ed4:	1cf68863          	beq	a3,a5,70a4 <_malloc_r+0x654>
    6ed8:	0047a703          	lw	a4,4(a5)
    6edc:	ffc77713          	andi	a4,a4,-4
    6ee0:	00e57663          	bgeu	a0,a4,6eec <_malloc_r+0x49c>
    6ee4:	0087a783          	lw	a5,8(a5)
    6ee8:	fef698e3          	bne	a3,a5,6ed8 <_malloc_r+0x488>
    6eec:	00c7a683          	lw	a3,12(a5)
    6ef0:	0049a703          	lw	a4,4(s3)
    6ef4:	00d42623          	sw	a3,12(s0)
    6ef8:	00f42423          	sw	a5,8(s0)
    6efc:	0086a423          	sw	s0,8(a3)
    6f00:	0087a623          	sw	s0,12(a5)
    6f04:	ce1ff06f          	j	6be4 <_malloc_r+0x194>
    6f08:	01400713          	li	a4,20
    6f0c:	12f77663          	bgeu	a4,a5,7038 <_malloc_r+0x5e8>
    6f10:	05400713          	li	a4,84
    6f14:	1ef76a63          	bltu	a4,a5,7108 <_malloc_r+0x6b8>
    6f18:	00c4d793          	srli	a5,s1,0xc
    6f1c:	06f78613          	addi	a2,a5,111
    6f20:	06e78513          	addi	a0,a5,110
    6f24:	00361693          	slli	a3,a2,0x3
    6f28:	c09ff06f          	j	6b30 <_malloc_r+0xe0>
    6f2c:	001e0e13          	addi	t3,t3,1
    6f30:	003e7793          	andi	a5,t3,3
    6f34:	00850513          	addi	a0,a0,8
    6f38:	10078e63          	beqz	a5,7054 <_malloc_r+0x604>
    6f3c:	00c52783          	lw	a5,12(a0)
    6f40:	cf9ff06f          	j	6c38 <_malloc_r+0x1e8>
    6f44:	00842603          	lw	a2,8(s0)
    6f48:	0014e593          	ori	a1,s1,1
    6f4c:	00b42223          	sw	a1,4(s0)
    6f50:	00f62623          	sw	a5,12(a2)
    6f54:	00c7a423          	sw	a2,8(a5)
    6f58:	009404b3          	add	s1,s0,s1
    6f5c:	0099aa23          	sw	s1,20(s3)
    6f60:	0099a823          	sw	s1,16(s3)
    6f64:	0016e793          	ori	a5,a3,1
    6f68:	0114a623          	sw	a7,12(s1)
    6f6c:	0114a423          	sw	a7,8(s1)
    6f70:	00f4a223          	sw	a5,4(s1)
    6f74:	00e40733          	add	a4,s0,a4
    6f78:	00090513          	mv	a0,s2
    6f7c:	00d72023          	sw	a3,0(a4)
    6f80:	4b8000ef          	jal	ra,7438 <__malloc_unlock>
    6f84:	00840513          	addi	a0,s0,8
    6f88:	d09ff06f          	j	6c90 <_malloc_r+0x240>
    6f8c:	0034d613          	srli	a2,s1,0x3
    6f90:	00848793          	addi	a5,s1,8
    6f94:	b15ff06f          	j	6aa8 <_malloc_r+0x58>
    6f98:	00a40733          	add	a4,s0,a0
    6f9c:	00472783          	lw	a5,4(a4)
    6fa0:	00090513          	mv	a0,s2
    6fa4:	0017e793          	ori	a5,a5,1
    6fa8:	00f72223          	sw	a5,4(a4)
    6fac:	48c000ef          	jal	ra,7438 <__malloc_unlock>
    6fb0:	00840513          	addi	a0,s0,8
    6fb4:	cddff06f          	j	6c90 <_malloc_r+0x240>
    6fb8:	0014e713          	ori	a4,s1,1
    6fbc:	00e42223          	sw	a4,4(s0)
    6fc0:	009404b3          	add	s1,s0,s1
    6fc4:	0099aa23          	sw	s1,20(s3)
    6fc8:	0099a823          	sw	s1,16(s3)
    6fcc:	0017e713          	ori	a4,a5,1
    6fd0:	0114a623          	sw	a7,12(s1)
    6fd4:	0114a423          	sw	a7,8(s1)
    6fd8:	00e4a223          	sw	a4,4(s1)
    6fdc:	00a40533          	add	a0,s0,a0
    6fe0:	00f52023          	sw	a5,0(a0)
    6fe4:	00090513          	mv	a0,s2
    6fe8:	450000ef          	jal	ra,7438 <__malloc_unlock>
    6fec:	00840513          	addi	a0,s0,8
    6ff0:	ca1ff06f          	j	6c90 <_malloc_r+0x240>
    6ff4:	00655793          	srli	a5,a0,0x6
    6ff8:	03978693          	addi	a3,a5,57
    6ffc:	03878593          	addi	a1,a5,56
    7000:	00369693          	slli	a3,a3,0x3
    7004:	ec5ff06f          	j	6ec8 <_malloc_r+0x478>
    7008:	11340e63          	beq	s0,s3,7124 <_malloc_r+0x6d4>
    700c:	0089a403          	lw	s0,8(s3)
    7010:	00442a83          	lw	s5,4(s0)
    7014:	ffcafa93          	andi	s5,s5,-4
    7018:	409a87b3          	sub	a5,s5,s1
    701c:	009ae663          	bltu	s5,s1,7028 <_malloc_r+0x5d8>
    7020:	00f00713          	li	a4,15
    7024:	e4f748e3          	blt	a4,a5,6e74 <_malloc_r+0x424>
    7028:	00090513          	mv	a0,s2
    702c:	40c000ef          	jal	ra,7438 <__malloc_unlock>
    7030:	00000513          	li	a0,0
    7034:	c5dff06f          	j	6c90 <_malloc_r+0x240>
    7038:	05c78613          	addi	a2,a5,92
    703c:	05b78513          	addi	a0,a5,91
    7040:	00361693          	slli	a3,a2,0x3
    7044:	aedff06f          	j	6b30 <_malloc_r+0xe0>
    7048:	00832783          	lw	a5,8(t1)
    704c:	fff60613          	addi	a2,a2,-1
    7050:	1c679263          	bne	a5,t1,7214 <_malloc_r+0x7c4>
    7054:	00367793          	andi	a5,a2,3
    7058:	ff830313          	addi	t1,t1,-8
    705c:	fe0796e3          	bnez	a5,7048 <_malloc_r+0x5f8>
    7060:	0049a703          	lw	a4,4(s3)
    7064:	fff5c793          	not	a5,a1
    7068:	00e7f7b3          	and	a5,a5,a4
    706c:	00f9a223          	sw	a5,4(s3)
    7070:	00159593          	slli	a1,a1,0x1
    7074:	c8b7e8e3          	bltu	a5,a1,6d04 <_malloc_r+0x2b4>
    7078:	c80586e3          	beqz	a1,6d04 <_malloc_r+0x2b4>
    707c:	00f5f733          	and	a4,a1,a5
    7080:	00071a63          	bnez	a4,7094 <_malloc_r+0x644>
    7084:	00159593          	slli	a1,a1,0x1
    7088:	00f5f733          	and	a4,a1,a5
    708c:	004e0e13          	addi	t3,t3,4
    7090:	fe070ae3          	beqz	a4,7084 <_malloc_r+0x634>
    7094:	000e0613          	mv	a2,t3
    7098:	b8dff06f          	j	6c24 <_malloc_r+0x1d4>
    709c:	010a8a93          	addi	s5,s5,16
    70a0:	cb9ff06f          	j	6d58 <_malloc_r+0x308>
    70a4:	0049a503          	lw	a0,4(s3)
    70a8:	4025d593          	srai	a1,a1,0x2
    70ac:	00100713          	li	a4,1
    70b0:	00b71733          	sll	a4,a4,a1
    70b4:	00a76733          	or	a4,a4,a0
    70b8:	00e9a223          	sw	a4,4(s3)
    70bc:	e39ff06f          	j	6ef4 <_malloc_r+0x4a4>
    70c0:	015b85b3          	add	a1,s7,s5
    70c4:	40b005b3          	neg	a1,a1
    70c8:	01459593          	slli	a1,a1,0x14
    70cc:	0145da13          	srli	s4,a1,0x14
    70d0:	000a0593          	mv	a1,s4
    70d4:	00090513          	mv	a0,s2
    70d8:	56c010ef          	jal	ra,8644 <_sbrk_r>
    70dc:	fff00793          	li	a5,-1
    70e0:	d0f514e3          	bne	a0,a5,6de8 <_malloc_r+0x398>
    70e4:	00000a13          	li	s4,0
    70e8:	d09ff06f          	j	6df0 <_malloc_r+0x3a0>
    70ec:	05400713          	li	a4,84
    70f0:	08f76263          	bltu	a4,a5,7174 <_malloc_r+0x724>
    70f4:	00c55793          	srli	a5,a0,0xc
    70f8:	06f78693          	addi	a3,a5,111
    70fc:	06e78593          	addi	a1,a5,110
    7100:	00369693          	slli	a3,a3,0x3
    7104:	dc5ff06f          	j	6ec8 <_malloc_r+0x478>
    7108:	15400713          	li	a4,340
    710c:	08f76263          	bltu	a4,a5,7190 <_malloc_r+0x740>
    7110:	00f4d793          	srli	a5,s1,0xf
    7114:	07878613          	addi	a2,a5,120
    7118:	07778513          	addi	a0,a5,119
    711c:	00361693          	slli	a3,a2,0x3
    7120:	a11ff06f          	j	6b30 <_malloc_r+0xe0>
    7124:	0001ac17          	auipc	s8,0x1a
    7128:	778c0c13          	addi	s8,s8,1912 # 2189c <__malloc_current_mallinfo>
    712c:	000c2783          	lw	a5,0(s8)
    7130:	00fa87b3          	add	a5,s5,a5
    7134:	00fc2023          	sw	a5,0(s8)
    7138:	c59ff06f          	j	6d90 <_malloc_r+0x340>
    713c:	014a1713          	slli	a4,s4,0x14
    7140:	c40718e3          	bnez	a4,6d90 <_malloc_r+0x340>
    7144:	0089a403          	lw	s0,8(s3)
    7148:	015b0ab3          	add	s5,s6,s5
    714c:	001aea93          	ori	s5,s5,1
    7150:	01542223          	sw	s5,4(s0)
    7154:	cf5ff06f          	j	6e48 <_malloc_r+0x3f8>
    7158:	017ca023          	sw	s7,0(s9)
    715c:	c4dff06f          	j	6da8 <_malloc_r+0x358>
    7160:	000b8413          	mv	s0,s7
    7164:	ce5ff06f          	j	6e48 <_malloc_r+0x3f8>
    7168:	00100793          	li	a5,1
    716c:	00fba223          	sw	a5,4(s7)
    7170:	eb9ff06f          	j	7028 <_malloc_r+0x5d8>
    7174:	15400713          	li	a4,340
    7178:	06f76263          	bltu	a4,a5,71dc <_malloc_r+0x78c>
    717c:	00f55793          	srli	a5,a0,0xf
    7180:	07878693          	addi	a3,a5,120
    7184:	07778593          	addi	a1,a5,119
    7188:	00369693          	slli	a3,a3,0x3
    718c:	d3dff06f          	j	6ec8 <_malloc_r+0x478>
    7190:	55400713          	li	a4,1364
    7194:	06f76263          	bltu	a4,a5,71f8 <_malloc_r+0x7a8>
    7198:	0124d793          	srli	a5,s1,0x12
    719c:	07d78613          	addi	a2,a5,125
    71a0:	07c78513          	addi	a0,a5,124
    71a4:	00361693          	slli	a3,a2,0x3
    71a8:	989ff06f          	j	6b30 <_malloc_r+0xe0>
    71ac:	ff8c8c93          	addi	s9,s9,-8
    71b0:	019a8ab3          	add	s5,s5,s9
    71b4:	417a8ab3          	sub	s5,s5,s7
    71b8:	00000a13          	li	s4,0
    71bc:	c35ff06f          	j	6df0 <_malloc_r+0x3a0>
    71c0:	00840593          	addi	a1,s0,8
    71c4:	00090513          	mv	a0,s2
    71c8:	cb8fc0ef          	jal	ra,3680 <_free_r>
    71cc:	0089a403          	lw	s0,8(s3)
    71d0:	000c2583          	lw	a1,0(s8)
    71d4:	00442a83          	lw	s5,4(s0)
    71d8:	c71ff06f          	j	6e48 <_malloc_r+0x3f8>
    71dc:	55400713          	li	a4,1364
    71e0:	02f76463          	bltu	a4,a5,7208 <_malloc_r+0x7b8>
    71e4:	01255793          	srli	a5,a0,0x12
    71e8:	07d78693          	addi	a3,a5,125
    71ec:	07c78593          	addi	a1,a5,124
    71f0:	00369693          	slli	a3,a3,0x3
    71f4:	cd5ff06f          	j	6ec8 <_malloc_r+0x478>
    71f8:	3f800693          	li	a3,1016
    71fc:	07f00613          	li	a2,127
    7200:	07e00513          	li	a0,126
    7204:	92dff06f          	j	6b30 <_malloc_r+0xe0>
    7208:	3f800693          	li	a3,1016
    720c:	07e00593          	li	a1,126
    7210:	cb9ff06f          	j	6ec8 <_malloc_r+0x478>
    7214:	0049a783          	lw	a5,4(s3)
    7218:	e59ff06f          	j	7070 <_malloc_r+0x620>

0000721c <_mbtowc_r>:
    721c:	0001a797          	auipc	a5,0x1a
    7220:	1d87a783          	lw	a5,472(a5) # 213f4 <__global_locale+0xe4>
    7224:	00078067          	jr	a5

00007228 <__ascii_mbtowc>:
    7228:	02058063          	beqz	a1,7248 <__ascii_mbtowc+0x20>
    722c:	04060263          	beqz	a2,7270 <__ascii_mbtowc+0x48>
    7230:	04068863          	beqz	a3,7280 <__ascii_mbtowc+0x58>
    7234:	00064783          	lbu	a5,0(a2)
    7238:	00f5a023          	sw	a5,0(a1)
    723c:	00064503          	lbu	a0,0(a2)
    7240:	00a03533          	snez	a0,a0
    7244:	00008067          	ret
    7248:	ff010113          	addi	sp,sp,-16
    724c:	00c10593          	addi	a1,sp,12
    7250:	02060463          	beqz	a2,7278 <__ascii_mbtowc+0x50>
    7254:	02068a63          	beqz	a3,7288 <__ascii_mbtowc+0x60>
    7258:	00064783          	lbu	a5,0(a2)
    725c:	00f5a023          	sw	a5,0(a1)
    7260:	00064503          	lbu	a0,0(a2)
    7264:	00a03533          	snez	a0,a0
    7268:	01010113          	addi	sp,sp,16
    726c:	00008067          	ret
    7270:	00000513          	li	a0,0
    7274:	00008067          	ret
    7278:	00000513          	li	a0,0
    727c:	fedff06f          	j	7268 <__ascii_mbtowc+0x40>
    7280:	ffe00513          	li	a0,-2
    7284:	00008067          	ret
    7288:	ffe00513          	li	a0,-2
    728c:	fddff06f          	j	7268 <__ascii_mbtowc+0x40>

00007290 <memchr>:
    7290:	00357793          	andi	a5,a0,3
    7294:	0ff5f693          	zext.b	a3,a1
    7298:	02078a63          	beqz	a5,72cc <memchr+0x3c>
    729c:	fff60793          	addi	a5,a2,-1
    72a0:	02060e63          	beqz	a2,72dc <memchr+0x4c>
    72a4:	fff00613          	li	a2,-1
    72a8:	0180006f          	j	72c0 <memchr+0x30>
    72ac:	00150513          	addi	a0,a0,1
    72b0:	00357713          	andi	a4,a0,3
    72b4:	00070e63          	beqz	a4,72d0 <memchr+0x40>
    72b8:	fff78793          	addi	a5,a5,-1
    72bc:	02c78063          	beq	a5,a2,72dc <memchr+0x4c>
    72c0:	00054703          	lbu	a4,0(a0)
    72c4:	fed714e3          	bne	a4,a3,72ac <memchr+0x1c>
    72c8:	00008067          	ret
    72cc:	00060793          	mv	a5,a2
    72d0:	00300713          	li	a4,3
    72d4:	02f76663          	bltu	a4,a5,7300 <memchr+0x70>
    72d8:	00079663          	bnez	a5,72e4 <memchr+0x54>
    72dc:	00000513          	li	a0,0
    72e0:	00008067          	ret
    72e4:	00f507b3          	add	a5,a0,a5
    72e8:	00c0006f          	j	72f4 <memchr+0x64>
    72ec:	00150513          	addi	a0,a0,1
    72f0:	fea786e3          	beq	a5,a0,72dc <memchr+0x4c>
    72f4:	00054703          	lbu	a4,0(a0)
    72f8:	fed71ae3          	bne	a4,a3,72ec <memchr+0x5c>
    72fc:	00008067          	ret
    7300:	0ff5f593          	zext.b	a1,a1
    7304:	00859893          	slli	a7,a1,0x8
    7308:	00b8e5b3          	or	a1,a7,a1
    730c:	01059893          	slli	a7,a1,0x10
    7310:	00b8e8b3          	or	a7,a7,a1
    7314:	feff0837          	lui	a6,0xfeff0
    7318:	808085b7          	lui	a1,0x80808
    731c:	eff80813          	addi	a6,a6,-257 # fefefeff <_stack+0xfefafeff>
    7320:	08058593          	addi	a1,a1,128 # 80808080 <_stack+0x807c8080>
    7324:	00300313          	li	t1,3
    7328:	00052703          	lw	a4,0(a0)
    732c:	00e8c733          	xor	a4,a7,a4
    7330:	01070633          	add	a2,a4,a6
    7334:	fff74713          	not	a4,a4
    7338:	00e67733          	and	a4,a2,a4
    733c:	00b77733          	and	a4,a4,a1
    7340:	fa0712e3          	bnez	a4,72e4 <memchr+0x54>
    7344:	ffc78793          	addi	a5,a5,-4
    7348:	00450513          	addi	a0,a0,4
    734c:	fcf36ee3          	bltu	t1,a5,7328 <memchr+0x98>
    7350:	f8079ae3          	bnez	a5,72e4 <memchr+0x54>
    7354:	f89ff06f          	j	72dc <memchr+0x4c>

00007358 <memset>:
    7358:	00f00313          	li	t1,15
    735c:	00050713          	mv	a4,a0
    7360:	02c37e63          	bgeu	t1,a2,739c <memset+0x44>
    7364:	00f77793          	andi	a5,a4,15
    7368:	0a079063          	bnez	a5,7408 <memset+0xb0>
    736c:	08059263          	bnez	a1,73f0 <memset+0x98>
    7370:	ff067693          	andi	a3,a2,-16
    7374:	00f67613          	andi	a2,a2,15
    7378:	00e686b3          	add	a3,a3,a4
    737c:	00b72023          	sw	a1,0(a4)
    7380:	00b72223          	sw	a1,4(a4)
    7384:	00b72423          	sw	a1,8(a4)
    7388:	00b72623          	sw	a1,12(a4)
    738c:	01070713          	addi	a4,a4,16
    7390:	fed766e3          	bltu	a4,a3,737c <memset+0x24>
    7394:	00061463          	bnez	a2,739c <memset+0x44>
    7398:	00008067          	ret
    739c:	40c306b3          	sub	a3,t1,a2
    73a0:	00269693          	slli	a3,a3,0x2
    73a4:	00000297          	auipc	t0,0x0
    73a8:	005686b3          	add	a3,a3,t0
    73ac:	00c68067          	jr	12(a3)
    73b0:	00b70723          	sb	a1,14(a4)
    73b4:	00b706a3          	sb	a1,13(a4)
    73b8:	00b70623          	sb	a1,12(a4)
    73bc:	00b705a3          	sb	a1,11(a4)
    73c0:	00b70523          	sb	a1,10(a4)
    73c4:	00b704a3          	sb	a1,9(a4)
    73c8:	00b70423          	sb	a1,8(a4)
    73cc:	00b703a3          	sb	a1,7(a4)
    73d0:	00b70323          	sb	a1,6(a4)
    73d4:	00b702a3          	sb	a1,5(a4)
    73d8:	00b70223          	sb	a1,4(a4)
    73dc:	00b701a3          	sb	a1,3(a4)
    73e0:	00b70123          	sb	a1,2(a4)
    73e4:	00b700a3          	sb	a1,1(a4)
    73e8:	00b70023          	sb	a1,0(a4)
    73ec:	00008067          	ret
    73f0:	0ff5f593          	zext.b	a1,a1
    73f4:	00859693          	slli	a3,a1,0x8
    73f8:	00d5e5b3          	or	a1,a1,a3
    73fc:	01059693          	slli	a3,a1,0x10
    7400:	00d5e5b3          	or	a1,a1,a3
    7404:	f6dff06f          	j	7370 <memset+0x18>
    7408:	00279693          	slli	a3,a5,0x2
    740c:	00000297          	auipc	t0,0x0
    7410:	005686b3          	add	a3,a3,t0
    7414:	00008293          	mv	t0,ra
    7418:	fa0680e7          	jalr	-96(a3)
    741c:	00028093          	mv	ra,t0
    7420:	ff078793          	addi	a5,a5,-16
    7424:	40f70733          	sub	a4,a4,a5
    7428:	00f60633          	add	a2,a2,a5
    742c:	f6c378e3          	bgeu	t1,a2,739c <memset+0x44>
    7430:	f3dff06f          	j	736c <memset+0x14>

00007434 <__malloc_lock>:
    7434:	00008067          	ret

00007438 <__malloc_unlock>:
    7438:	00008067          	ret

0000743c <_Balloc>:
    743c:	04c52783          	lw	a5,76(a0)
    7440:	ff010113          	addi	sp,sp,-16
    7444:	00812423          	sw	s0,8(sp)
    7448:	00912223          	sw	s1,4(sp)
    744c:	00112623          	sw	ra,12(sp)
    7450:	01212023          	sw	s2,0(sp)
    7454:	00050413          	mv	s0,a0
    7458:	00058493          	mv	s1,a1
    745c:	02078e63          	beqz	a5,7498 <_Balloc+0x5c>
    7460:	00249513          	slli	a0,s1,0x2
    7464:	00a787b3          	add	a5,a5,a0
    7468:	0007a503          	lw	a0,0(a5)
    746c:	04050663          	beqz	a0,74b8 <_Balloc+0x7c>
    7470:	00052703          	lw	a4,0(a0)
    7474:	00e7a023          	sw	a4,0(a5)
    7478:	00052823          	sw	zero,16(a0)
    747c:	00052623          	sw	zero,12(a0)
    7480:	00c12083          	lw	ra,12(sp)
    7484:	00812403          	lw	s0,8(sp)
    7488:	00412483          	lw	s1,4(sp)
    748c:	00012903          	lw	s2,0(sp)
    7490:	01010113          	addi	sp,sp,16
    7494:	00008067          	ret
    7498:	02100613          	li	a2,33
    749c:	00400593          	li	a1,4
    74a0:	001050ef          	jal	ra,cca0 <_calloc_r>
    74a4:	04a42623          	sw	a0,76(s0)
    74a8:	00050793          	mv	a5,a0
    74ac:	fa051ae3          	bnez	a0,7460 <_Balloc+0x24>
    74b0:	00000513          	li	a0,0
    74b4:	fcdff06f          	j	7480 <_Balloc+0x44>
    74b8:	00100913          	li	s2,1
    74bc:	00991933          	sll	s2,s2,s1
    74c0:	00590613          	addi	a2,s2,5
    74c4:	00261613          	slli	a2,a2,0x2
    74c8:	00100593          	li	a1,1
    74cc:	00040513          	mv	a0,s0
    74d0:	7d0050ef          	jal	ra,cca0 <_calloc_r>
    74d4:	fc050ee3          	beqz	a0,74b0 <_Balloc+0x74>
    74d8:	00952223          	sw	s1,4(a0)
    74dc:	01252423          	sw	s2,8(a0)
    74e0:	f99ff06f          	j	7478 <_Balloc+0x3c>

000074e4 <_Bfree>:
    74e4:	02058063          	beqz	a1,7504 <_Bfree+0x20>
    74e8:	0045a703          	lw	a4,4(a1)
    74ec:	04c52783          	lw	a5,76(a0)
    74f0:	00271713          	slli	a4,a4,0x2
    74f4:	00e787b3          	add	a5,a5,a4
    74f8:	0007a703          	lw	a4,0(a5)
    74fc:	00e5a023          	sw	a4,0(a1)
    7500:	00b7a023          	sw	a1,0(a5)
    7504:	00008067          	ret

00007508 <__multadd>:
    7508:	fe010113          	addi	sp,sp,-32
    750c:	00912a23          	sw	s1,20(sp)
    7510:	0105a483          	lw	s1,16(a1)
    7514:	00010337          	lui	t1,0x10
    7518:	00812c23          	sw	s0,24(sp)
    751c:	01212823          	sw	s2,16(sp)
    7520:	01312623          	sw	s3,12(sp)
    7524:	00112e23          	sw	ra,28(sp)
    7528:	01412423          	sw	s4,8(sp)
    752c:	00058913          	mv	s2,a1
    7530:	00050993          	mv	s3,a0
    7534:	00068413          	mv	s0,a3
    7538:	01458813          	addi	a6,a1,20
    753c:	00000893          	li	a7,0
    7540:	fff30313          	addi	t1,t1,-1 # ffff <__udivdi3+0x3b3>
    7544:	00082783          	lw	a5,0(a6)
    7548:	00480813          	addi	a6,a6,4
    754c:	00188893          	addi	a7,a7,1
    7550:	0067f6b3          	and	a3,a5,t1
    7554:	02c686b3          	mul	a3,a3,a2
    7558:	0107d793          	srli	a5,a5,0x10
    755c:	02c787b3          	mul	a5,a5,a2
    7560:	008686b3          	add	a3,a3,s0
    7564:	0106de13          	srli	t3,a3,0x10
    7568:	0066f733          	and	a4,a3,t1
    756c:	01c786b3          	add	a3,a5,t3
    7570:	01069793          	slli	a5,a3,0x10
    7574:	00e78733          	add	a4,a5,a4
    7578:	fee82e23          	sw	a4,-4(a6)
    757c:	0106d413          	srli	s0,a3,0x10
    7580:	fc98c2e3          	blt	a7,s1,7544 <__multadd+0x3c>
    7584:	02040263          	beqz	s0,75a8 <__multadd+0xa0>
    7588:	00892783          	lw	a5,8(s2)
    758c:	04f4d063          	bge	s1,a5,75cc <__multadd+0xc4>
    7590:	00448793          	addi	a5,s1,4
    7594:	00279793          	slli	a5,a5,0x2
    7598:	00f907b3          	add	a5,s2,a5
    759c:	0087a223          	sw	s0,4(a5)
    75a0:	00148493          	addi	s1,s1,1
    75a4:	00992823          	sw	s1,16(s2)
    75a8:	01c12083          	lw	ra,28(sp)
    75ac:	01812403          	lw	s0,24(sp)
    75b0:	01412483          	lw	s1,20(sp)
    75b4:	00c12983          	lw	s3,12(sp)
    75b8:	00812a03          	lw	s4,8(sp)
    75bc:	00090513          	mv	a0,s2
    75c0:	01012903          	lw	s2,16(sp)
    75c4:	02010113          	addi	sp,sp,32
    75c8:	00008067          	ret
    75cc:	00492583          	lw	a1,4(s2)
    75d0:	00098513          	mv	a0,s3
    75d4:	00158593          	addi	a1,a1,1
    75d8:	e65ff0ef          	jal	ra,743c <_Balloc>
    75dc:	00050a13          	mv	s4,a0
    75e0:	04050c63          	beqz	a0,7638 <__multadd+0x130>
    75e4:	01092603          	lw	a2,16(s2)
    75e8:	00c90593          	addi	a1,s2,12
    75ec:	00c50513          	addi	a0,a0,12
    75f0:	00260613          	addi	a2,a2,2
    75f4:	00261613          	slli	a2,a2,0x2
    75f8:	1ac060ef          	jal	ra,d7a4 <memcpy>
    75fc:	00492703          	lw	a4,4(s2)
    7600:	04c9a783          	lw	a5,76(s3)
    7604:	00271713          	slli	a4,a4,0x2
    7608:	00e787b3          	add	a5,a5,a4
    760c:	0007a703          	lw	a4,0(a5)
    7610:	00e92023          	sw	a4,0(s2)
    7614:	0127a023          	sw	s2,0(a5)
    7618:	00448793          	addi	a5,s1,4
    761c:	000a0913          	mv	s2,s4
    7620:	00279793          	slli	a5,a5,0x2
    7624:	00f907b3          	add	a5,s2,a5
    7628:	0087a223          	sw	s0,4(a5)
    762c:	00148493          	addi	s1,s1,1
    7630:	00992823          	sw	s1,16(s2)
    7634:	f75ff06f          	j	75a8 <__multadd+0xa0>
    7638:	00019697          	auipc	a3,0x19
    763c:	c6868693          	addi	a3,a3,-920 # 202a0 <zeroes.0+0x30>
    7640:	00000613          	li	a2,0
    7644:	0b500593          	li	a1,181
    7648:	00019517          	auipc	a0,0x19
    764c:	f5450513          	addi	a0,a0,-172 # 2059c <ezero+0x24>
    7650:	5e4050ef          	jal	ra,cc34 <__assert_func>

00007654 <__s2b>:
    7654:	fe010113          	addi	sp,sp,-32
    7658:	00812c23          	sw	s0,24(sp)
    765c:	00912a23          	sw	s1,20(sp)
    7660:	01212823          	sw	s2,16(sp)
    7664:	01312623          	sw	s3,12(sp)
    7668:	01412423          	sw	s4,8(sp)
    766c:	00068993          	mv	s3,a3
    7670:	00900793          	li	a5,9
    7674:	00868693          	addi	a3,a3,8
    7678:	00112e23          	sw	ra,28(sp)
    767c:	01512223          	sw	s5,4(sp)
    7680:	02f6c6b3          	div	a3,a3,a5
    7684:	00050913          	mv	s2,a0
    7688:	00058413          	mv	s0,a1
    768c:	00060a13          	mv	s4,a2
    7690:	00070493          	mv	s1,a4
    7694:	0d37d863          	bge	a5,s3,7764 <__s2b+0x110>
    7698:	00100793          	li	a5,1
    769c:	00000593          	li	a1,0
    76a0:	00179793          	slli	a5,a5,0x1
    76a4:	00158593          	addi	a1,a1,1
    76a8:	fed7cce3          	blt	a5,a3,76a0 <__s2b+0x4c>
    76ac:	00090513          	mv	a0,s2
    76b0:	d8dff0ef          	jal	ra,743c <_Balloc>
    76b4:	00050593          	mv	a1,a0
    76b8:	0a050a63          	beqz	a0,776c <__s2b+0x118>
    76bc:	00100793          	li	a5,1
    76c0:	00f52823          	sw	a5,16(a0)
    76c4:	00952a23          	sw	s1,20(a0)
    76c8:	00900793          	li	a5,9
    76cc:	0947d663          	bge	a5,s4,7758 <__s2b+0x104>
    76d0:	00940a93          	addi	s5,s0,9
    76d4:	000a8493          	mv	s1,s5
    76d8:	01440433          	add	s0,s0,s4
    76dc:	0004c683          	lbu	a3,0(s1)
    76e0:	00a00613          	li	a2,10
    76e4:	00090513          	mv	a0,s2
    76e8:	fd068693          	addi	a3,a3,-48
    76ec:	e1dff0ef          	jal	ra,7508 <__multadd>
    76f0:	00148493          	addi	s1,s1,1
    76f4:	00050593          	mv	a1,a0
    76f8:	fe8492e3          	bne	s1,s0,76dc <__s2b+0x88>
    76fc:	ff8a0413          	addi	s0,s4,-8
    7700:	008a8433          	add	s0,s5,s0
    7704:	033a5663          	bge	s4,s3,7730 <__s2b+0xdc>
    7708:	414989b3          	sub	s3,s3,s4
    770c:	013409b3          	add	s3,s0,s3
    7710:	00044683          	lbu	a3,0(s0)
    7714:	00a00613          	li	a2,10
    7718:	00090513          	mv	a0,s2
    771c:	fd068693          	addi	a3,a3,-48
    7720:	de9ff0ef          	jal	ra,7508 <__multadd>
    7724:	00140413          	addi	s0,s0,1
    7728:	00050593          	mv	a1,a0
    772c:	fe8992e3          	bne	s3,s0,7710 <__s2b+0xbc>
    7730:	01c12083          	lw	ra,28(sp)
    7734:	01812403          	lw	s0,24(sp)
    7738:	01412483          	lw	s1,20(sp)
    773c:	01012903          	lw	s2,16(sp)
    7740:	00c12983          	lw	s3,12(sp)
    7744:	00812a03          	lw	s4,8(sp)
    7748:	00412a83          	lw	s5,4(sp)
    774c:	00058513          	mv	a0,a1
    7750:	02010113          	addi	sp,sp,32
    7754:	00008067          	ret
    7758:	00a40413          	addi	s0,s0,10
    775c:	00900a13          	li	s4,9
    7760:	fa5ff06f          	j	7704 <__s2b+0xb0>
    7764:	00000593          	li	a1,0
    7768:	f45ff06f          	j	76ac <__s2b+0x58>
    776c:	00019697          	auipc	a3,0x19
    7770:	b3468693          	addi	a3,a3,-1228 # 202a0 <zeroes.0+0x30>
    7774:	00000613          	li	a2,0
    7778:	0ce00593          	li	a1,206
    777c:	00019517          	auipc	a0,0x19
    7780:	e2050513          	addi	a0,a0,-480 # 2059c <ezero+0x24>
    7784:	4b0050ef          	jal	ra,cc34 <__assert_func>

00007788 <__hi0bits>:
    7788:	ffff0737          	lui	a4,0xffff0
    778c:	00e57733          	and	a4,a0,a4
    7790:	00050793          	mv	a5,a0
    7794:	00000513          	li	a0,0
    7798:	00071663          	bnez	a4,77a4 <__hi0bits+0x1c>
    779c:	01079793          	slli	a5,a5,0x10
    77a0:	01000513          	li	a0,16
    77a4:	ff000737          	lui	a4,0xff000
    77a8:	00e7f733          	and	a4,a5,a4
    77ac:	00071663          	bnez	a4,77b8 <__hi0bits+0x30>
    77b0:	00850513          	addi	a0,a0,8
    77b4:	00879793          	slli	a5,a5,0x8
    77b8:	f0000737          	lui	a4,0xf0000
    77bc:	00e7f733          	and	a4,a5,a4
    77c0:	00071663          	bnez	a4,77cc <__hi0bits+0x44>
    77c4:	00450513          	addi	a0,a0,4
    77c8:	00479793          	slli	a5,a5,0x4
    77cc:	c0000737          	lui	a4,0xc0000
    77d0:	00e7f733          	and	a4,a5,a4
    77d4:	00071663          	bnez	a4,77e0 <__hi0bits+0x58>
    77d8:	00250513          	addi	a0,a0,2
    77dc:	00279793          	slli	a5,a5,0x2
    77e0:	0007ca63          	bltz	a5,77f4 <__hi0bits+0x6c>
    77e4:	40000737          	lui	a4,0x40000
    77e8:	00e7f7b3          	and	a5,a5,a4
    77ec:	00150513          	addi	a0,a0,1
    77f0:	00078463          	beqz	a5,77f8 <__hi0bits+0x70>
    77f4:	00008067          	ret
    77f8:	02000513          	li	a0,32
    77fc:	00008067          	ret

00007800 <__lo0bits>:
    7800:	00052783          	lw	a5,0(a0)
    7804:	00050713          	mv	a4,a0
    7808:	0077f693          	andi	a3,a5,7
    780c:	02068463          	beqz	a3,7834 <__lo0bits+0x34>
    7810:	0017f693          	andi	a3,a5,1
    7814:	00000513          	li	a0,0
    7818:	04069e63          	bnez	a3,7874 <__lo0bits+0x74>
    781c:	0027f693          	andi	a3,a5,2
    7820:	0a068863          	beqz	a3,78d0 <__lo0bits+0xd0>
    7824:	0017d793          	srli	a5,a5,0x1
    7828:	00f72023          	sw	a5,0(a4) # 40000000 <_stack+0x3ffc0000>
    782c:	00100513          	li	a0,1
    7830:	00008067          	ret
    7834:	01079693          	slli	a3,a5,0x10
    7838:	0106d693          	srli	a3,a3,0x10
    783c:	00000513          	li	a0,0
    7840:	06068e63          	beqz	a3,78bc <__lo0bits+0xbc>
    7844:	0ff7f693          	zext.b	a3,a5
    7848:	06068063          	beqz	a3,78a8 <__lo0bits+0xa8>
    784c:	00f7f693          	andi	a3,a5,15
    7850:	04068263          	beqz	a3,7894 <__lo0bits+0x94>
    7854:	0037f693          	andi	a3,a5,3
    7858:	02068463          	beqz	a3,7880 <__lo0bits+0x80>
    785c:	0017f693          	andi	a3,a5,1
    7860:	00069c63          	bnez	a3,7878 <__lo0bits+0x78>
    7864:	0017d793          	srli	a5,a5,0x1
    7868:	00150513          	addi	a0,a0,1
    786c:	00079663          	bnez	a5,7878 <__lo0bits+0x78>
    7870:	02000513          	li	a0,32
    7874:	00008067          	ret
    7878:	00f72023          	sw	a5,0(a4)
    787c:	00008067          	ret
    7880:	0027d793          	srli	a5,a5,0x2
    7884:	0017f693          	andi	a3,a5,1
    7888:	00250513          	addi	a0,a0,2
    788c:	fe0696e3          	bnez	a3,7878 <__lo0bits+0x78>
    7890:	fd5ff06f          	j	7864 <__lo0bits+0x64>
    7894:	0047d793          	srli	a5,a5,0x4
    7898:	0037f693          	andi	a3,a5,3
    789c:	00450513          	addi	a0,a0,4
    78a0:	fa069ee3          	bnez	a3,785c <__lo0bits+0x5c>
    78a4:	fddff06f          	j	7880 <__lo0bits+0x80>
    78a8:	0087d793          	srli	a5,a5,0x8
    78ac:	00f7f693          	andi	a3,a5,15
    78b0:	00850513          	addi	a0,a0,8
    78b4:	fa0690e3          	bnez	a3,7854 <__lo0bits+0x54>
    78b8:	fddff06f          	j	7894 <__lo0bits+0x94>
    78bc:	0107d793          	srli	a5,a5,0x10
    78c0:	0ff7f693          	zext.b	a3,a5
    78c4:	01000513          	li	a0,16
    78c8:	f80692e3          	bnez	a3,784c <__lo0bits+0x4c>
    78cc:	fddff06f          	j	78a8 <__lo0bits+0xa8>
    78d0:	0027d793          	srli	a5,a5,0x2
    78d4:	00f72023          	sw	a5,0(a4)
    78d8:	00200513          	li	a0,2
    78dc:	00008067          	ret

000078e0 <__i2b>:
    78e0:	04c52783          	lw	a5,76(a0)
    78e4:	ff010113          	addi	sp,sp,-16
    78e8:	00812423          	sw	s0,8(sp)
    78ec:	00912223          	sw	s1,4(sp)
    78f0:	00112623          	sw	ra,12(sp)
    78f4:	00050413          	mv	s0,a0
    78f8:	00058493          	mv	s1,a1
    78fc:	02078c63          	beqz	a5,7934 <__i2b+0x54>
    7900:	0047a503          	lw	a0,4(a5)
    7904:	06050263          	beqz	a0,7968 <__i2b+0x88>
    7908:	00052703          	lw	a4,0(a0)
    790c:	00e7a223          	sw	a4,4(a5)
    7910:	00c12083          	lw	ra,12(sp)
    7914:	00812403          	lw	s0,8(sp)
    7918:	00100793          	li	a5,1
    791c:	00952a23          	sw	s1,20(a0)
    7920:	00052623          	sw	zero,12(a0)
    7924:	00f52823          	sw	a5,16(a0)
    7928:	00412483          	lw	s1,4(sp)
    792c:	01010113          	addi	sp,sp,16
    7930:	00008067          	ret
    7934:	02100613          	li	a2,33
    7938:	00400593          	li	a1,4
    793c:	364050ef          	jal	ra,cca0 <_calloc_r>
    7940:	04a42623          	sw	a0,76(s0)
    7944:	00050793          	mv	a5,a0
    7948:	fa051ce3          	bnez	a0,7900 <__i2b+0x20>
    794c:	00019697          	auipc	a3,0x19
    7950:	95468693          	addi	a3,a3,-1708 # 202a0 <zeroes.0+0x30>
    7954:	00000613          	li	a2,0
    7958:	14000593          	li	a1,320
    795c:	00019517          	auipc	a0,0x19
    7960:	c4050513          	addi	a0,a0,-960 # 2059c <ezero+0x24>
    7964:	2d0050ef          	jal	ra,cc34 <__assert_func>
    7968:	01c00613          	li	a2,28
    796c:	00100593          	li	a1,1
    7970:	00040513          	mv	a0,s0
    7974:	32c050ef          	jal	ra,cca0 <_calloc_r>
    7978:	fc050ae3          	beqz	a0,794c <__i2b+0x6c>
    797c:	00100793          	li	a5,1
    7980:	00f52223          	sw	a5,4(a0)
    7984:	00200793          	li	a5,2
    7988:	00f52423          	sw	a5,8(a0)
    798c:	f85ff06f          	j	7910 <__i2b+0x30>

00007990 <__multiply>:
    7990:	fe010113          	addi	sp,sp,-32
    7994:	01212823          	sw	s2,16(sp)
    7998:	01312623          	sw	s3,12(sp)
    799c:	0105a903          	lw	s2,16(a1)
    79a0:	01062983          	lw	s3,16(a2)
    79a4:	00912a23          	sw	s1,20(sp)
    79a8:	01412423          	sw	s4,8(sp)
    79ac:	00112e23          	sw	ra,28(sp)
    79b0:	00812c23          	sw	s0,24(sp)
    79b4:	00058a13          	mv	s4,a1
    79b8:	00060493          	mv	s1,a2
    79bc:	01394c63          	blt	s2,s3,79d4 <__multiply+0x44>
    79c0:	00098713          	mv	a4,s3
    79c4:	00058493          	mv	s1,a1
    79c8:	00090993          	mv	s3,s2
    79cc:	00060a13          	mv	s4,a2
    79d0:	00070913          	mv	s2,a4
    79d4:	0084a783          	lw	a5,8(s1)
    79d8:	0044a583          	lw	a1,4(s1)
    79dc:	01298433          	add	s0,s3,s2
    79e0:	0087a7b3          	slt	a5,a5,s0
    79e4:	00f585b3          	add	a1,a1,a5
    79e8:	a55ff0ef          	jal	ra,743c <_Balloc>
    79ec:	1a050e63          	beqz	a0,7ba8 <__multiply+0x218>
    79f0:	01450313          	addi	t1,a0,20
    79f4:	00241893          	slli	a7,s0,0x2
    79f8:	011308b3          	add	a7,t1,a7
    79fc:	00030793          	mv	a5,t1
    7a00:	01137863          	bgeu	t1,a7,7a10 <__multiply+0x80>
    7a04:	0007a023          	sw	zero,0(a5)
    7a08:	00478793          	addi	a5,a5,4
    7a0c:	ff17ece3          	bltu	a5,a7,7a04 <__multiply+0x74>
    7a10:	014a0813          	addi	a6,s4,20
    7a14:	00291e13          	slli	t3,s2,0x2
    7a18:	01448e93          	addi	t4,s1,20
    7a1c:	00299593          	slli	a1,s3,0x2
    7a20:	01c80e33          	add	t3,a6,t3
    7a24:	00be85b3          	add	a1,t4,a1
    7a28:	13c87663          	bgeu	a6,t3,7b54 <__multiply+0x1c4>
    7a2c:	01548793          	addi	a5,s1,21
    7a30:	00400f13          	li	t5,4
    7a34:	16f5f063          	bgeu	a1,a5,7b94 <__multiply+0x204>
    7a38:	00010637          	lui	a2,0x10
    7a3c:	fff60613          	addi	a2,a2,-1 # ffff <__udivdi3+0x3b3>
    7a40:	0180006f          	j	7a58 <__multiply+0xc8>
    7a44:	010fdf93          	srli	t6,t6,0x10
    7a48:	080f9863          	bnez	t6,7ad8 <__multiply+0x148>
    7a4c:	00480813          	addi	a6,a6,4
    7a50:	00430313          	addi	t1,t1,4
    7a54:	11c87063          	bgeu	a6,t3,7b54 <__multiply+0x1c4>
    7a58:	00082f83          	lw	t6,0(a6)
    7a5c:	00cff4b3          	and	s1,t6,a2
    7a60:	fe0482e3          	beqz	s1,7a44 <__multiply+0xb4>
    7a64:	00030393          	mv	t2,t1
    7a68:	000e8293          	mv	t0,t4
    7a6c:	00000913          	li	s2,0
    7a70:	0002a703          	lw	a4,0(t0) # 740c <memset+0xb4>
    7a74:	0003af83          	lw	t6,0(t2)
    7a78:	00438393          	addi	t2,t2,4
    7a7c:	00c776b3          	and	a3,a4,a2
    7a80:	029686b3          	mul	a3,a3,s1
    7a84:	01075793          	srli	a5,a4,0x10
    7a88:	00cff733          	and	a4,t6,a2
    7a8c:	010fdf93          	srli	t6,t6,0x10
    7a90:	00428293          	addi	t0,t0,4
    7a94:	029787b3          	mul	a5,a5,s1
    7a98:	00e686b3          	add	a3,a3,a4
    7a9c:	012686b3          	add	a3,a3,s2
    7aa0:	0106d713          	srli	a4,a3,0x10
    7aa4:	00c6f6b3          	and	a3,a3,a2
    7aa8:	01f787b3          	add	a5,a5,t6
    7aac:	00e787b3          	add	a5,a5,a4
    7ab0:	01079713          	slli	a4,a5,0x10
    7ab4:	00d766b3          	or	a3,a4,a3
    7ab8:	fed3ae23          	sw	a3,-4(t2)
    7abc:	0107d913          	srli	s2,a5,0x10
    7ac0:	fab2e8e3          	bltu	t0,a1,7a70 <__multiply+0xe0>
    7ac4:	01e307b3          	add	a5,t1,t5
    7ac8:	0127a023          	sw	s2,0(a5)
    7acc:	00082f83          	lw	t6,0(a6)
    7ad0:	010fdf93          	srli	t6,t6,0x10
    7ad4:	f60f8ce3          	beqz	t6,7a4c <__multiply+0xbc>
    7ad8:	00032703          	lw	a4,0(t1)
    7adc:	00030293          	mv	t0,t1
    7ae0:	000e8693          	mv	a3,t4
    7ae4:	00070493          	mv	s1,a4
    7ae8:	00000393          	li	t2,0
    7aec:	0006a783          	lw	a5,0(a3)
    7af0:	0104d993          	srli	s3,s1,0x10
    7af4:	00c77733          	and	a4,a4,a2
    7af8:	00c7f7b3          	and	a5,a5,a2
    7afc:	03f787b3          	mul	a5,a5,t6
    7b00:	0042a483          	lw	s1,4(t0)
    7b04:	00428293          	addi	t0,t0,4
    7b08:	00468693          	addi	a3,a3,4
    7b0c:	00c4f933          	and	s2,s1,a2
    7b10:	013787b3          	add	a5,a5,s3
    7b14:	007787b3          	add	a5,a5,t2
    7b18:	01079393          	slli	t2,a5,0x10
    7b1c:	00e3e733          	or	a4,t2,a4
    7b20:	fee2ae23          	sw	a4,-4(t0)
    7b24:	ffe6d703          	lhu	a4,-2(a3)
    7b28:	0107d793          	srli	a5,a5,0x10
    7b2c:	03f70733          	mul	a4,a4,t6
    7b30:	01270733          	add	a4,a4,s2
    7b34:	00f70733          	add	a4,a4,a5
    7b38:	01075393          	srli	t2,a4,0x10
    7b3c:	fab6e8e3          	bltu	a3,a1,7aec <__multiply+0x15c>
    7b40:	01e307b3          	add	a5,t1,t5
    7b44:	00e7a023          	sw	a4,0(a5)
    7b48:	00480813          	addi	a6,a6,4
    7b4c:	00430313          	addi	t1,t1,4
    7b50:	f1c864e3          	bltu	a6,t3,7a58 <__multiply+0xc8>
    7b54:	00804863          	bgtz	s0,7b64 <__multiply+0x1d4>
    7b58:	0180006f          	j	7b70 <__multiply+0x1e0>
    7b5c:	fff40413          	addi	s0,s0,-1
    7b60:	00040863          	beqz	s0,7b70 <__multiply+0x1e0>
    7b64:	ffc8a783          	lw	a5,-4(a7)
    7b68:	ffc88893          	addi	a7,a7,-4
    7b6c:	fe0788e3          	beqz	a5,7b5c <__multiply+0x1cc>
    7b70:	01c12083          	lw	ra,28(sp)
    7b74:	00852823          	sw	s0,16(a0)
    7b78:	01812403          	lw	s0,24(sp)
    7b7c:	01412483          	lw	s1,20(sp)
    7b80:	01012903          	lw	s2,16(sp)
    7b84:	00c12983          	lw	s3,12(sp)
    7b88:	00812a03          	lw	s4,8(sp)
    7b8c:	02010113          	addi	sp,sp,32
    7b90:	00008067          	ret
    7b94:	40958f33          	sub	t5,a1,s1
    7b98:	febf0f13          	addi	t5,t5,-21
    7b9c:	ffcf7f13          	andi	t5,t5,-4
    7ba0:	004f0f13          	addi	t5,t5,4
    7ba4:	e95ff06f          	j	7a38 <__multiply+0xa8>
    7ba8:	00018697          	auipc	a3,0x18
    7bac:	6f868693          	addi	a3,a3,1784 # 202a0 <zeroes.0+0x30>
    7bb0:	00000613          	li	a2,0
    7bb4:	15d00593          	li	a1,349
    7bb8:	00019517          	auipc	a0,0x19
    7bbc:	9e450513          	addi	a0,a0,-1564 # 2059c <ezero+0x24>
    7bc0:	074050ef          	jal	ra,cc34 <__assert_func>

00007bc4 <__pow5mult>:
    7bc4:	fe010113          	addi	sp,sp,-32
    7bc8:	00812c23          	sw	s0,24(sp)
    7bcc:	01212823          	sw	s2,16(sp)
    7bd0:	01312623          	sw	s3,12(sp)
    7bd4:	00112e23          	sw	ra,28(sp)
    7bd8:	00912a23          	sw	s1,20(sp)
    7bdc:	00367793          	andi	a5,a2,3
    7be0:	00060413          	mv	s0,a2
    7be4:	00050993          	mv	s3,a0
    7be8:	00058913          	mv	s2,a1
    7bec:	0a079e63          	bnez	a5,7ca8 <__pow5mult+0xe4>
    7bf0:	40245413          	srai	s0,s0,0x2
    7bf4:	06040663          	beqz	s0,7c60 <__pow5mult+0x9c>
    7bf8:	0489a483          	lw	s1,72(s3)
    7bfc:	0c048a63          	beqz	s1,7cd0 <__pow5mult+0x10c>
    7c00:	00147793          	andi	a5,s0,1
    7c04:	02079063          	bnez	a5,7c24 <__pow5mult+0x60>
    7c08:	40145413          	srai	s0,s0,0x1
    7c0c:	04040a63          	beqz	s0,7c60 <__pow5mult+0x9c>
    7c10:	0004a503          	lw	a0,0(s1)
    7c14:	06050663          	beqz	a0,7c80 <__pow5mult+0xbc>
    7c18:	00050493          	mv	s1,a0
    7c1c:	00147793          	andi	a5,s0,1
    7c20:	fe0784e3          	beqz	a5,7c08 <__pow5mult+0x44>
    7c24:	00048613          	mv	a2,s1
    7c28:	00090593          	mv	a1,s2
    7c2c:	00098513          	mv	a0,s3
    7c30:	d61ff0ef          	jal	ra,7990 <__multiply>
    7c34:	06090663          	beqz	s2,7ca0 <__pow5mult+0xdc>
    7c38:	00492703          	lw	a4,4(s2)
    7c3c:	04c9a783          	lw	a5,76(s3)
    7c40:	40145413          	srai	s0,s0,0x1
    7c44:	00271713          	slli	a4,a4,0x2
    7c48:	00e787b3          	add	a5,a5,a4
    7c4c:	0007a703          	lw	a4,0(a5)
    7c50:	00e92023          	sw	a4,0(s2)
    7c54:	0127a023          	sw	s2,0(a5)
    7c58:	00050913          	mv	s2,a0
    7c5c:	fa041ae3          	bnez	s0,7c10 <__pow5mult+0x4c>
    7c60:	01c12083          	lw	ra,28(sp)
    7c64:	01812403          	lw	s0,24(sp)
    7c68:	01412483          	lw	s1,20(sp)
    7c6c:	00c12983          	lw	s3,12(sp)
    7c70:	00090513          	mv	a0,s2
    7c74:	01012903          	lw	s2,16(sp)
    7c78:	02010113          	addi	sp,sp,32
    7c7c:	00008067          	ret
    7c80:	00048613          	mv	a2,s1
    7c84:	00048593          	mv	a1,s1
    7c88:	00098513          	mv	a0,s3
    7c8c:	d05ff0ef          	jal	ra,7990 <__multiply>
    7c90:	00a4a023          	sw	a0,0(s1)
    7c94:	00052023          	sw	zero,0(a0)
    7c98:	00050493          	mv	s1,a0
    7c9c:	f81ff06f          	j	7c1c <__pow5mult+0x58>
    7ca0:	00050913          	mv	s2,a0
    7ca4:	f65ff06f          	j	7c08 <__pow5mult+0x44>
    7ca8:	fff78793          	addi	a5,a5,-1
    7cac:	00019717          	auipc	a4,0x19
    7cb0:	a8470713          	addi	a4,a4,-1404 # 20730 <p05.0>
    7cb4:	00279793          	slli	a5,a5,0x2
    7cb8:	00f707b3          	add	a5,a4,a5
    7cbc:	0007a603          	lw	a2,0(a5)
    7cc0:	00000693          	li	a3,0
    7cc4:	845ff0ef          	jal	ra,7508 <__multadd>
    7cc8:	00050913          	mv	s2,a0
    7ccc:	f25ff06f          	j	7bf0 <__pow5mult+0x2c>
    7cd0:	00100593          	li	a1,1
    7cd4:	00098513          	mv	a0,s3
    7cd8:	f64ff0ef          	jal	ra,743c <_Balloc>
    7cdc:	00050493          	mv	s1,a0
    7ce0:	02050063          	beqz	a0,7d00 <__pow5mult+0x13c>
    7ce4:	27100793          	li	a5,625
    7ce8:	00f52a23          	sw	a5,20(a0)
    7cec:	00100793          	li	a5,1
    7cf0:	00f52823          	sw	a5,16(a0)
    7cf4:	04a9a423          	sw	a0,72(s3)
    7cf8:	00052023          	sw	zero,0(a0)
    7cfc:	f05ff06f          	j	7c00 <__pow5mult+0x3c>
    7d00:	00018697          	auipc	a3,0x18
    7d04:	5a068693          	addi	a3,a3,1440 # 202a0 <zeroes.0+0x30>
    7d08:	00000613          	li	a2,0
    7d0c:	14000593          	li	a1,320
    7d10:	00019517          	auipc	a0,0x19
    7d14:	88c50513          	addi	a0,a0,-1908 # 2059c <ezero+0x24>
    7d18:	71d040ef          	jal	ra,cc34 <__assert_func>

00007d1c <__lshift>:
    7d1c:	fe010113          	addi	sp,sp,-32
    7d20:	01412423          	sw	s4,8(sp)
    7d24:	0105aa03          	lw	s4,16(a1)
    7d28:	0085a783          	lw	a5,8(a1)
    7d2c:	01312623          	sw	s3,12(sp)
    7d30:	40565993          	srai	s3,a2,0x5
    7d34:	01498a33          	add	s4,s3,s4
    7d38:	00812c23          	sw	s0,24(sp)
    7d3c:	00912a23          	sw	s1,20(sp)
    7d40:	01212823          	sw	s2,16(sp)
    7d44:	01512223          	sw	s5,4(sp)
    7d48:	00112e23          	sw	ra,28(sp)
    7d4c:	001a0913          	addi	s2,s4,1
    7d50:	00058493          	mv	s1,a1
    7d54:	00060413          	mv	s0,a2
    7d58:	0045a583          	lw	a1,4(a1)
    7d5c:	00050a93          	mv	s5,a0
    7d60:	0127d863          	bge	a5,s2,7d70 <__lshift+0x54>
    7d64:	00179793          	slli	a5,a5,0x1
    7d68:	00158593          	addi	a1,a1,1
    7d6c:	ff27cce3          	blt	a5,s2,7d64 <__lshift+0x48>
    7d70:	000a8513          	mv	a0,s5
    7d74:	ec8ff0ef          	jal	ra,743c <_Balloc>
    7d78:	10050c63          	beqz	a0,7e90 <__lshift+0x174>
    7d7c:	01450813          	addi	a6,a0,20
    7d80:	03305463          	blez	s3,7da8 <__lshift+0x8c>
    7d84:	00598993          	addi	s3,s3,5
    7d88:	00299993          	slli	s3,s3,0x2
    7d8c:	01350733          	add	a4,a0,s3
    7d90:	00080793          	mv	a5,a6
    7d94:	00478793          	addi	a5,a5,4
    7d98:	fe07ae23          	sw	zero,-4(a5)
    7d9c:	fee79ce3          	bne	a5,a4,7d94 <__lshift+0x78>
    7da0:	fec98993          	addi	s3,s3,-20
    7da4:	01380833          	add	a6,a6,s3
    7da8:	0104a603          	lw	a2,16(s1)
    7dac:	01448793          	addi	a5,s1,20
    7db0:	01f47313          	andi	t1,s0,31
    7db4:	00261613          	slli	a2,a2,0x2
    7db8:	00c78633          	add	a2,a5,a2
    7dbc:	0a030463          	beqz	t1,7e64 <__lshift+0x148>
    7dc0:	02000593          	li	a1,32
    7dc4:	406585b3          	sub	a1,a1,t1
    7dc8:	00080893          	mv	a7,a6
    7dcc:	00000693          	li	a3,0
    7dd0:	0007a703          	lw	a4,0(a5)
    7dd4:	00488893          	addi	a7,a7,4
    7dd8:	00478793          	addi	a5,a5,4
    7ddc:	00671733          	sll	a4,a4,t1
    7de0:	00d76733          	or	a4,a4,a3
    7de4:	fee8ae23          	sw	a4,-4(a7)
    7de8:	ffc7a703          	lw	a4,-4(a5)
    7dec:	00b756b3          	srl	a3,a4,a1
    7df0:	fec7e0e3          	bltu	a5,a2,7dd0 <__lshift+0xb4>
    7df4:	01548713          	addi	a4,s1,21
    7df8:	00400793          	li	a5,4
    7dfc:	00e66a63          	bltu	a2,a4,7e10 <__lshift+0xf4>
    7e00:	409607b3          	sub	a5,a2,s1
    7e04:	feb78793          	addi	a5,a5,-21
    7e08:	ffc7f793          	andi	a5,a5,-4
    7e0c:	00478793          	addi	a5,a5,4
    7e10:	00f80833          	add	a6,a6,a5
    7e14:	00d82023          	sw	a3,0(a6)
    7e18:	00068463          	beqz	a3,7e20 <__lshift+0x104>
    7e1c:	00090a13          	mv	s4,s2
    7e20:	0044a703          	lw	a4,4(s1)
    7e24:	04caa783          	lw	a5,76(s5)
    7e28:	01c12083          	lw	ra,28(sp)
    7e2c:	00271713          	slli	a4,a4,0x2
    7e30:	00e787b3          	add	a5,a5,a4
    7e34:	0007a703          	lw	a4,0(a5)
    7e38:	01452823          	sw	s4,16(a0)
    7e3c:	01812403          	lw	s0,24(sp)
    7e40:	00e4a023          	sw	a4,0(s1)
    7e44:	0097a023          	sw	s1,0(a5)
    7e48:	01012903          	lw	s2,16(sp)
    7e4c:	01412483          	lw	s1,20(sp)
    7e50:	00c12983          	lw	s3,12(sp)
    7e54:	00812a03          	lw	s4,8(sp)
    7e58:	00412a83          	lw	s5,4(sp)
    7e5c:	02010113          	addi	sp,sp,32
    7e60:	00008067          	ret
    7e64:	0007a703          	lw	a4,0(a5)
    7e68:	00478793          	addi	a5,a5,4
    7e6c:	00480813          	addi	a6,a6,4
    7e70:	fee82e23          	sw	a4,-4(a6)
    7e74:	fac7f6e3          	bgeu	a5,a2,7e20 <__lshift+0x104>
    7e78:	0007a703          	lw	a4,0(a5)
    7e7c:	00478793          	addi	a5,a5,4
    7e80:	00480813          	addi	a6,a6,4
    7e84:	fee82e23          	sw	a4,-4(a6)
    7e88:	fcc7eee3          	bltu	a5,a2,7e64 <__lshift+0x148>
    7e8c:	f95ff06f          	j	7e20 <__lshift+0x104>
    7e90:	00018697          	auipc	a3,0x18
    7e94:	41068693          	addi	a3,a3,1040 # 202a0 <zeroes.0+0x30>
    7e98:	00000613          	li	a2,0
    7e9c:	1d900593          	li	a1,473
    7ea0:	00018517          	auipc	a0,0x18
    7ea4:	6fc50513          	addi	a0,a0,1788 # 2059c <ezero+0x24>
    7ea8:	58d040ef          	jal	ra,cc34 <__assert_func>

00007eac <__mcmp>:
    7eac:	01052703          	lw	a4,16(a0)
    7eb0:	0105a783          	lw	a5,16(a1)
    7eb4:	00050813          	mv	a6,a0
    7eb8:	40f70533          	sub	a0,a4,a5
    7ebc:	04f71263          	bne	a4,a5,7f00 <__mcmp+0x54>
    7ec0:	00279793          	slli	a5,a5,0x2
    7ec4:	01480813          	addi	a6,a6,20
    7ec8:	01458593          	addi	a1,a1,20
    7ecc:	00f80733          	add	a4,a6,a5
    7ed0:	00f587b3          	add	a5,a1,a5
    7ed4:	0080006f          	j	7edc <__mcmp+0x30>
    7ed8:	02e87463          	bgeu	a6,a4,7f00 <__mcmp+0x54>
    7edc:	ffc72683          	lw	a3,-4(a4)
    7ee0:	ffc7a603          	lw	a2,-4(a5)
    7ee4:	ffc70713          	addi	a4,a4,-4
    7ee8:	ffc78793          	addi	a5,a5,-4
    7eec:	fec686e3          	beq	a3,a2,7ed8 <__mcmp+0x2c>
    7ef0:	00c6b6b3          	sltu	a3,a3,a2
    7ef4:	40d00533          	neg	a0,a3
    7ef8:	00156513          	ori	a0,a0,1
    7efc:	00008067          	ret
    7f00:	00008067          	ret

00007f04 <__mdiff>:
    7f04:	0105a783          	lw	a5,16(a1)
    7f08:	01062703          	lw	a4,16(a2)
    7f0c:	ff010113          	addi	sp,sp,-16
    7f10:	00812423          	sw	s0,8(sp)
    7f14:	00912223          	sw	s1,4(sp)
    7f18:	01212023          	sw	s2,0(sp)
    7f1c:	00112623          	sw	ra,12(sp)
    7f20:	00058493          	mv	s1,a1
    7f24:	00060413          	mv	s0,a2
    7f28:	40e78933          	sub	s2,a5,a4
    7f2c:	1ae79463          	bne	a5,a4,80d4 <__mdiff+0x1d0>
    7f30:	00271693          	slli	a3,a4,0x2
    7f34:	01458593          	addi	a1,a1,20
    7f38:	01460713          	addi	a4,a2,20
    7f3c:	00d587b3          	add	a5,a1,a3
    7f40:	00d70733          	add	a4,a4,a3
    7f44:	0080006f          	j	7f4c <__mdiff+0x48>
    7f48:	18f5fc63          	bgeu	a1,a5,80e0 <__mdiff+0x1dc>
    7f4c:	ffc7a603          	lw	a2,-4(a5)
    7f50:	ffc72683          	lw	a3,-4(a4)
    7f54:	ffc78793          	addi	a5,a5,-4
    7f58:	ffc70713          	addi	a4,a4,-4
    7f5c:	fed606e3          	beq	a2,a3,7f48 <__mdiff+0x44>
    7f60:	16d66063          	bltu	a2,a3,80c0 <__mdiff+0x1bc>
    7f64:	0044a583          	lw	a1,4(s1)
    7f68:	cd4ff0ef          	jal	ra,743c <_Balloc>
    7f6c:	1a050263          	beqz	a0,8110 <__mdiff+0x20c>
    7f70:	0104ae03          	lw	t3,16(s1)
    7f74:	01042283          	lw	t0,16(s0)
    7f78:	01448493          	addi	s1,s1,20
    7f7c:	002e1e93          	slli	t4,t3,0x2
    7f80:	01440813          	addi	a6,s0,20
    7f84:	00229293          	slli	t0,t0,0x2
    7f88:	01450f93          	addi	t6,a0,20
    7f8c:	000108b7          	lui	a7,0x10
    7f90:	01252623          	sw	s2,12(a0)
    7f94:	01d48eb3          	add	t4,s1,t4
    7f98:	005802b3          	add	t0,a6,t0
    7f9c:	000f8f13          	mv	t5,t6
    7fa0:	00048313          	mv	t1,s1
    7fa4:	00000793          	li	a5,0
    7fa8:	fff88893          	addi	a7,a7,-1 # ffff <__udivdi3+0x3b3>
    7fac:	00032703          	lw	a4,0(t1)
    7fb0:	00082583          	lw	a1,0(a6)
    7fb4:	004f0f13          	addi	t5,t5,4
    7fb8:	011776b3          	and	a3,a4,a7
    7fbc:	00f686b3          	add	a3,a3,a5
    7fc0:	0115f7b3          	and	a5,a1,a7
    7fc4:	40f686b3          	sub	a3,a3,a5
    7fc8:	0105d593          	srli	a1,a1,0x10
    7fcc:	01075793          	srli	a5,a4,0x10
    7fd0:	40b787b3          	sub	a5,a5,a1
    7fd4:	4106d713          	srai	a4,a3,0x10
    7fd8:	00e787b3          	add	a5,a5,a4
    7fdc:	01079713          	slli	a4,a5,0x10
    7fe0:	0116f6b3          	and	a3,a3,a7
    7fe4:	00d766b3          	or	a3,a4,a3
    7fe8:	00480813          	addi	a6,a6,4
    7fec:	fedf2e23          	sw	a3,-4(t5)
    7ff0:	00430313          	addi	t1,t1,4
    7ff4:	4107d793          	srai	a5,a5,0x10
    7ff8:	fa586ae3          	bltu	a6,t0,7fac <__mdiff+0xa8>
    7ffc:	408285b3          	sub	a1,t0,s0
    8000:	feb58593          	addi	a1,a1,-21
    8004:	01540413          	addi	s0,s0,21
    8008:	0025d593          	srli	a1,a1,0x2
    800c:	00000713          	li	a4,0
    8010:	0082e463          	bltu	t0,s0,8018 <__mdiff+0x114>
    8014:	00259713          	slli	a4,a1,0x2
    8018:	00ef8733          	add	a4,t6,a4
    801c:	00400813          	li	a6,4
    8020:	0082e663          	bltu	t0,s0,802c <__mdiff+0x128>
    8024:	00158593          	addi	a1,a1,1
    8028:	00259813          	slli	a6,a1,0x2
    802c:	010484b3          	add	s1,s1,a6
    8030:	010f8fb3          	add	t6,t6,a6
    8034:	05d4fe63          	bgeu	s1,t4,8090 <__mdiff+0x18c>
    8038:	000108b7          	lui	a7,0x10
    803c:	000f8813          	mv	a6,t6
    8040:	00048593          	mv	a1,s1
    8044:	fff88893          	addi	a7,a7,-1 # ffff <__udivdi3+0x3b3>
    8048:	0005a703          	lw	a4,0(a1)
    804c:	00480813          	addi	a6,a6,4
    8050:	00458593          	addi	a1,a1,4
    8054:	01177633          	and	a2,a4,a7
    8058:	00f60633          	add	a2,a2,a5
    805c:	41065693          	srai	a3,a2,0x10
    8060:	01075793          	srli	a5,a4,0x10
    8064:	00d787b3          	add	a5,a5,a3
    8068:	01079693          	slli	a3,a5,0x10
    806c:	01167633          	and	a2,a2,a7
    8070:	00c6e6b3          	or	a3,a3,a2
    8074:	fed82e23          	sw	a3,-4(a6)
    8078:	4107d793          	srai	a5,a5,0x10
    807c:	fdd5e6e3          	bltu	a1,t4,8048 <__mdiff+0x144>
    8080:	fffe8713          	addi	a4,t4,-1
    8084:	40970733          	sub	a4,a4,s1
    8088:	ffc77713          	andi	a4,a4,-4
    808c:	00ef8733          	add	a4,t6,a4
    8090:	00069a63          	bnez	a3,80a4 <__mdiff+0x1a0>
    8094:	ffc72783          	lw	a5,-4(a4)
    8098:	fffe0e13          	addi	t3,t3,-1
    809c:	ffc70713          	addi	a4,a4,-4
    80a0:	fe078ae3          	beqz	a5,8094 <__mdiff+0x190>
    80a4:	00c12083          	lw	ra,12(sp)
    80a8:	00812403          	lw	s0,8(sp)
    80ac:	01c52823          	sw	t3,16(a0)
    80b0:	00412483          	lw	s1,4(sp)
    80b4:	00012903          	lw	s2,0(sp)
    80b8:	01010113          	addi	sp,sp,16
    80bc:	00008067          	ret
    80c0:	00048793          	mv	a5,s1
    80c4:	00100913          	li	s2,1
    80c8:	00040493          	mv	s1,s0
    80cc:	00078413          	mv	s0,a5
    80d0:	e95ff06f          	j	7f64 <__mdiff+0x60>
    80d4:	fe0946e3          	bltz	s2,80c0 <__mdiff+0x1bc>
    80d8:	00000913          	li	s2,0
    80dc:	e89ff06f          	j	7f64 <__mdiff+0x60>
    80e0:	00000593          	li	a1,0
    80e4:	b58ff0ef          	jal	ra,743c <_Balloc>
    80e8:	04050263          	beqz	a0,812c <__mdiff+0x228>
    80ec:	00c12083          	lw	ra,12(sp)
    80f0:	00812403          	lw	s0,8(sp)
    80f4:	00100793          	li	a5,1
    80f8:	00f52823          	sw	a5,16(a0)
    80fc:	00052a23          	sw	zero,20(a0)
    8100:	00412483          	lw	s1,4(sp)
    8104:	00012903          	lw	s2,0(sp)
    8108:	01010113          	addi	sp,sp,16
    810c:	00008067          	ret
    8110:	00018697          	auipc	a3,0x18
    8114:	19068693          	addi	a3,a3,400 # 202a0 <zeroes.0+0x30>
    8118:	00000613          	li	a2,0
    811c:	24000593          	li	a1,576
    8120:	00018517          	auipc	a0,0x18
    8124:	47c50513          	addi	a0,a0,1148 # 2059c <ezero+0x24>
    8128:	30d040ef          	jal	ra,cc34 <__assert_func>
    812c:	00018697          	auipc	a3,0x18
    8130:	17468693          	addi	a3,a3,372 # 202a0 <zeroes.0+0x30>
    8134:	00000613          	li	a2,0
    8138:	23200593          	li	a1,562
    813c:	00018517          	auipc	a0,0x18
    8140:	46050513          	addi	a0,a0,1120 # 2059c <ezero+0x24>
    8144:	2f1040ef          	jal	ra,cc34 <__assert_func>

00008148 <__ulp>:
    8148:	7ff007b7          	lui	a5,0x7ff00
    814c:	00b7f5b3          	and	a1,a5,a1
    8150:	fcc007b7          	lui	a5,0xfcc00
    8154:	00f585b3          	add	a1,a1,a5
    8158:	00b05863          	blez	a1,8168 <__ulp+0x20>
    815c:	00000793          	li	a5,0
    8160:	00078513          	mv	a0,a5
    8164:	00008067          	ret
    8168:	40b005b3          	neg	a1,a1
    816c:	4145d593          	srai	a1,a1,0x14
    8170:	01300793          	li	a5,19
    8174:	00b7c863          	blt	a5,a1,8184 <__ulp+0x3c>
    8178:	000807b7          	lui	a5,0x80
    817c:	40b7d5b3          	sra	a1,a5,a1
    8180:	fddff06f          	j	815c <__ulp+0x14>
    8184:	fec58713          	addi	a4,a1,-20
    8188:	01e00693          	li	a3,30
    818c:	00000593          	li	a1,0
    8190:	00100793          	li	a5,1
    8194:	fce6c6e3          	blt	a3,a4,8160 <__ulp+0x18>
    8198:	800007b7          	lui	a5,0x80000
    819c:	00e7d7b3          	srl	a5,a5,a4
    81a0:	00078513          	mv	a0,a5
    81a4:	00008067          	ret

000081a8 <__b2d>:
    81a8:	fe010113          	addi	sp,sp,-32
    81ac:	00912a23          	sw	s1,20(sp)
    81b0:	01052483          	lw	s1,16(a0)
    81b4:	00812c23          	sw	s0,24(sp)
    81b8:	01450413          	addi	s0,a0,20
    81bc:	00249493          	slli	s1,s1,0x2
    81c0:	009404b3          	add	s1,s0,s1
    81c4:	01212823          	sw	s2,16(sp)
    81c8:	ffc4a903          	lw	s2,-4(s1)
    81cc:	01312623          	sw	s3,12(sp)
    81d0:	01412423          	sw	s4,8(sp)
    81d4:	00090513          	mv	a0,s2
    81d8:	00058993          	mv	s3,a1
    81dc:	00112e23          	sw	ra,28(sp)
    81e0:	da8ff0ef          	jal	ra,7788 <__hi0bits>
    81e4:	02000713          	li	a4,32
    81e8:	40a707b3          	sub	a5,a4,a0
    81ec:	00f9a023          	sw	a5,0(s3)
    81f0:	00a00793          	li	a5,10
    81f4:	ffc48a13          	addi	s4,s1,-4
    81f8:	08a7d063          	bge	a5,a0,8278 <__b2d+0xd0>
    81fc:	ff550513          	addi	a0,a0,-11
    8200:	05447063          	bgeu	s0,s4,8240 <__b2d+0x98>
    8204:	ff84a783          	lw	a5,-8(s1)
    8208:	04050063          	beqz	a0,8248 <__b2d+0xa0>
    820c:	40a706b3          	sub	a3,a4,a0
    8210:	00d7d733          	srl	a4,a5,a3
    8214:	00a91933          	sll	s2,s2,a0
    8218:	00e96933          	or	s2,s2,a4
    821c:	ff848613          	addi	a2,s1,-8
    8220:	3ff00737          	lui	a4,0x3ff00
    8224:	00e96733          	or	a4,s2,a4
    8228:	00a797b3          	sll	a5,a5,a0
    822c:	02c47263          	bgeu	s0,a2,8250 <__b2d+0xa8>
    8230:	ff44a603          	lw	a2,-12(s1)
    8234:	00d656b3          	srl	a3,a2,a3
    8238:	00d7e7b3          	or	a5,a5,a3
    823c:	0140006f          	j	8250 <__b2d+0xa8>
    8240:	00000793          	li	a5,0
    8244:	06051463          	bnez	a0,82ac <__b2d+0x104>
    8248:	3ff00737          	lui	a4,0x3ff00
    824c:	00e96733          	or	a4,s2,a4
    8250:	01c12083          	lw	ra,28(sp)
    8254:	01812403          	lw	s0,24(sp)
    8258:	01412483          	lw	s1,20(sp)
    825c:	01012903          	lw	s2,16(sp)
    8260:	00c12983          	lw	s3,12(sp)
    8264:	00812a03          	lw	s4,8(sp)
    8268:	00078513          	mv	a0,a5
    826c:	00070593          	mv	a1,a4
    8270:	02010113          	addi	sp,sp,32
    8274:	00008067          	ret
    8278:	00b00693          	li	a3,11
    827c:	40a686b3          	sub	a3,a3,a0
    8280:	3ff007b7          	lui	a5,0x3ff00
    8284:	00d95733          	srl	a4,s2,a3
    8288:	00f76733          	or	a4,a4,a5
    828c:	00000793          	li	a5,0
    8290:	01447663          	bgeu	s0,s4,829c <__b2d+0xf4>
    8294:	ff84a783          	lw	a5,-8(s1)
    8298:	00d7d7b3          	srl	a5,a5,a3
    829c:	01550513          	addi	a0,a0,21
    82a0:	00a91533          	sll	a0,s2,a0
    82a4:	00f567b3          	or	a5,a0,a5
    82a8:	fa9ff06f          	j	8250 <__b2d+0xa8>
    82ac:	00a91533          	sll	a0,s2,a0
    82b0:	3ff00737          	lui	a4,0x3ff00
    82b4:	00e56733          	or	a4,a0,a4
    82b8:	00000793          	li	a5,0
    82bc:	f95ff06f          	j	8250 <__b2d+0xa8>

000082c0 <__d2b>:
    82c0:	fd010113          	addi	sp,sp,-48
    82c4:	01512a23          	sw	s5,20(sp)
    82c8:	00058a93          	mv	s5,a1
    82cc:	00100593          	li	a1,1
    82d0:	03212023          	sw	s2,32(sp)
    82d4:	01312e23          	sw	s3,28(sp)
    82d8:	01412c23          	sw	s4,24(sp)
    82dc:	02112623          	sw	ra,44(sp)
    82e0:	02812423          	sw	s0,40(sp)
    82e4:	02912223          	sw	s1,36(sp)
    82e8:	00060913          	mv	s2,a2
    82ec:	00068a13          	mv	s4,a3
    82f0:	00070993          	mv	s3,a4
    82f4:	948ff0ef          	jal	ra,743c <_Balloc>
    82f8:	10050863          	beqz	a0,8408 <__d2b+0x148>
    82fc:	001007b7          	lui	a5,0x100
    8300:	01495493          	srli	s1,s2,0x14
    8304:	fff78613          	addi	a2,a5,-1 # fffff <_stack+0xbffff>
    8308:	7ff4f493          	andi	s1,s1,2047
    830c:	00050413          	mv	s0,a0
    8310:	01267633          	and	a2,a2,s2
    8314:	00048463          	beqz	s1,831c <__d2b+0x5c>
    8318:	00f66633          	or	a2,a2,a5
    831c:	00c12623          	sw	a2,12(sp)
    8320:	080a8863          	beqz	s5,83b0 <__d2b+0xf0>
    8324:	00810513          	addi	a0,sp,8
    8328:	01512423          	sw	s5,8(sp)
    832c:	cd4ff0ef          	jal	ra,7800 <__lo0bits>
    8330:	00c12703          	lw	a4,12(sp)
    8334:	00050793          	mv	a5,a0
    8338:	0c050263          	beqz	a0,83fc <__d2b+0x13c>
    833c:	00812603          	lw	a2,8(sp)
    8340:	02000693          	li	a3,32
    8344:	40a686b3          	sub	a3,a3,a0
    8348:	00d716b3          	sll	a3,a4,a3
    834c:	00c6e6b3          	or	a3,a3,a2
    8350:	00a75733          	srl	a4,a4,a0
    8354:	00d42a23          	sw	a3,20(s0)
    8358:	00e12623          	sw	a4,12(sp)
    835c:	00e03933          	snez	s2,a4
    8360:	00190913          	addi	s2,s2,1
    8364:	00e42c23          	sw	a4,24(s0)
    8368:	01242823          	sw	s2,16(s0)
    836c:	06048463          	beqz	s1,83d4 <__d2b+0x114>
    8370:	bcd48493          	addi	s1,s1,-1075
    8374:	00f484b3          	add	s1,s1,a5
    8378:	03500513          	li	a0,53
    837c:	009a2023          	sw	s1,0(s4)
    8380:	40f507b3          	sub	a5,a0,a5
    8384:	00f9a023          	sw	a5,0(s3)
    8388:	02c12083          	lw	ra,44(sp)
    838c:	00040513          	mv	a0,s0
    8390:	02812403          	lw	s0,40(sp)
    8394:	02412483          	lw	s1,36(sp)
    8398:	02012903          	lw	s2,32(sp)
    839c:	01c12983          	lw	s3,28(sp)
    83a0:	01812a03          	lw	s4,24(sp)
    83a4:	01412a83          	lw	s5,20(sp)
    83a8:	03010113          	addi	sp,sp,48
    83ac:	00008067          	ret
    83b0:	00c10513          	addi	a0,sp,12
    83b4:	c4cff0ef          	jal	ra,7800 <__lo0bits>
    83b8:	00100793          	li	a5,1
    83bc:	00f42823          	sw	a5,16(s0)
    83c0:	00c12783          	lw	a5,12(sp)
    83c4:	00100913          	li	s2,1
    83c8:	00f42a23          	sw	a5,20(s0)
    83cc:	02050793          	addi	a5,a0,32
    83d0:	fa0490e3          	bnez	s1,8370 <__d2b+0xb0>
    83d4:	00291713          	slli	a4,s2,0x2
    83d8:	00e40733          	add	a4,s0,a4
    83dc:	01072503          	lw	a0,16(a4) # 3ff00010 <_stack+0x3fec0010>
    83e0:	bce78793          	addi	a5,a5,-1074
    83e4:	00fa2023          	sw	a5,0(s4)
    83e8:	ba0ff0ef          	jal	ra,7788 <__hi0bits>
    83ec:	00591913          	slli	s2,s2,0x5
    83f0:	40a90933          	sub	s2,s2,a0
    83f4:	0129a023          	sw	s2,0(s3)
    83f8:	f91ff06f          	j	8388 <__d2b+0xc8>
    83fc:	00812683          	lw	a3,8(sp)
    8400:	00d42a23          	sw	a3,20(s0)
    8404:	f59ff06f          	j	835c <__d2b+0x9c>
    8408:	00018697          	auipc	a3,0x18
    840c:	e9868693          	addi	a3,a3,-360 # 202a0 <zeroes.0+0x30>
    8410:	00000613          	li	a2,0
    8414:	30a00593          	li	a1,778
    8418:	00018517          	auipc	a0,0x18
    841c:	18450513          	addi	a0,a0,388 # 2059c <ezero+0x24>
    8420:	015040ef          	jal	ra,cc34 <__assert_func>

00008424 <__ratio>:
    8424:	fd010113          	addi	sp,sp,-48
    8428:	03212023          	sw	s2,32(sp)
    842c:	00058913          	mv	s2,a1
    8430:	00810593          	addi	a1,sp,8
    8434:	02112623          	sw	ra,44(sp)
    8438:	02812423          	sw	s0,40(sp)
    843c:	02912223          	sw	s1,36(sp)
    8440:	01312e23          	sw	s3,28(sp)
    8444:	00050993          	mv	s3,a0
    8448:	d61ff0ef          	jal	ra,81a8 <__b2d>
    844c:	00050493          	mv	s1,a0
    8450:	00058413          	mv	s0,a1
    8454:	00090513          	mv	a0,s2
    8458:	00c10593          	addi	a1,sp,12
    845c:	d4dff0ef          	jal	ra,81a8 <__b2d>
    8460:	01092703          	lw	a4,16(s2)
    8464:	0109a783          	lw	a5,16(s3)
    8468:	00c12683          	lw	a3,12(sp)
    846c:	40e787b3          	sub	a5,a5,a4
    8470:	00812703          	lw	a4,8(sp)
    8474:	00579793          	slli	a5,a5,0x5
    8478:	40d70733          	sub	a4,a4,a3
    847c:	00e787b3          	add	a5,a5,a4
    8480:	00050713          	mv	a4,a0
    8484:	02f05e63          	blez	a5,84c0 <__ratio+0x9c>
    8488:	01479793          	slli	a5,a5,0x14
    848c:	00878433          	add	s0,a5,s0
    8490:	00058693          	mv	a3,a1
    8494:	00048513          	mv	a0,s1
    8498:	00040593          	mv	a1,s0
    849c:	00070613          	mv	a2,a4
    84a0:	0ac080ef          	jal	ra,1054c <__divdf3>
    84a4:	02c12083          	lw	ra,44(sp)
    84a8:	02812403          	lw	s0,40(sp)
    84ac:	02412483          	lw	s1,36(sp)
    84b0:	02012903          	lw	s2,32(sp)
    84b4:	01c12983          	lw	s3,28(sp)
    84b8:	03010113          	addi	sp,sp,48
    84bc:	00008067          	ret
    84c0:	01479793          	slli	a5,a5,0x14
    84c4:	40f585b3          	sub	a1,a1,a5
    84c8:	fc9ff06f          	j	8490 <__ratio+0x6c>

000084cc <_mprec_log10>:
    84cc:	ff010113          	addi	sp,sp,-16
    84d0:	01212023          	sw	s2,0(sp)
    84d4:	00112623          	sw	ra,12(sp)
    84d8:	00812423          	sw	s0,8(sp)
    84dc:	00912223          	sw	s1,4(sp)
    84e0:	01700793          	li	a5,23
    84e4:	00050913          	mv	s2,a0
    84e8:	04a7de63          	bge	a5,a0,8544 <_mprec_log10+0x78>
    84ec:	00018717          	auipc	a4,0x18
    84f0:	b2c70713          	addi	a4,a4,-1236 # 20018 <_global_impure_ptr+0x8>
    84f4:	00072783          	lw	a5,0(a4)
    84f8:	00472583          	lw	a1,4(a4)
    84fc:	00018717          	auipc	a4,0x18
    8500:	b2470713          	addi	a4,a4,-1244 # 20020 <_global_impure_ptr+0x10>
    8504:	00072403          	lw	s0,0(a4)
    8508:	00472483          	lw	s1,4(a4)
    850c:	00078513          	mv	a0,a5
    8510:	00040613          	mv	a2,s0
    8514:	00048693          	mv	a3,s1
    8518:	7cc080ef          	jal	ra,10ce4 <__muldf3>
    851c:	fff90913          	addi	s2,s2,-1
    8520:	00050793          	mv	a5,a0
    8524:	fe0914e3          	bnez	s2,850c <_mprec_log10+0x40>
    8528:	00c12083          	lw	ra,12(sp)
    852c:	00812403          	lw	s0,8(sp)
    8530:	00412483          	lw	s1,4(sp)
    8534:	00012903          	lw	s2,0(sp)
    8538:	00078513          	mv	a0,a5
    853c:	01010113          	addi	sp,sp,16
    8540:	00008067          	ret
    8544:	00351913          	slli	s2,a0,0x3
    8548:	00018797          	auipc	a5,0x18
    854c:	0f878793          	addi	a5,a5,248 # 20640 <__mprec_tens>
    8550:	01278933          	add	s2,a5,s2
    8554:	00092783          	lw	a5,0(s2)
    8558:	00c12083          	lw	ra,12(sp)
    855c:	00812403          	lw	s0,8(sp)
    8560:	00492583          	lw	a1,4(s2)
    8564:	00412483          	lw	s1,4(sp)
    8568:	00012903          	lw	s2,0(sp)
    856c:	00078513          	mv	a0,a5
    8570:	01010113          	addi	sp,sp,16
    8574:	00008067          	ret

00008578 <__copybits>:
    8578:	01062683          	lw	a3,16(a2)
    857c:	fff58593          	addi	a1,a1,-1
    8580:	4055d593          	srai	a1,a1,0x5
    8584:	00158593          	addi	a1,a1,1
    8588:	01460793          	addi	a5,a2,20
    858c:	00269693          	slli	a3,a3,0x2
    8590:	00259593          	slli	a1,a1,0x2
    8594:	00d786b3          	add	a3,a5,a3
    8598:	00b505b3          	add	a1,a0,a1
    859c:	02d7f863          	bgeu	a5,a3,85cc <__copybits+0x54>
    85a0:	00050713          	mv	a4,a0
    85a4:	0007a803          	lw	a6,0(a5)
    85a8:	00478793          	addi	a5,a5,4
    85ac:	00470713          	addi	a4,a4,4
    85b0:	ff072e23          	sw	a6,-4(a4)
    85b4:	fed7e8e3          	bltu	a5,a3,85a4 <__copybits+0x2c>
    85b8:	40c687b3          	sub	a5,a3,a2
    85bc:	feb78793          	addi	a5,a5,-21
    85c0:	ffc7f793          	andi	a5,a5,-4
    85c4:	00478793          	addi	a5,a5,4
    85c8:	00f50533          	add	a0,a0,a5
    85cc:	00b57863          	bgeu	a0,a1,85dc <__copybits+0x64>
    85d0:	00450513          	addi	a0,a0,4
    85d4:	fe052e23          	sw	zero,-4(a0)
    85d8:	feb56ce3          	bltu	a0,a1,85d0 <__copybits+0x58>
    85dc:	00008067          	ret

000085e0 <__any_on>:
    85e0:	01052703          	lw	a4,16(a0)
    85e4:	4055d613          	srai	a2,a1,0x5
    85e8:	01450693          	addi	a3,a0,20
    85ec:	02c75263          	bge	a4,a2,8610 <__any_on+0x30>
    85f0:	00271793          	slli	a5,a4,0x2
    85f4:	00f687b3          	add	a5,a3,a5
    85f8:	04f6f263          	bgeu	a3,a5,863c <__any_on+0x5c>
    85fc:	ffc7a703          	lw	a4,-4(a5)
    8600:	ffc78793          	addi	a5,a5,-4
    8604:	fe070ae3          	beqz	a4,85f8 <__any_on+0x18>
    8608:	00100513          	li	a0,1
    860c:	00008067          	ret
    8610:	00261793          	slli	a5,a2,0x2
    8614:	00f687b3          	add	a5,a3,a5
    8618:	fee650e3          	bge	a2,a4,85f8 <__any_on+0x18>
    861c:	01f5f593          	andi	a1,a1,31
    8620:	fc058ce3          	beqz	a1,85f8 <__any_on+0x18>
    8624:	0007a603          	lw	a2,0(a5)
    8628:	00100513          	li	a0,1
    862c:	00b65733          	srl	a4,a2,a1
    8630:	00b715b3          	sll	a1,a4,a1
    8634:	fcb602e3          	beq	a2,a1,85f8 <__any_on+0x18>
    8638:	00008067          	ret
    863c:	00000513          	li	a0,0
    8640:	00008067          	ret

00008644 <_sbrk_r>:
    8644:	ff010113          	addi	sp,sp,-16
    8648:	00812423          	sw	s0,8(sp)
    864c:	00050413          	mv	s0,a0
    8650:	00058513          	mv	a0,a1
    8654:	00019797          	auipc	a5,0x19
    8658:	2407a023          	sw	zero,576(a5) # 21894 <errno>
    865c:	00112623          	sw	ra,12(sp)
    8660:	2580c0ef          	jal	ra,148b8 <_sbrk>
    8664:	fff00793          	li	a5,-1
    8668:	00f50a63          	beq	a0,a5,867c <_sbrk_r+0x38>
    866c:	00c12083          	lw	ra,12(sp)
    8670:	00812403          	lw	s0,8(sp)
    8674:	01010113          	addi	sp,sp,16
    8678:	00008067          	ret
    867c:	00019797          	auipc	a5,0x19
    8680:	2187a783          	lw	a5,536(a5) # 21894 <errno>
    8684:	fe0784e3          	beqz	a5,866c <_sbrk_r+0x28>
    8688:	00c12083          	lw	ra,12(sp)
    868c:	00f42023          	sw	a5,0(s0)
    8690:	00812403          	lw	s0,8(sp)
    8694:	01010113          	addi	sp,sp,16
    8698:	00008067          	ret

0000869c <frexp>:
    869c:	ff010113          	addi	sp,sp,-16
    86a0:	00912223          	sw	s1,4(sp)
    86a4:	800004b7          	lui	s1,0x80000
    86a8:	00812423          	sw	s0,8(sp)
    86ac:	00112623          	sw	ra,12(sp)
    86b0:	fff4c493          	not	s1,s1
    86b4:	00060413          	mv	s0,a2
    86b8:	00062023          	sw	zero,0(a2)
    86bc:	00b4f6b3          	and	a3,s1,a1
    86c0:	7ff00637          	lui	a2,0x7ff00
    86c4:	00058793          	mv	a5,a1
    86c8:	00050713          	mv	a4,a0
    86cc:	06c6d263          	bge	a3,a2,8730 <frexp+0x94>
    86d0:	00a6e8b3          	or	a7,a3,a0
    86d4:	04088e63          	beqz	a7,8730 <frexp+0x94>
    86d8:	00c5f633          	and	a2,a1,a2
    86dc:	00058813          	mv	a6,a1
    86e0:	00000893          	li	a7,0
    86e4:	02061463          	bnez	a2,870c <frexp+0x70>
    86e8:	00018797          	auipc	a5,0x18
    86ec:	94078793          	addi	a5,a5,-1728 # 20028 <_global_impure_ptr+0x18>
    86f0:	0047a683          	lw	a3,4(a5)
    86f4:	0007a603          	lw	a2,0(a5)
    86f8:	5ec080ef          	jal	ra,10ce4 <__muldf3>
    86fc:	00050713          	mv	a4,a0
    8700:	00058813          	mv	a6,a1
    8704:	00b4f6b3          	and	a3,s1,a1
    8708:	fca00893          	li	a7,-54
    870c:	4146d693          	srai	a3,a3,0x14
    8710:	801007b7          	lui	a5,0x80100
    8714:	fff78793          	addi	a5,a5,-1 # 800fffff <_stack+0x800bffff>
    8718:	c0268693          	addi	a3,a3,-1022
    871c:	00f87833          	and	a6,a6,a5
    8720:	011686b3          	add	a3,a3,a7
    8724:	3fe007b7          	lui	a5,0x3fe00
    8728:	00f867b3          	or	a5,a6,a5
    872c:	00d42023          	sw	a3,0(s0)
    8730:	00c12083          	lw	ra,12(sp)
    8734:	00812403          	lw	s0,8(sp)
    8738:	00412483          	lw	s1,4(sp)
    873c:	00070513          	mv	a0,a4
    8740:	00078593          	mv	a1,a5
    8744:	01010113          	addi	sp,sp,16
    8748:	00008067          	ret

0000874c <_sprintf_r>:
    874c:	f6010113          	addi	sp,sp,-160
    8750:	08c10e93          	addi	t4,sp,140
    8754:	08f12a23          	sw	a5,148(sp)
    8758:	80000337          	lui	t1,0x80000
    875c:	ffff07b7          	lui	a5,0xffff0
    8760:	00058e13          	mv	t3,a1
    8764:	fff34313          	not	t1,t1
    8768:	08d12623          	sw	a3,140(sp)
    876c:	20878793          	addi	a5,a5,520 # ffff0208 <_stack+0xfffb0208>
    8770:	00810593          	addi	a1,sp,8
    8774:	000e8693          	mv	a3,t4
    8778:	06112e23          	sw	ra,124(sp)
    877c:	00f12a23          	sw	a5,20(sp)
    8780:	08e12823          	sw	a4,144(sp)
    8784:	09012c23          	sw	a6,152(sp)
    8788:	09112e23          	sw	a7,156(sp)
    878c:	01c12423          	sw	t3,8(sp)
    8790:	01c12c23          	sw	t3,24(sp)
    8794:	00612e23          	sw	t1,28(sp)
    8798:	00612823          	sw	t1,16(sp)
    879c:	01d12223          	sw	t4,4(sp)
    87a0:	550000ef          	jal	ra,8cf0 <_svfprintf_r>
    87a4:	00812783          	lw	a5,8(sp)
    87a8:	00078023          	sb	zero,0(a5)
    87ac:	07c12083          	lw	ra,124(sp)
    87b0:	0a010113          	addi	sp,sp,160
    87b4:	00008067          	ret

000087b8 <sprintf>:
    87b8:	f6010113          	addi	sp,sp,-160
    87bc:	08810e93          	addi	t4,sp,136
    87c0:	08f12a23          	sw	a5,148(sp)
    87c4:	80000337          	lui	t1,0x80000
    87c8:	ffff07b7          	lui	a5,0xffff0
    87cc:	00050e13          	mv	t3,a0
    87d0:	fff34313          	not	t1,t1
    87d4:	08c12423          	sw	a2,136(sp)
    87d8:	08d12623          	sw	a3,140(sp)
    87dc:	20878793          	addi	a5,a5,520 # ffff0208 <_stack+0xfffb0208>
    87e0:	00058613          	mv	a2,a1
    87e4:	000e8693          	mv	a3,t4
    87e8:	00810593          	addi	a1,sp,8
    87ec:	00018517          	auipc	a0,0x18
    87f0:	84452503          	lw	a0,-1980(a0) # 20030 <_impure_ptr>
    87f4:	06112e23          	sw	ra,124(sp)
    87f8:	00f12a23          	sw	a5,20(sp)
    87fc:	08e12823          	sw	a4,144(sp)
    8800:	09012c23          	sw	a6,152(sp)
    8804:	09112e23          	sw	a7,156(sp)
    8808:	01c12423          	sw	t3,8(sp)
    880c:	01c12c23          	sw	t3,24(sp)
    8810:	00612e23          	sw	t1,28(sp)
    8814:	00612823          	sw	t1,16(sp)
    8818:	01d12223          	sw	t4,4(sp)
    881c:	4d4000ef          	jal	ra,8cf0 <_svfprintf_r>
    8820:	00812783          	lw	a5,8(sp)
    8824:	00078023          	sb	zero,0(a5)
    8828:	07c12083          	lw	ra,124(sp)
    882c:	0a010113          	addi	sp,sp,160
    8830:	00008067          	ret

00008834 <__sread>:
    8834:	ff010113          	addi	sp,sp,-16
    8838:	00812423          	sw	s0,8(sp)
    883c:	00058413          	mv	s0,a1
    8840:	00e59583          	lh	a1,14(a1)
    8844:	00112623          	sw	ra,12(sp)
    8848:	1a4050ef          	jal	ra,d9ec <_read_r>
    884c:	02054063          	bltz	a0,886c <__sread+0x38>
    8850:	05042783          	lw	a5,80(s0)
    8854:	00c12083          	lw	ra,12(sp)
    8858:	00a787b3          	add	a5,a5,a0
    885c:	04f42823          	sw	a5,80(s0)
    8860:	00812403          	lw	s0,8(sp)
    8864:	01010113          	addi	sp,sp,16
    8868:	00008067          	ret
    886c:	00c45783          	lhu	a5,12(s0)
    8870:	fffff737          	lui	a4,0xfffff
    8874:	fff70713          	addi	a4,a4,-1 # ffffefff <_stack+0xfffbefff>
    8878:	00e7f7b3          	and	a5,a5,a4
    887c:	00c12083          	lw	ra,12(sp)
    8880:	00f41623          	sh	a5,12(s0)
    8884:	00812403          	lw	s0,8(sp)
    8888:	01010113          	addi	sp,sp,16
    888c:	00008067          	ret

00008890 <__seofread>:
    8890:	00000513          	li	a0,0
    8894:	00008067          	ret

00008898 <__swrite>:
    8898:	00c59783          	lh	a5,12(a1)
    889c:	fe010113          	addi	sp,sp,-32
    88a0:	00812c23          	sw	s0,24(sp)
    88a4:	00912a23          	sw	s1,20(sp)
    88a8:	01212823          	sw	s2,16(sp)
    88ac:	01312623          	sw	s3,12(sp)
    88b0:	00112e23          	sw	ra,28(sp)
    88b4:	1007f713          	andi	a4,a5,256
    88b8:	00058413          	mv	s0,a1
    88bc:	00050493          	mv	s1,a0
    88c0:	00e59583          	lh	a1,14(a1)
    88c4:	00060913          	mv	s2,a2
    88c8:	00068993          	mv	s3,a3
    88cc:	02071e63          	bnez	a4,8908 <__swrite+0x70>
    88d0:	fffff737          	lui	a4,0xfffff
    88d4:	fff70713          	addi	a4,a4,-1 # ffffefff <_stack+0xfffbefff>
    88d8:	00e7f7b3          	and	a5,a5,a4
    88dc:	00f41623          	sh	a5,12(s0)
    88e0:	01812403          	lw	s0,24(sp)
    88e4:	01c12083          	lw	ra,28(sp)
    88e8:	00098693          	mv	a3,s3
    88ec:	00090613          	mv	a2,s2
    88f0:	00c12983          	lw	s3,12(sp)
    88f4:	01012903          	lw	s2,16(sp)
    88f8:	00048513          	mv	a0,s1
    88fc:	01412483          	lw	s1,20(sp)
    8900:	02010113          	addi	sp,sp,32
    8904:	2cc0406f          	j	cbd0 <_write_r>
    8908:	00200693          	li	a3,2
    890c:	00000613          	li	a2,0
    8910:	631040ef          	jal	ra,d740 <_lseek_r>
    8914:	00c41783          	lh	a5,12(s0)
    8918:	00e41583          	lh	a1,14(s0)
    891c:	fb5ff06f          	j	88d0 <__swrite+0x38>

00008920 <__sseek>:
    8920:	ff010113          	addi	sp,sp,-16
    8924:	00812423          	sw	s0,8(sp)
    8928:	00058413          	mv	s0,a1
    892c:	00e59583          	lh	a1,14(a1)
    8930:	00112623          	sw	ra,12(sp)
    8934:	60d040ef          	jal	ra,d740 <_lseek_r>
    8938:	fff00793          	li	a5,-1
    893c:	02f50463          	beq	a0,a5,8964 <__sseek+0x44>
    8940:	00c45783          	lhu	a5,12(s0)
    8944:	00001737          	lui	a4,0x1
    8948:	00c12083          	lw	ra,12(sp)
    894c:	00e7e7b3          	or	a5,a5,a4
    8950:	04a42823          	sw	a0,80(s0)
    8954:	00f41623          	sh	a5,12(s0)
    8958:	00812403          	lw	s0,8(sp)
    895c:	01010113          	addi	sp,sp,16
    8960:	00008067          	ret
    8964:	00c45783          	lhu	a5,12(s0)
    8968:	fffff737          	lui	a4,0xfffff
    896c:	fff70713          	addi	a4,a4,-1 # ffffefff <_stack+0xfffbefff>
    8970:	00e7f7b3          	and	a5,a5,a4
    8974:	00c12083          	lw	ra,12(sp)
    8978:	00f41623          	sh	a5,12(s0)
    897c:	00812403          	lw	s0,8(sp)
    8980:	01010113          	addi	sp,sp,16
    8984:	00008067          	ret

00008988 <__sclose>:
    8988:	00e59583          	lh	a1,14(a1)
    898c:	3fc0406f          	j	cd88 <_close_r>

00008990 <strcmp>:
    8990:	00b56733          	or	a4,a0,a1
    8994:	fff00393          	li	t2,-1
    8998:	00377713          	andi	a4,a4,3
    899c:	10071063          	bnez	a4,8a9c <strcmp+0x10c>
    89a0:	7f7f87b7          	lui	a5,0x7f7f8
    89a4:	f7f78793          	addi	a5,a5,-129 # 7f7f7f7f <_stack+0x7f7b7f7f>
    89a8:	00052603          	lw	a2,0(a0)
    89ac:	0005a683          	lw	a3,0(a1)
    89b0:	00f672b3          	and	t0,a2,a5
    89b4:	00f66333          	or	t1,a2,a5
    89b8:	00f282b3          	add	t0,t0,a5
    89bc:	0062e2b3          	or	t0,t0,t1
    89c0:	10729263          	bne	t0,t2,8ac4 <strcmp+0x134>
    89c4:	08d61663          	bne	a2,a3,8a50 <strcmp+0xc0>
    89c8:	00452603          	lw	a2,4(a0)
    89cc:	0045a683          	lw	a3,4(a1)
    89d0:	00f672b3          	and	t0,a2,a5
    89d4:	00f66333          	or	t1,a2,a5
    89d8:	00f282b3          	add	t0,t0,a5
    89dc:	0062e2b3          	or	t0,t0,t1
    89e0:	0c729e63          	bne	t0,t2,8abc <strcmp+0x12c>
    89e4:	06d61663          	bne	a2,a3,8a50 <strcmp+0xc0>
    89e8:	00852603          	lw	a2,8(a0)
    89ec:	0085a683          	lw	a3,8(a1)
    89f0:	00f672b3          	and	t0,a2,a5
    89f4:	00f66333          	or	t1,a2,a5
    89f8:	00f282b3          	add	t0,t0,a5
    89fc:	0062e2b3          	or	t0,t0,t1
    8a00:	0c729863          	bne	t0,t2,8ad0 <strcmp+0x140>
    8a04:	04d61663          	bne	a2,a3,8a50 <strcmp+0xc0>
    8a08:	00c52603          	lw	a2,12(a0)
    8a0c:	00c5a683          	lw	a3,12(a1)
    8a10:	00f672b3          	and	t0,a2,a5
    8a14:	00f66333          	or	t1,a2,a5
    8a18:	00f282b3          	add	t0,t0,a5
    8a1c:	0062e2b3          	or	t0,t0,t1
    8a20:	0c729263          	bne	t0,t2,8ae4 <strcmp+0x154>
    8a24:	02d61663          	bne	a2,a3,8a50 <strcmp+0xc0>
    8a28:	01052603          	lw	a2,16(a0)
    8a2c:	0105a683          	lw	a3,16(a1)
    8a30:	00f672b3          	and	t0,a2,a5
    8a34:	00f66333          	or	t1,a2,a5
    8a38:	00f282b3          	add	t0,t0,a5
    8a3c:	0062e2b3          	or	t0,t0,t1
    8a40:	0a729c63          	bne	t0,t2,8af8 <strcmp+0x168>
    8a44:	01450513          	addi	a0,a0,20
    8a48:	01458593          	addi	a1,a1,20
    8a4c:	f4d60ee3          	beq	a2,a3,89a8 <strcmp+0x18>
    8a50:	01061713          	slli	a4,a2,0x10
    8a54:	01069793          	slli	a5,a3,0x10
    8a58:	00f71e63          	bne	a4,a5,8a74 <strcmp+0xe4>
    8a5c:	01065713          	srli	a4,a2,0x10
    8a60:	0106d793          	srli	a5,a3,0x10
    8a64:	40f70533          	sub	a0,a4,a5
    8a68:	0ff57593          	zext.b	a1,a0
    8a6c:	02059063          	bnez	a1,8a8c <strcmp+0xfc>
    8a70:	00008067          	ret
    8a74:	01075713          	srli	a4,a4,0x10
    8a78:	0107d793          	srli	a5,a5,0x10
    8a7c:	40f70533          	sub	a0,a4,a5
    8a80:	0ff57593          	zext.b	a1,a0
    8a84:	00059463          	bnez	a1,8a8c <strcmp+0xfc>
    8a88:	00008067          	ret
    8a8c:	0ff77713          	zext.b	a4,a4
    8a90:	0ff7f793          	zext.b	a5,a5
    8a94:	40f70533          	sub	a0,a4,a5
    8a98:	00008067          	ret
    8a9c:	00054603          	lbu	a2,0(a0)
    8aa0:	0005c683          	lbu	a3,0(a1)
    8aa4:	00150513          	addi	a0,a0,1
    8aa8:	00158593          	addi	a1,a1,1
    8aac:	00d61463          	bne	a2,a3,8ab4 <strcmp+0x124>
    8ab0:	fe0616e3          	bnez	a2,8a9c <strcmp+0x10c>
    8ab4:	40d60533          	sub	a0,a2,a3
    8ab8:	00008067          	ret
    8abc:	00450513          	addi	a0,a0,4
    8ac0:	00458593          	addi	a1,a1,4
    8ac4:	fcd61ce3          	bne	a2,a3,8a9c <strcmp+0x10c>
    8ac8:	00000513          	li	a0,0
    8acc:	00008067          	ret
    8ad0:	00850513          	addi	a0,a0,8
    8ad4:	00858593          	addi	a1,a1,8
    8ad8:	fcd612e3          	bne	a2,a3,8a9c <strcmp+0x10c>
    8adc:	00000513          	li	a0,0
    8ae0:	00008067          	ret
    8ae4:	00c50513          	addi	a0,a0,12
    8ae8:	00c58593          	addi	a1,a1,12
    8aec:	fad618e3          	bne	a2,a3,8a9c <strcmp+0x10c>
    8af0:	00000513          	li	a0,0
    8af4:	00008067          	ret
    8af8:	01050513          	addi	a0,a0,16
    8afc:	01058593          	addi	a1,a1,16
    8b00:	f8d61ee3          	bne	a2,a3,8a9c <strcmp+0x10c>
    8b04:	00000513          	li	a0,0
    8b08:	00008067          	ret

00008b0c <strcpy>:
    8b0c:	00b567b3          	or	a5,a0,a1
    8b10:	0037f793          	andi	a5,a5,3
    8b14:	08079263          	bnez	a5,8b98 <strcpy+0x8c>
    8b18:	0005a703          	lw	a4,0(a1)
    8b1c:	7f7f86b7          	lui	a3,0x7f7f8
    8b20:	f7f68693          	addi	a3,a3,-129 # 7f7f7f7f <_stack+0x7f7b7f7f>
    8b24:	00d777b3          	and	a5,a4,a3
    8b28:	00d787b3          	add	a5,a5,a3
    8b2c:	00e7e7b3          	or	a5,a5,a4
    8b30:	00d7e7b3          	or	a5,a5,a3
    8b34:	fff00613          	li	a2,-1
    8b38:	06c79e63          	bne	a5,a2,8bb4 <strcpy+0xa8>
    8b3c:	00050613          	mv	a2,a0
    8b40:	fff00813          	li	a6,-1
    8b44:	00e62023          	sw	a4,0(a2) # 7ff00000 <_stack+0x7fec0000>
    8b48:	0045a703          	lw	a4,4(a1)
    8b4c:	00458593          	addi	a1,a1,4
    8b50:	00460613          	addi	a2,a2,4
    8b54:	00d777b3          	and	a5,a4,a3
    8b58:	00d787b3          	add	a5,a5,a3
    8b5c:	00e7e7b3          	or	a5,a5,a4
    8b60:	00d7e7b3          	or	a5,a5,a3
    8b64:	ff0780e3          	beq	a5,a6,8b44 <strcpy+0x38>
    8b68:	0005c783          	lbu	a5,0(a1)
    8b6c:	0015c703          	lbu	a4,1(a1)
    8b70:	0025c683          	lbu	a3,2(a1)
    8b74:	00f60023          	sb	a5,0(a2)
    8b78:	00078a63          	beqz	a5,8b8c <strcpy+0x80>
    8b7c:	00e600a3          	sb	a4,1(a2)
    8b80:	00070663          	beqz	a4,8b8c <strcpy+0x80>
    8b84:	00d60123          	sb	a3,2(a2)
    8b88:	00069463          	bnez	a3,8b90 <strcpy+0x84>
    8b8c:	00008067          	ret
    8b90:	000601a3          	sb	zero,3(a2)
    8b94:	00008067          	ret
    8b98:	00050793          	mv	a5,a0
    8b9c:	0005c703          	lbu	a4,0(a1)
    8ba0:	00178793          	addi	a5,a5,1
    8ba4:	00158593          	addi	a1,a1,1
    8ba8:	fee78fa3          	sb	a4,-1(a5)
    8bac:	fe0718e3          	bnez	a4,8b9c <strcpy+0x90>
    8bb0:	00008067          	ret
    8bb4:	00050613          	mv	a2,a0
    8bb8:	fb1ff06f          	j	8b68 <strcpy+0x5c>

00008bbc <strlen>:
    8bbc:	00357793          	andi	a5,a0,3
    8bc0:	00050713          	mv	a4,a0
    8bc4:	04079c63          	bnez	a5,8c1c <strlen+0x60>
    8bc8:	7f7f86b7          	lui	a3,0x7f7f8
    8bcc:	f7f68693          	addi	a3,a3,-129 # 7f7f7f7f <_stack+0x7f7b7f7f>
    8bd0:	fff00593          	li	a1,-1
    8bd4:	00072603          	lw	a2,0(a4)
    8bd8:	00470713          	addi	a4,a4,4
    8bdc:	00d677b3          	and	a5,a2,a3
    8be0:	00d787b3          	add	a5,a5,a3
    8be4:	00c7e7b3          	or	a5,a5,a2
    8be8:	00d7e7b3          	or	a5,a5,a3
    8bec:	feb784e3          	beq	a5,a1,8bd4 <strlen+0x18>
    8bf0:	ffc74683          	lbu	a3,-4(a4)
    8bf4:	ffd74603          	lbu	a2,-3(a4)
    8bf8:	ffe74783          	lbu	a5,-2(a4)
    8bfc:	40a70733          	sub	a4,a4,a0
    8c00:	04068063          	beqz	a3,8c40 <strlen+0x84>
    8c04:	02060a63          	beqz	a2,8c38 <strlen+0x7c>
    8c08:	00f03533          	snez	a0,a5
    8c0c:	00e50533          	add	a0,a0,a4
    8c10:	ffe50513          	addi	a0,a0,-2
    8c14:	00008067          	ret
    8c18:	fa0688e3          	beqz	a3,8bc8 <strlen+0xc>
    8c1c:	00074783          	lbu	a5,0(a4)
    8c20:	00170713          	addi	a4,a4,1
    8c24:	00377693          	andi	a3,a4,3
    8c28:	fe0798e3          	bnez	a5,8c18 <strlen+0x5c>
    8c2c:	40a70733          	sub	a4,a4,a0
    8c30:	fff70513          	addi	a0,a4,-1
    8c34:	00008067          	ret
    8c38:	ffd70513          	addi	a0,a4,-3
    8c3c:	00008067          	ret
    8c40:	ffc70513          	addi	a0,a4,-4
    8c44:	00008067          	ret

00008c48 <strncpy>:
    8c48:	00a5e7b3          	or	a5,a1,a0
    8c4c:	0037f793          	andi	a5,a5,3
    8c50:	00050713          	mv	a4,a0
    8c54:	06079863          	bnez	a5,8cc4 <strncpy+0x7c>
    8c58:	00300793          	li	a5,3
    8c5c:	06c7f463          	bgeu	a5,a2,8cc4 <strncpy+0x7c>
    8c60:	feff0337          	lui	t1,0xfeff0
    8c64:	808088b7          	lui	a7,0x80808
    8c68:	eff30313          	addi	t1,t1,-257 # fefefeff <_stack+0xfefafeff>
    8c6c:	08088893          	addi	a7,a7,128 # 80808080 <_stack+0x807c8080>
    8c70:	00300e13          	li	t3,3
    8c74:	0005a683          	lw	a3,0(a1)
    8c78:	006687b3          	add	a5,a3,t1
    8c7c:	fff6c813          	not	a6,a3
    8c80:	0107f7b3          	and	a5,a5,a6
    8c84:	0117f7b3          	and	a5,a5,a7
    8c88:	02079e63          	bnez	a5,8cc4 <strncpy+0x7c>
    8c8c:	00d72023          	sw	a3,0(a4)
    8c90:	ffc60613          	addi	a2,a2,-4
    8c94:	00470713          	addi	a4,a4,4
    8c98:	00458593          	addi	a1,a1,4
    8c9c:	fcce6ce3          	bltu	t3,a2,8c74 <strncpy+0x2c>
    8ca0:	00158593          	addi	a1,a1,1
    8ca4:	00170793          	addi	a5,a4,1
    8ca8:	02060463          	beqz	a2,8cd0 <strncpy+0x88>
    8cac:	fff5c683          	lbu	a3,-1(a1)
    8cb0:	fff60813          	addi	a6,a2,-1
    8cb4:	fed78fa3          	sb	a3,-1(a5)
    8cb8:	00068e63          	beqz	a3,8cd4 <strncpy+0x8c>
    8cbc:	00078713          	mv	a4,a5
    8cc0:	00080613          	mv	a2,a6
    8cc4:	00158593          	addi	a1,a1,1
    8cc8:	00170793          	addi	a5,a4,1
    8ccc:	fe0610e3          	bnez	a2,8cac <strncpy+0x64>
    8cd0:	00008067          	ret
    8cd4:	00c70633          	add	a2,a4,a2
    8cd8:	00080a63          	beqz	a6,8cec <strncpy+0xa4>
    8cdc:	00178793          	addi	a5,a5,1
    8ce0:	fe078fa3          	sb	zero,-1(a5)
    8ce4:	fec79ce3          	bne	a5,a2,8cdc <strncpy+0x94>
    8ce8:	00008067          	ret
    8cec:	00008067          	ret

00008cf0 <_svfprintf_r>:
    8cf0:	e0010113          	addi	sp,sp,-512
    8cf4:	1e112e23          	sw	ra,508(sp)
    8cf8:	1e812c23          	sw	s0,504(sp)
    8cfc:	1f212823          	sw	s2,496(sp)
    8d00:	00058413          	mv	s0,a1
    8d04:	1da12823          	sw	s10,464(sp)
    8d08:	02b12223          	sw	a1,36(sp)
    8d0c:	00060913          	mv	s2,a2
    8d10:	00d12823          	sw	a3,16(sp)
    8d14:	1e912a23          	sw	s1,500(sp)
    8d18:	1f312623          	sw	s3,492(sp)
    8d1c:	1f412423          	sw	s4,488(sp)
    8d20:	1f512223          	sw	s5,484(sp)
    8d24:	1f612023          	sw	s6,480(sp)
    8d28:	1d712e23          	sw	s7,476(sp)
    8d2c:	1d812c23          	sw	s8,472(sp)
    8d30:	1d912a23          	sw	s9,468(sp)
    8d34:	1db12623          	sw	s11,460(sp)
    8d38:	00050d13          	mv	s10,a0
    8d3c:	999fd0ef          	jal	ra,66d4 <_localeconv_r>
    8d40:	00052783          	lw	a5,0(a0)
    8d44:	00078513          	mv	a0,a5
    8d48:	02f12623          	sw	a5,44(sp)
    8d4c:	e71ff0ef          	jal	ra,8bbc <strlen>
    8d50:	00c45783          	lhu	a5,12(s0)
    8d54:	10012023          	sw	zero,256(sp)
    8d58:	10012223          	sw	zero,260(sp)
    8d5c:	10012423          	sw	zero,264(sp)
    8d60:	10012623          	sw	zero,268(sp)
    8d64:	0807f793          	andi	a5,a5,128
    8d68:	02a12423          	sw	a0,40(sp)
    8d6c:	00078863          	beqz	a5,8d7c <_svfprintf_r+0x8c>
    8d70:	01042783          	lw	a5,16(s0)
    8d74:	00079463          	bnez	a5,8d7c <_svfprintf_r+0x8c>
    8d78:	5800106f          	j	a2f8 <_svfprintf_r+0x1608>
    8d7c:	11c10793          	addi	a5,sp,284
    8d80:	00090c93          	mv	s9,s2
    8d84:	0ef12a23          	sw	a5,244(sp)
    8d88:	00078b93          	mv	s7,a5
    8d8c:	000cc783          	lbu	a5,0(s9)
    8d90:	0e012e23          	sw	zero,252(sp)
    8d94:	0e012c23          	sw	zero,248(sp)
    8d98:	00012c23          	sw	zero,24(sp)
    8d9c:	02012823          	sw	zero,48(sp)
    8da0:	02012a23          	sw	zero,52(sp)
    8da4:	02012c23          	sw	zero,56(sp)
    8da8:	04012023          	sw	zero,64(sp)
    8dac:	04012223          	sw	zero,68(sp)
    8db0:	00012423          	sw	zero,8(sp)
    8db4:	02412b03          	lw	s6,36(sp)
    8db8:	01000c13          	li	s8,16
    8dbc:	22078663          	beqz	a5,8fe8 <_svfprintf_r+0x2f8>
    8dc0:	000c8413          	mv	s0,s9
    8dc4:	02500713          	li	a4,37
    8dc8:	2ce78863          	beq	a5,a4,9098 <_svfprintf_r+0x3a8>
    8dcc:	00144783          	lbu	a5,1(s0)
    8dd0:	00140413          	addi	s0,s0,1
    8dd4:	fe079ae3          	bnez	a5,8dc8 <_svfprintf_r+0xd8>
    8dd8:	419404b3          	sub	s1,s0,s9
    8ddc:	21940663          	beq	s0,s9,8fe8 <_svfprintf_r+0x2f8>
    8de0:	0fc12703          	lw	a4,252(sp)
    8de4:	0f812783          	lw	a5,248(sp)
    8de8:	019ba023          	sw	s9,0(s7)
    8dec:	00970733          	add	a4,a4,s1
    8df0:	00178793          	addi	a5,a5,1
    8df4:	009ba223          	sw	s1,4(s7)
    8df8:	0ee12e23          	sw	a4,252(sp)
    8dfc:	0ef12c23          	sw	a5,248(sp)
    8e00:	00700713          	li	a4,7
    8e04:	008b8b93          	addi	s7,s7,8
    8e08:	2af74063          	blt	a4,a5,90a8 <_svfprintf_r+0x3b8>
    8e0c:	00812703          	lw	a4,8(sp)
    8e10:	00044783          	lbu	a5,0(s0)
    8e14:	00970733          	add	a4,a4,s1
    8e18:	00e12423          	sw	a4,8(sp)
    8e1c:	1c078663          	beqz	a5,8fe8 <_svfprintf_r+0x2f8>
    8e20:	fff00313          	li	t1,-1
    8e24:	00144483          	lbu	s1,1(s0)
    8e28:	0c010ba3          	sb	zero,215(sp)
    8e2c:	00140413          	addi	s0,s0,1
    8e30:	00000993          	li	s3,0
    8e34:	00000a13          	li	s4,0
    8e38:	00900913          	li	s2,9
    8e3c:	02a00a93          	li	s5,42
    8e40:	00030d93          	mv	s11,t1
    8e44:	00140413          	addi	s0,s0,1
    8e48:	05a00713          	li	a4,90
    8e4c:	fe048793          	addi	a5,s1,-32 # 7fffffe0 <_stack+0x7ffbffe0>
    8e50:	04f76863          	bltu	a4,a5,8ea0 <_svfprintf_r+0x1b0>
    8e54:	00018697          	auipc	a3,0x18
    8e58:	8e868693          	addi	a3,a3,-1816 # 2073c <p05.0+0xc>
    8e5c:	00279793          	slli	a5,a5,0x2
    8e60:	00d787b3          	add	a5,a5,a3
    8e64:	0007a783          	lw	a5,0(a5)
    8e68:	00d787b3          	add	a5,a5,a3
    8e6c:	00078067          	jr	a5
    8e70:	00000993          	li	s3,0
    8e74:	fd048613          	addi	a2,s1,-48
    8e78:	00044483          	lbu	s1,0(s0)
    8e7c:	00299793          	slli	a5,s3,0x2
    8e80:	013787b3          	add	a5,a5,s3
    8e84:	00179793          	slli	a5,a5,0x1
    8e88:	00f609b3          	add	s3,a2,a5
    8e8c:	fd048613          	addi	a2,s1,-48
    8e90:	00140413          	addi	s0,s0,1
    8e94:	fec972e3          	bgeu	s2,a2,8e78 <_svfprintf_r+0x188>
    8e98:	fe048793          	addi	a5,s1,-32
    8e9c:	faf77ce3          	bgeu	a4,a5,8e54 <_svfprintf_r+0x164>
    8ea0:	14048463          	beqz	s1,8fe8 <_svfprintf_r+0x2f8>
    8ea4:	14910e23          	sb	s1,348(sp)
    8ea8:	0c010ba3          	sb	zero,215(sp)
    8eac:	00100a93          	li	s5,1
    8eb0:	00100d93          	li	s11,1
    8eb4:	15c10c93          	addi	s9,sp,348
    8eb8:	00012623          	sw	zero,12(sp)
    8ebc:	00000313          	li	t1,0
    8ec0:	02012023          	sw	zero,32(sp)
    8ec4:	00012e23          	sw	zero,28(sp)
    8ec8:	00012a23          	sw	zero,20(sp)
    8ecc:	002a7f13          	andi	t5,s4,2
    8ed0:	000f0463          	beqz	t5,8ed8 <_svfprintf_r+0x1e8>
    8ed4:	002a8a93          	addi	s5,s5,2
    8ed8:	084a7913          	andi	s2,s4,132
    8edc:	0fc12783          	lw	a5,252(sp)
    8ee0:	00091663          	bnez	s2,8eec <_svfprintf_r+0x1fc>
    8ee4:	415986b3          	sub	a3,s3,s5
    8ee8:	5ed040e3          	bgtz	a3,9cc8 <_svfprintf_r+0xfd8>
    8eec:	0d714703          	lbu	a4,215(sp)
    8ef0:	02070a63          	beqz	a4,8f24 <_svfprintf_r+0x234>
    8ef4:	0f812703          	lw	a4,248(sp)
    8ef8:	0d710693          	addi	a3,sp,215
    8efc:	00dba023          	sw	a3,0(s7)
    8f00:	00178793          	addi	a5,a5,1
    8f04:	00100693          	li	a3,1
    8f08:	00170713          	addi	a4,a4,1
    8f0c:	00dba223          	sw	a3,4(s7)
    8f10:	0ef12e23          	sw	a5,252(sp)
    8f14:	0ee12c23          	sw	a4,248(sp)
    8f18:	00700693          	li	a3,7
    8f1c:	008b8b93          	addi	s7,s7,8
    8f20:	48e6c063          	blt	a3,a4,93a0 <_svfprintf_r+0x6b0>
    8f24:	020f0a63          	beqz	t5,8f58 <_svfprintf_r+0x268>
    8f28:	0f812703          	lw	a4,248(sp)
    8f2c:	0d810693          	addi	a3,sp,216
    8f30:	00dba023          	sw	a3,0(s7)
    8f34:	00278793          	addi	a5,a5,2
    8f38:	00200693          	li	a3,2
    8f3c:	00170713          	addi	a4,a4,1
    8f40:	00dba223          	sw	a3,4(s7)
    8f44:	0ef12e23          	sw	a5,252(sp)
    8f48:	0ee12c23          	sw	a4,248(sp)
    8f4c:	00700693          	li	a3,7
    8f50:	008b8b93          	addi	s7,s7,8
    8f54:	6ae6c2e3          	blt	a3,a4,9df8 <_svfprintf_r+0x1108>
    8f58:	08000713          	li	a4,128
    8f5c:	38e90ee3          	beq	s2,a4,9af8 <_svfprintf_r+0xe08>
    8f60:	41b30933          	sub	s2,t1,s11
    8f64:	492040e3          	bgtz	s2,9be4 <_svfprintf_r+0xef4>
    8f68:	100a7713          	andi	a4,s4,256
    8f6c:	24071ee3          	bnez	a4,99c8 <_svfprintf_r+0xcd8>
    8f70:	0f812703          	lw	a4,248(sp)
    8f74:	01b787b3          	add	a5,a5,s11
    8f78:	019ba023          	sw	s9,0(s7)
    8f7c:	00170713          	addi	a4,a4,1
    8f80:	01bba223          	sw	s11,4(s7)
    8f84:	0ef12e23          	sw	a5,252(sp)
    8f88:	0ee12c23          	sw	a4,248(sp)
    8f8c:	00700693          	li	a3,7
    8f90:	54e6cc63          	blt	a3,a4,94e8 <_svfprintf_r+0x7f8>
    8f94:	008b8b93          	addi	s7,s7,8
    8f98:	004a7a13          	andi	s4,s4,4
    8f9c:	000a0663          	beqz	s4,8fa8 <_svfprintf_r+0x2b8>
    8fa0:	415984b3          	sub	s1,s3,s5
    8fa4:	56904263          	bgtz	s1,9508 <_svfprintf_r+0x818>
    8fa8:	0159d463          	bge	s3,s5,8fb0 <_svfprintf_r+0x2c0>
    8fac:	000a8993          	mv	s3,s5
    8fb0:	00812703          	lw	a4,8(sp)
    8fb4:	01370733          	add	a4,a4,s3
    8fb8:	00e12423          	sw	a4,8(sp)
    8fbc:	4e0790e3          	bnez	a5,9c9c <_svfprintf_r+0xfac>
    8fc0:	00c12783          	lw	a5,12(sp)
    8fc4:	0e012c23          	sw	zero,248(sp)
    8fc8:	00078863          	beqz	a5,8fd8 <_svfprintf_r+0x2e8>
    8fcc:	00c12583          	lw	a1,12(sp)
    8fd0:	000d0513          	mv	a0,s10
    8fd4:	eacfa0ef          	jal	ra,3680 <_free_r>
    8fd8:	11c10b93          	addi	s7,sp,284
    8fdc:	00040c93          	mv	s9,s0
    8fe0:	000cc783          	lbu	a5,0(s9)
    8fe4:	dc079ee3          	bnez	a5,8dc0 <_svfprintf_r+0xd0>
    8fe8:	0fc12783          	lw	a5,252(sp)
    8fec:	00078463          	beqz	a5,8ff4 <_svfprintf_r+0x304>
    8ff0:	34d0106f          	j	ab3c <_svfprintf_r+0x1e4c>
    8ff4:	02412783          	lw	a5,36(sp)
    8ff8:	00c7d783          	lhu	a5,12(a5)
    8ffc:	0407f793          	andi	a5,a5,64
    9000:	00078463          	beqz	a5,9008 <_svfprintf_r+0x318>
    9004:	44c0206f          	j	b450 <_svfprintf_r+0x2760>
    9008:	1fc12083          	lw	ra,508(sp)
    900c:	1f812403          	lw	s0,504(sp)
    9010:	00812503          	lw	a0,8(sp)
    9014:	1f412483          	lw	s1,500(sp)
    9018:	1f012903          	lw	s2,496(sp)
    901c:	1ec12983          	lw	s3,492(sp)
    9020:	1e812a03          	lw	s4,488(sp)
    9024:	1e412a83          	lw	s5,484(sp)
    9028:	1e012b03          	lw	s6,480(sp)
    902c:	1dc12b83          	lw	s7,476(sp)
    9030:	1d812c03          	lw	s8,472(sp)
    9034:	1d412c83          	lw	s9,468(sp)
    9038:	1d012d03          	lw	s10,464(sp)
    903c:	1cc12d83          	lw	s11,460(sp)
    9040:	20010113          	addi	sp,sp,512
    9044:	00008067          	ret
    9048:	000d0513          	mv	a0,s10
    904c:	e88fd0ef          	jal	ra,66d4 <_localeconv_r>
    9050:	00452783          	lw	a5,4(a0)
    9054:	00078513          	mv	a0,a5
    9058:	04f12223          	sw	a5,68(sp)
    905c:	b61ff0ef          	jal	ra,8bbc <strlen>
    9060:	00050793          	mv	a5,a0
    9064:	000d0513          	mv	a0,s10
    9068:	00078493          	mv	s1,a5
    906c:	04f12023          	sw	a5,64(sp)
    9070:	e64fd0ef          	jal	ra,66d4 <_localeconv_r>
    9074:	00852783          	lw	a5,8(a0)
    9078:	02f12c23          	sw	a5,56(sp)
    907c:	00048463          	beqz	s1,9084 <_svfprintf_r+0x394>
    9080:	1800106f          	j	a200 <_svfprintf_r+0x1510>
    9084:	00044483          	lbu	s1,0(s0)
    9088:	dbdff06f          	j	8e44 <_svfprintf_r+0x154>
    908c:	00044483          	lbu	s1,0(s0)
    9090:	020a6a13          	ori	s4,s4,32
    9094:	db1ff06f          	j	8e44 <_svfprintf_r+0x154>
    9098:	419404b3          	sub	s1,s0,s9
    909c:	d59412e3          	bne	s0,s9,8de0 <_svfprintf_r+0xf0>
    90a0:	00044783          	lbu	a5,0(s0)
    90a4:	d79ff06f          	j	8e1c <_svfprintf_r+0x12c>
    90a8:	0f410613          	addi	a2,sp,244
    90ac:	000b0593          	mv	a1,s6
    90b0:	000d0513          	mv	a0,s10
    90b4:	0c8050ef          	jal	ra,e17c <__ssprint_r>
    90b8:	f2051ee3          	bnez	a0,8ff4 <_svfprintf_r+0x304>
    90bc:	11c10b93          	addi	s7,sp,284
    90c0:	d4dff06f          	j	8e0c <_svfprintf_r+0x11c>
    90c4:	008a7793          	andi	a5,s4,8
    90c8:	000d8313          	mv	t1,s11
    90cc:	00079463          	bnez	a5,90d4 <_svfprintf_r+0x3e4>
    90d0:	0e00106f          	j	a1b0 <_svfprintf_r+0x14c0>
    90d4:	01012703          	lw	a4,16(sp)
    90d8:	00072783          	lw	a5,0(a4)
    90dc:	00470713          	addi	a4,a4,4
    90e0:	00e12823          	sw	a4,16(sp)
    90e4:	0007a603          	lw	a2,0(a5)
    90e8:	0047a683          	lw	a3,4(a5)
    90ec:	0087a703          	lw	a4,8(a5)
    90f0:	00c7a783          	lw	a5,12(a5)
    90f4:	10c12023          	sw	a2,256(sp)
    90f8:	10d12223          	sw	a3,260(sp)
    90fc:	10e12423          	sw	a4,264(sp)
    9100:	10f12623          	sw	a5,268(sp)
    9104:	10010513          	addi	a0,sp,256
    9108:	00612623          	sw	t1,12(sp)
    910c:	d48fd0ef          	jal	ra,6654 <_ldcheck>
    9110:	0ca12e23          	sw	a0,220(sp)
    9114:	00200793          	li	a5,2
    9118:	00c12303          	lw	t1,12(sp)
    911c:	00f51463          	bne	a0,a5,9124 <_svfprintf_r+0x434>
    9120:	6940106f          	j	a7b4 <_svfprintf_r+0x1ac4>
    9124:	00100793          	li	a5,1
    9128:	00f51463          	bne	a0,a5,9130 <_svfprintf_r+0x440>
    912c:	0890106f          	j	a9b4 <_svfprintf_r+0x1cc4>
    9130:	06100793          	li	a5,97
    9134:	00f49463          	bne	s1,a5,913c <_svfprintf_r+0x44c>
    9138:	2740206f          	j	b3ac <_svfprintf_r+0x26bc>
    913c:	04100793          	li	a5,65
    9140:	00f49463          	bne	s1,a5,9148 <_svfprintf_r+0x458>
    9144:	5690106f          	j	aeac <_svfprintf_r+0x21bc>
    9148:	fdf4f713          	andi	a4,s1,-33
    914c:	fff00793          	li	a5,-1
    9150:	02e12e23          	sw	a4,60(sp)
    9154:	00f31463          	bne	t1,a5,915c <_svfprintf_r+0x46c>
    9158:	22d0106f          	j	ab84 <_svfprintf_r+0x1e94>
    915c:	04700793          	li	a5,71
    9160:	00f71463          	bne	a4,a5,9168 <_svfprintf_r+0x478>
    9164:	2dc0206f          	j	b440 <_svfprintf_r+0x2750>
    9168:	10c12e03          	lw	t3,268(sp)
    916c:	05412823          	sw	s4,80(sp)
    9170:	10012e83          	lw	t4,256(sp)
    9174:	10412f03          	lw	t5,260(sp)
    9178:	10812f83          	lw	t6,264(sp)
    917c:	100a6793          	ori	a5,s4,256
    9180:	000e5463          	bgez	t3,9188 <_svfprintf_r+0x498>
    9184:	1340206f          	j	b2b8 <_svfprintf_r+0x25c8>
    9188:	06012423          	sw	zero,104(sp)
    918c:	00078a13          	mv	s4,a5
    9190:	00012623          	sw	zero,12(sp)
    9194:	03c12703          	lw	a4,60(sp)
    9198:	04600793          	li	a5,70
    919c:	00f71463          	bne	a4,a5,91a4 <_svfprintf_r+0x4b4>
    91a0:	2d50106f          	j	ac74 <_svfprintf_r+0x1f84>
    91a4:	04500793          	li	a5,69
    91a8:	00f71463          	bne	a4,a5,91b0 <_svfprintf_r+0x4c0>
    91ac:	2180206f          	j	b3c4 <_svfprintf_r+0x26d4>
    91b0:	0c010d93          	addi	s11,sp,192
    91b4:	0e010793          	addi	a5,sp,224
    91b8:	0dc10713          	addi	a4,sp,220
    91bc:	00030693          	mv	a3,t1
    91c0:	0ec10813          	addi	a6,sp,236
    91c4:	00200613          	li	a2,2
    91c8:	000d8593          	mv	a1,s11
    91cc:	000d0513          	mv	a0,s10
    91d0:	04612423          	sw	t1,72(sp)
    91d4:	0dd12023          	sw	t4,192(sp)
    91d8:	03d12023          	sw	t4,32(sp)
    91dc:	0de12223          	sw	t5,196(sp)
    91e0:	01e12e23          	sw	t5,28(sp)
    91e4:	0df12423          	sw	t6,200(sp)
    91e8:	01f12c23          	sw	t6,24(sp)
    91ec:	0dc12623          	sw	t3,204(sp)
    91f0:	01c12a23          	sw	t3,20(sp)
    91f4:	9e0fc0ef          	jal	ra,53d4 <_ldtoa_r>
    91f8:	03c12703          	lw	a4,60(sp)
    91fc:	04700793          	li	a5,71
    9200:	01412e03          	lw	t3,20(sp)
    9204:	01812f83          	lw	t6,24(sp)
    9208:	01c12f03          	lw	t5,28(sp)
    920c:	02012e83          	lw	t4,32(sp)
    9210:	04812303          	lw	t1,72(sp)
    9214:	00050c93          	mv	s9,a0
    9218:	00f70463          	beq	a4,a5,9220 <_svfprintf_r+0x530>
    921c:	4d80206f          	j	b6f4 <_svfprintf_r+0x2a04>
    9220:	05012783          	lw	a5,80(sp)
    9224:	0017f793          	andi	a5,a5,1
    9228:	00078463          	beqz	a5,9230 <_svfprintf_r+0x540>
    922c:	2080206f          	j	b434 <_svfprintf_r+0x2744>
    9230:	0ec12783          	lw	a5,236(sp)
    9234:	419787b3          	sub	a5,a5,s9
    9238:	00f12c23          	sw	a5,24(sp)
    923c:	0dc12703          	lw	a4,220(sp)
    9240:	04700793          	li	a5,71
    9244:	00e12a23          	sw	a4,20(sp)
    9248:	03c12703          	lw	a4,60(sp)
    924c:	00f71463          	bne	a4,a5,9254 <_svfprintf_r+0x564>
    9250:	1710106f          	j	abc0 <_svfprintf_r+0x1ed0>
    9254:	03c12703          	lw	a4,60(sp)
    9258:	04600793          	li	a5,70
    925c:	00f71463          	bne	a4,a5,9264 <_svfprintf_r+0x574>
    9260:	4290106f          	j	ae88 <_svfprintf_r+0x2198>
    9264:	01412783          	lw	a5,20(sp)
    9268:	03c12583          	lw	a1,60(sp)
    926c:	04100613          	li	a2,65
    9270:	fff78793          	addi	a5,a5,-1
    9274:	0cf12e23          	sw	a5,220(sp)
    9278:	0ff4f713          	zext.b	a4,s1
    927c:	00000693          	li	a3,0
    9280:	00c59863          	bne	a1,a2,9290 <_svfprintf_r+0x5a0>
    9284:	00f70713          	addi	a4,a4,15
    9288:	0ff77713          	zext.b	a4,a4
    928c:	00100693          	li	a3,1
    9290:	0ee10223          	sb	a4,228(sp)
    9294:	02b00713          	li	a4,43
    9298:	0007da63          	bgez	a5,92ac <_svfprintf_r+0x5bc>
    929c:	01412703          	lw	a4,20(sp)
    92a0:	00100793          	li	a5,1
    92a4:	40e787b3          	sub	a5,a5,a4
    92a8:	02d00713          	li	a4,45
    92ac:	0ee102a3          	sb	a4,229(sp)
    92b0:	00900713          	li	a4,9
    92b4:	00f74463          	blt	a4,a5,92bc <_svfprintf_r+0x5cc>
    92b8:	2380206f          	j	b4f0 <_svfprintf_r+0x2800>
    92bc:	0f310513          	addi	a0,sp,243
    92c0:	00050593          	mv	a1,a0
    92c4:	00a00693          	li	a3,10
    92c8:	06300e13          	li	t3,99
    92cc:	02d7e733          	rem	a4,a5,a3
    92d0:	00058613          	mv	a2,a1
    92d4:	00078813          	mv	a6,a5
    92d8:	fff58593          	addi	a1,a1,-1
    92dc:	03070713          	addi	a4,a4,48
    92e0:	fee60fa3          	sb	a4,-1(a2)
    92e4:	02d7c7b3          	div	a5,a5,a3
    92e8:	ff0e42e3          	blt	t3,a6,92cc <_svfprintf_r+0x5dc>
    92ec:	03078793          	addi	a5,a5,48
    92f0:	0ff7f693          	zext.b	a3,a5
    92f4:	fed58fa3          	sb	a3,-1(a1)
    92f8:	ffe60793          	addi	a5,a2,-2
    92fc:	00a7e463          	bltu	a5,a0,9304 <_svfprintf_r+0x614>
    9300:	4080206f          	j	b708 <_svfprintf_r+0x2a18>
    9304:	0e610713          	addi	a4,sp,230
    9308:	0080006f          	j	9310 <_svfprintf_r+0x620>
    930c:	0007c683          	lbu	a3,0(a5)
    9310:	00d70023          	sb	a3,0(a4)
    9314:	00178793          	addi	a5,a5,1
    9318:	00170713          	addi	a4,a4,1
    931c:	fea798e3          	bne	a5,a0,930c <_svfprintf_r+0x61c>
    9320:	0f510793          	addi	a5,sp,245
    9324:	0e610713          	addi	a4,sp,230
    9328:	40c787b3          	sub	a5,a5,a2
    932c:	00f707b3          	add	a5,a4,a5
    9330:	0e410713          	addi	a4,sp,228
    9334:	40e787b3          	sub	a5,a5,a4
    9338:	02f12a23          	sw	a5,52(sp)
    933c:	03412683          	lw	a3,52(sp)
    9340:	01812703          	lw	a4,24(sp)
    9344:	00100793          	li	a5,1
    9348:	00e68db3          	add	s11,a3,a4
    934c:	00e7c463          	blt	a5,a4,9354 <_svfprintf_r+0x664>
    9350:	2ec0206f          	j	b63c <_svfprintf_r+0x294c>
    9354:	02812783          	lw	a5,40(sp)
    9358:	00fd8db3          	add	s11,s11,a5
    935c:	05012783          	lw	a5,80(sp)
    9360:	fffdca93          	not	s5,s11
    9364:	41fada93          	srai	s5,s5,0x1f
    9368:	bff7fa13          	andi	s4,a5,-1025
    936c:	100a6a13          	ori	s4,s4,256
    9370:	015dfab3          	and	s5,s11,s5
    9374:	02012023          	sw	zero,32(sp)
    9378:	00012e23          	sw	zero,28(sp)
    937c:	00012a23          	sw	zero,20(sp)
    9380:	06812783          	lw	a5,104(sp)
    9384:	00079463          	bnez	a5,938c <_svfprintf_r+0x69c>
    9388:	0ad0106f          	j	ac34 <_svfprintf_r+0x1f44>
    938c:	02d00793          	li	a5,45
    9390:	0cf10ba3          	sb	a5,215(sp)
    9394:	00000313          	li	t1,0
    9398:	001a8a93          	addi	s5,s5,1
    939c:	b31ff06f          	j	8ecc <_svfprintf_r+0x1dc>
    93a0:	0f410613          	addi	a2,sp,244
    93a4:	000b0593          	mv	a1,s6
    93a8:	000d0513          	mv	a0,s10
    93ac:	04612423          	sw	t1,72(sp)
    93b0:	03e12e23          	sw	t5,60(sp)
    93b4:	5c9040ef          	jal	ra,e17c <__ssprint_r>
    93b8:	0e051ce3          	bnez	a0,9cb0 <_svfprintf_r+0xfc0>
    93bc:	0fc12783          	lw	a5,252(sp)
    93c0:	04812303          	lw	t1,72(sp)
    93c4:	03c12f03          	lw	t5,60(sp)
    93c8:	11c10b93          	addi	s7,sp,284
    93cc:	b59ff06f          	j	8f24 <_svfprintf_r+0x234>
    93d0:	0f812703          	lw	a4,248(sp)
    93d4:	00178d93          	addi	s11,a5,1
    93d8:	01812783          	lw	a5,24(sp)
    93dc:	00100693          	li	a3,1
    93e0:	019ba023          	sw	s9,0(s7)
    93e4:	00170493          	addi	s1,a4,1
    93e8:	008b8913          	addi	s2,s7,8
    93ec:	3af6dee3          	bge	a3,a5,9fa8 <_svfprintf_r+0x12b8>
    93f0:	00100793          	li	a5,1
    93f4:	00fba223          	sw	a5,4(s7)
    93f8:	0fb12e23          	sw	s11,252(sp)
    93fc:	0e912c23          	sw	s1,248(sp)
    9400:	00700793          	li	a5,7
    9404:	4e97c6e3          	blt	a5,s1,a0f0 <_svfprintf_r+0x1400>
    9408:	02812783          	lw	a5,40(sp)
    940c:	02c12703          	lw	a4,44(sp)
    9410:	00148493          	addi	s1,s1,1
    9414:	00fd8db3          	add	s11,s11,a5
    9418:	00f92223          	sw	a5,4(s2)
    941c:	00e92023          	sw	a4,0(s2)
    9420:	0fb12e23          	sw	s11,252(sp)
    9424:	0e912c23          	sw	s1,248(sp)
    9428:	00700793          	li	a5,7
    942c:	00890913          	addi	s2,s2,8
    9430:	4e97c2e3          	blt	a5,s1,a114 <_svfprintf_r+0x1424>
    9434:	10012783          	lw	a5,256(sp)
    9438:	00148693          	addi	a3,s1,1
    943c:	0b010593          	addi	a1,sp,176
    9440:	0cf12023          	sw	a5,192(sp)
    9444:	10412783          	lw	a5,260(sp)
    9448:	0c010513          	addi	a0,sp,192
    944c:	00d12a23          	sw	a3,20(sp)
    9450:	0cf12223          	sw	a5,196(sp)
    9454:	10812783          	lw	a5,264(sp)
    9458:	0a012823          	sw	zero,176(sp)
    945c:	0a012a23          	sw	zero,180(sp)
    9460:	0cf12423          	sw	a5,200(sp)
    9464:	10c12783          	lw	a5,268(sp)
    9468:	0a012c23          	sw	zero,184(sp)
    946c:	0a012e23          	sw	zero,188(sp)
    9470:	0cf12623          	sw	a5,204(sp)
    9474:	6a1070ef          	jal	ra,11314 <__eqtf2>
    9478:	01412683          	lw	a3,20(sp)
    947c:	01812783          	lw	a5,24(sp)
    9480:	00890b93          	addi	s7,s2,8
    9484:	00068713          	mv	a4,a3
    9488:	fff78793          	addi	a5,a5,-1
    948c:	340502e3          	beqz	a0,9fd0 <_svfprintf_r+0x12e0>
    9490:	00fd8db3          	add	s11,s11,a5
    9494:	001c8813          	addi	a6,s9,1
    9498:	00f92223          	sw	a5,4(s2)
    949c:	01092023          	sw	a6,0(s2)
    94a0:	0fb12e23          	sw	s11,252(sp)
    94a4:	0ed12c23          	sw	a3,248(sp)
    94a8:	00700793          	li	a5,7
    94ac:	00d7d463          	bge	a5,a3,94b4 <_svfprintf_r+0x7c4>
    94b0:	0a00106f          	j	a550 <_svfprintf_r+0x1860>
    94b4:	01090793          	addi	a5,s2,16
    94b8:	00248713          	addi	a4,s1,2
    94bc:	000b8913          	mv	s2,s7
    94c0:	00078b93          	mv	s7,a5
    94c4:	03412603          	lw	a2,52(sp)
    94c8:	0e410693          	addi	a3,sp,228
    94cc:	00d92023          	sw	a3,0(s2)
    94d0:	00cd87b3          	add	a5,s11,a2
    94d4:	00c92223          	sw	a2,4(s2)
    94d8:	0ef12e23          	sw	a5,252(sp)
    94dc:	0ee12c23          	sw	a4,248(sp)
    94e0:	00700693          	li	a3,7
    94e4:	aae6dae3          	bge	a3,a4,8f98 <_svfprintf_r+0x2a8>
    94e8:	0f410613          	addi	a2,sp,244
    94ec:	000b0593          	mv	a1,s6
    94f0:	000d0513          	mv	a0,s10
    94f4:	489040ef          	jal	ra,e17c <__ssprint_r>
    94f8:	7a051c63          	bnez	a0,9cb0 <_svfprintf_r+0xfc0>
    94fc:	0fc12783          	lw	a5,252(sp)
    9500:	11c10b93          	addi	s7,sp,284
    9504:	a95ff06f          	j	8f98 <_svfprintf_r+0x2a8>
    9508:	00017e17          	auipc	t3,0x17
    950c:	3a0e0e13          	addi	t3,t3,928 # 208a8 <blanks.1>
    9510:	0f812703          	lw	a4,248(sp)
    9514:	00700913          	li	s2,7
    9518:	000e0a13          	mv	s4,t3
    951c:	009c4863          	blt	s8,s1,952c <_svfprintf_r+0x83c>
    9520:	0580006f          	j	9578 <_svfprintf_r+0x888>
    9524:	ff048493          	addi	s1,s1,-16
    9528:	049c5663          	bge	s8,s1,9574 <_svfprintf_r+0x884>
    952c:	01078793          	addi	a5,a5,16
    9530:	00170713          	addi	a4,a4,1
    9534:	014ba023          	sw	s4,0(s7)
    9538:	018ba223          	sw	s8,4(s7)
    953c:	0ef12e23          	sw	a5,252(sp)
    9540:	0ee12c23          	sw	a4,248(sp)
    9544:	008b8b93          	addi	s7,s7,8
    9548:	fce95ee3          	bge	s2,a4,9524 <_svfprintf_r+0x834>
    954c:	0f410613          	addi	a2,sp,244
    9550:	000b0593          	mv	a1,s6
    9554:	000d0513          	mv	a0,s10
    9558:	425040ef          	jal	ra,e17c <__ssprint_r>
    955c:	74051a63          	bnez	a0,9cb0 <_svfprintf_r+0xfc0>
    9560:	ff048493          	addi	s1,s1,-16
    9564:	0fc12783          	lw	a5,252(sp)
    9568:	0f812703          	lw	a4,248(sp)
    956c:	11c10b93          	addi	s7,sp,284
    9570:	fa9c4ee3          	blt	s8,s1,952c <_svfprintf_r+0x83c>
    9574:	000a0e13          	mv	t3,s4
    9578:	009787b3          	add	a5,a5,s1
    957c:	00170713          	addi	a4,a4,1
    9580:	01cba023          	sw	t3,0(s7)
    9584:	009ba223          	sw	s1,4(s7)
    9588:	0ef12e23          	sw	a5,252(sp)
    958c:	0ee12c23          	sw	a4,248(sp)
    9590:	00700693          	li	a3,7
    9594:	a0e6dae3          	bge	a3,a4,8fa8 <_svfprintf_r+0x2b8>
    9598:	0f410613          	addi	a2,sp,244
    959c:	000b0593          	mv	a1,s6
    95a0:	000d0513          	mv	a0,s10
    95a4:	3d9040ef          	jal	ra,e17c <__ssprint_r>
    95a8:	70051463          	bnez	a0,9cb0 <_svfprintf_r+0xfc0>
    95ac:	0fc12783          	lw	a5,252(sp)
    95b0:	9f9ff06f          	j	8fa8 <_svfprintf_r+0x2b8>
    95b4:	01012783          	lw	a5,16(sp)
    95b8:	0c010ba3          	sb	zero,215(sp)
    95bc:	0007ac83          	lw	s9,0(a5)
    95c0:	00478913          	addi	s2,a5,4
    95c4:	000c9463          	bnez	s9,95cc <_svfprintf_r+0x8dc>
    95c8:	27c0106f          	j	a844 <_svfprintf_r+0x1b54>
    95cc:	fff00793          	li	a5,-1
    95d0:	5afd8ee3          	beq	s11,a5,a38c <_svfprintf_r+0x169c>
    95d4:	000d8613          	mv	a2,s11
    95d8:	00000593          	li	a1,0
    95dc:	000c8513          	mv	a0,s9
    95e0:	01b12823          	sw	s11,16(sp)
    95e4:	cadfd0ef          	jal	ra,7290 <memchr>
    95e8:	00a12623          	sw	a0,12(sp)
    95ec:	01012303          	lw	t1,16(sp)
    95f0:	00051463          	bnez	a0,95f8 <_svfprintf_r+0x908>
    95f4:	0050106f          	j	adf8 <_svfprintf_r+0x2108>
    95f8:	00c12783          	lw	a5,12(sp)
    95fc:	41978db3          	sub	s11,a5,s9
    9600:	0d714783          	lbu	a5,215(sp)
    9604:	fffdca93          	not	s5,s11
    9608:	41fada93          	srai	s5,s5,0x1f
    960c:	01212823          	sw	s2,16(sp)
    9610:	00012623          	sw	zero,12(sp)
    9614:	02012023          	sw	zero,32(sp)
    9618:	00012e23          	sw	zero,28(sp)
    961c:	00012a23          	sw	zero,20(sp)
    9620:	015dfab3          	and	s5,s11,s5
    9624:	00000313          	li	t1,0
    9628:	8a0782e3          	beqz	a5,8ecc <_svfprintf_r+0x1dc>
    962c:	001a8a93          	addi	s5,s5,1
    9630:	89dff06f          	j	8ecc <_svfprintf_r+0x1dc>
    9634:	01012703          	lw	a4,16(sp)
    9638:	0c010ba3          	sb	zero,215(sp)
    963c:	00100a93          	li	s5,1
    9640:	00072783          	lw	a5,0(a4)
    9644:	00470713          	addi	a4,a4,4
    9648:	00e12823          	sw	a4,16(sp)
    964c:	14f10e23          	sb	a5,348(sp)
    9650:	00100d93          	li	s11,1
    9654:	15c10c93          	addi	s9,sp,348
    9658:	861ff06f          	j	8eb8 <_svfprintf_r+0x1c8>
    965c:	00044483          	lbu	s1,0(s0)
    9660:	06800793          	li	a5,104
    9664:	44f480e3          	beq	s1,a5,a2a4 <_svfprintf_r+0x15b4>
    9668:	040a6a13          	ori	s4,s4,64
    966c:	fd8ff06f          	j	8e44 <_svfprintf_r+0x154>
    9670:	01012683          	lw	a3,16(sp)
    9674:	020a7793          	andi	a5,s4,32
    9678:	0006a703          	lw	a4,0(a3)
    967c:	00468693          	addi	a3,a3,4
    9680:	00d12823          	sw	a3,16(sp)
    9684:	30079ae3          	bnez	a5,a198 <_svfprintf_r+0x14a8>
    9688:	010a7793          	andi	a5,s4,16
    968c:	00078463          	beqz	a5,9694 <_svfprintf_r+0x9a4>
    9690:	1a40106f          	j	a834 <_svfprintf_r+0x1b44>
    9694:	040a7793          	andi	a5,s4,64
    9698:	00078463          	beqz	a5,96a0 <_svfprintf_r+0x9b0>
    969c:	42c0106f          	j	aac8 <_svfprintf_r+0x1dd8>
    96a0:	200a7a13          	andi	s4,s4,512
    96a4:	000a1463          	bnez	s4,96ac <_svfprintf_r+0x9bc>
    96a8:	18c0106f          	j	a834 <_svfprintf_r+0x1b44>
    96ac:	00812783          	lw	a5,8(sp)
    96b0:	00040c93          	mv	s9,s0
    96b4:	00f70023          	sb	a5,0(a4)
    96b8:	929ff06f          	j	8fe0 <_svfprintf_r+0x2f0>
    96bc:	00044483          	lbu	s1,0(s0)
    96c0:	06c00793          	li	a5,108
    96c4:	3ef488e3          	beq	s1,a5,a2b4 <_svfprintf_r+0x15c4>
    96c8:	010a6a13          	ori	s4,s4,16
    96cc:	f78ff06f          	j	8e44 <_svfprintf_r+0x154>
    96d0:	01012703          	lw	a4,16(sp)
    96d4:	ffff87b7          	lui	a5,0xffff8
    96d8:	8307c793          	xori	a5,a5,-2000
    96dc:	000d8313          	mv	t1,s11
    96e0:	0cf11c23          	sh	a5,216(sp)
    96e4:	00072d83          	lw	s11,0(a4)
    96e8:	00470793          	addi	a5,a4,4
    96ec:	00f12823          	sw	a5,16(sp)
    96f0:	00017797          	auipc	a5,0x17
    96f4:	9a078793          	addi	a5,a5,-1632 # 20090 <__malloc_trim_threshold+0x58>
    96f8:	02f12823          	sw	a5,48(sp)
    96fc:	00000913          	li	s2,0
    9700:	002a6a93          	ori	s5,s4,2
    9704:	00200793          	li	a5,2
    9708:	07800493          	li	s1,120
    970c:	0c010ba3          	sb	zero,215(sp)
    9710:	fff00693          	li	a3,-1
    9714:	1ed30663          	beq	t1,a3,9900 <_svfprintf_r+0xc10>
    9718:	012de6b3          	or	a3,s11,s2
    971c:	f7fafa13          	andi	s4,s5,-129
    9720:	1c069e63          	bnez	a3,98fc <_svfprintf_r+0xc0c>
    9724:	24031463          	bnez	t1,996c <_svfprintf_r+0xc7c>
    9728:	060798e3          	bnez	a5,9f98 <_svfprintf_r+0x12a8>
    972c:	001afd93          	andi	s11,s5,1
    9730:	1c010c93          	addi	s9,sp,448
    9734:	200d9ee3          	bnez	s11,a150 <_svfprintf_r+0x1460>
    9738:	0d714783          	lbu	a5,215(sp)
    973c:	00030a93          	mv	s5,t1
    9740:	01b35463          	bge	t1,s11,9748 <_svfprintf_r+0xa58>
    9744:	000d8a93          	mv	s5,s11
    9748:	00012623          	sw	zero,12(sp)
    974c:	02012023          	sw	zero,32(sp)
    9750:	00012e23          	sw	zero,28(sp)
    9754:	00012a23          	sw	zero,20(sp)
    9758:	ec079ae3          	bnez	a5,962c <_svfprintf_r+0x93c>
    975c:	f70ff06f          	j	8ecc <_svfprintf_r+0x1dc>
    9760:	000d8313          	mv	t1,s11
    9764:	010a6a13          	ori	s4,s4,16
    9768:	020a7793          	andi	a5,s4,32
    976c:	0c078ae3          	beqz	a5,a040 <_svfprintf_r+0x1350>
    9770:	01012783          	lw	a5,16(sp)
    9774:	00778c93          	addi	s9,a5,7
    9778:	ff8cfc93          	andi	s9,s9,-8
    977c:	000cad83          	lw	s11,0(s9)
    9780:	004ca903          	lw	s2,4(s9)
    9784:	008c8793          	addi	a5,s9,8
    9788:	00f12823          	sw	a5,16(sp)
    978c:	bffa7a93          	andi	s5,s4,-1025
    9790:	00000793          	li	a5,0
    9794:	f79ff06f          	j	970c <_svfprintf_r+0xa1c>
    9798:	000d8313          	mv	t1,s11
    979c:	010a6a93          	ori	s5,s4,16
    97a0:	020af793          	andi	a5,s5,32
    97a4:	0c0784e3          	beqz	a5,a06c <_svfprintf_r+0x137c>
    97a8:	01012783          	lw	a5,16(sp)
    97ac:	00778c93          	addi	s9,a5,7
    97b0:	ff8cfc93          	andi	s9,s9,-8
    97b4:	008c8793          	addi	a5,s9,8
    97b8:	00f12823          	sw	a5,16(sp)
    97bc:	000cad83          	lw	s11,0(s9)
    97c0:	004ca903          	lw	s2,4(s9)
    97c4:	00100793          	li	a5,1
    97c8:	f45ff06f          	j	970c <_svfprintf_r+0xa1c>
    97cc:	00044483          	lbu	s1,0(s0)
    97d0:	080a6a13          	ori	s4,s4,128
    97d4:	e70ff06f          	j	8e44 <_svfprintf_r+0x154>
    97d8:	00044483          	lbu	s1,0(s0)
    97dc:	008a6a13          	ori	s4,s4,8
    97e0:	e64ff06f          	j	8e44 <_svfprintf_r+0x154>
    97e4:	000d8313          	mv	t1,s11
    97e8:	010a6a13          	ori	s4,s4,16
    97ec:	020a7793          	andi	a5,s4,32
    97f0:	0a0786e3          	beqz	a5,a09c <_svfprintf_r+0x13ac>
    97f4:	01012783          	lw	a5,16(sp)
    97f8:	00778c93          	addi	s9,a5,7
    97fc:	ff8cfc93          	andi	s9,s9,-8
    9800:	004ca783          	lw	a5,4(s9)
    9804:	000cad83          	lw	s11,0(s9)
    9808:	008c8713          	addi	a4,s9,8
    980c:	00e12823          	sw	a4,16(sp)
    9810:	00078913          	mv	s2,a5
    9814:	0a07cce3          	bltz	a5,a0cc <_svfprintf_r+0x13dc>
    9818:	fff00793          	li	a5,-1
    981c:	000a0a93          	mv	s5,s4
    9820:	00f30863          	beq	t1,a5,9830 <_svfprintf_r+0xb40>
    9824:	012de7b3          	or	a5,s11,s2
    9828:	f7fa7a93          	andi	s5,s4,-129
    982c:	76078263          	beqz	a5,9f90 <_svfprintf_r+0x12a0>
    9830:	540916e3          	bnez	s2,a57c <_svfprintf_r+0x188c>
    9834:	00900793          	li	a5,9
    9838:	55b7e2e3          	bltu	a5,s11,a57c <_svfprintf_r+0x188c>
    983c:	030d8d93          	addi	s11,s11,48
    9840:	1bb10fa3          	sb	s11,447(sp)
    9844:	000a8a13          	mv	s4,s5
    9848:	00100d93          	li	s11,1
    984c:	1bf10c93          	addi	s9,sp,447
    9850:	ee9ff06f          	j	9738 <_svfprintf_r+0xa48>
    9854:	01012783          	lw	a5,16(sp)
    9858:	00044483          	lbu	s1,0(s0)
    985c:	0007a983          	lw	s3,0(a5)
    9860:	00478793          	addi	a5,a5,4
    9864:	00f12823          	sw	a5,16(sp)
    9868:	dc09de63          	bgez	s3,8e44 <_svfprintf_r+0x154>
    986c:	413009b3          	neg	s3,s3
    9870:	004a6a13          	ori	s4,s4,4
    9874:	dd0ff06f          	j	8e44 <_svfprintf_r+0x154>
    9878:	00044483          	lbu	s1,0(s0)
    987c:	001a6a13          	ori	s4,s4,1
    9880:	dc4ff06f          	j	8e44 <_svfprintf_r+0x154>
    9884:	0d714783          	lbu	a5,215(sp)
    9888:	00044483          	lbu	s1,0(s0)
    988c:	da079c63          	bnez	a5,8e44 <_svfprintf_r+0x154>
    9890:	02000793          	li	a5,32
    9894:	0cf10ba3          	sb	a5,215(sp)
    9898:	dacff06f          	j	8e44 <_svfprintf_r+0x154>
    989c:	00044483          	lbu	s1,0(s0)
    98a0:	004a6a13          	ori	s4,s4,4
    98a4:	da0ff06f          	j	8e44 <_svfprintf_r+0x154>
    98a8:	02b00793          	li	a5,43
    98ac:	00044483          	lbu	s1,0(s0)
    98b0:	0cf10ba3          	sb	a5,215(sp)
    98b4:	d90ff06f          	j	8e44 <_svfprintf_r+0x154>
    98b8:	00044483          	lbu	s1,0(s0)
    98bc:	00140693          	addi	a3,s0,1
    98c0:	01549463          	bne	s1,s5,98c8 <_svfprintf_r+0xbd8>
    98c4:	5e10106f          	j	b6a4 <_svfprintf_r+0x29b4>
    98c8:	fd048613          	addi	a2,s1,-48
    98cc:	00068413          	mv	s0,a3
    98d0:	00000d93          	li	s11,0
    98d4:	d6c96c63          	bltu	s2,a2,8e4c <_svfprintf_r+0x15c>
    98d8:	00044483          	lbu	s1,0(s0)
    98dc:	002d9793          	slli	a5,s11,0x2
    98e0:	01b787b3          	add	a5,a5,s11
    98e4:	00179793          	slli	a5,a5,0x1
    98e8:	00c78db3          	add	s11,a5,a2
    98ec:	fd048613          	addi	a2,s1,-48
    98f0:	00140413          	addi	s0,s0,1
    98f4:	fec972e3          	bgeu	s2,a2,98d8 <_svfprintf_r+0xbe8>
    98f8:	d54ff06f          	j	8e4c <_svfprintf_r+0x15c>
    98fc:	000a0a93          	mv	s5,s4
    9900:	00100693          	li	a3,1
    9904:	f2d786e3          	beq	a5,a3,9830 <_svfprintf_r+0xb40>
    9908:	00200693          	li	a3,2
    990c:	06d78c63          	beq	a5,a3,9984 <_svfprintf_r+0xc94>
    9910:	1c010c93          	addi	s9,sp,448
    9914:	01d91713          	slli	a4,s2,0x1d
    9918:	007df793          	andi	a5,s11,7
    991c:	003ddd93          	srli	s11,s11,0x3
    9920:	03078793          	addi	a5,a5,48
    9924:	01b76db3          	or	s11,a4,s11
    9928:	00395913          	srli	s2,s2,0x3
    992c:	fefc8fa3          	sb	a5,-1(s9)
    9930:	012de733          	or	a4,s11,s2
    9934:	000c8613          	mv	a2,s9
    9938:	fffc8c93          	addi	s9,s9,-1
    993c:	fc071ce3          	bnez	a4,9914 <_svfprintf_r+0xc24>
    9940:	001af693          	andi	a3,s5,1
    9944:	06068a63          	beqz	a3,99b8 <_svfprintf_r+0xcc8>
    9948:	03000693          	li	a3,48
    994c:	06d78663          	beq	a5,a3,99b8 <_svfprintf_r+0xcc8>
    9950:	ffe60613          	addi	a2,a2,-2
    9954:	1c010793          	addi	a5,sp,448
    9958:	fedc8fa3          	sb	a3,-1(s9)
    995c:	40c78db3          	sub	s11,a5,a2
    9960:	000a8a13          	mv	s4,s5
    9964:	00060c93          	mv	s9,a2
    9968:	dd1ff06f          	j	9738 <_svfprintf_r+0xa48>
    996c:	00100713          	li	a4,1
    9970:	00e79463          	bne	a5,a4,9978 <_svfprintf_r+0xc88>
    9974:	2490106f          	j	b3bc <_svfprintf_r+0x26cc>
    9978:	00200713          	li	a4,2
    997c:	000a0a93          	mv	s5,s4
    9980:	f8e798e3          	bne	a5,a4,9910 <_svfprintf_r+0xc20>
    9984:	03012683          	lw	a3,48(sp)
    9988:	1c010c93          	addi	s9,sp,448
    998c:	00fdf793          	andi	a5,s11,15
    9990:	00f687b3          	add	a5,a3,a5
    9994:	0007c703          	lbu	a4,0(a5)
    9998:	004ddd93          	srli	s11,s11,0x4
    999c:	01c91793          	slli	a5,s2,0x1c
    99a0:	01b7edb3          	or	s11,a5,s11
    99a4:	00495913          	srli	s2,s2,0x4
    99a8:	feec8fa3          	sb	a4,-1(s9)
    99ac:	012de7b3          	or	a5,s11,s2
    99b0:	fffc8c93          	addi	s9,s9,-1
    99b4:	fc079ce3          	bnez	a5,998c <_svfprintf_r+0xc9c>
    99b8:	1c010793          	addi	a5,sp,448
    99bc:	41978db3          	sub	s11,a5,s9
    99c0:	000a8a13          	mv	s4,s5
    99c4:	d75ff06f          	j	9738 <_svfprintf_r+0xa48>
    99c8:	06500713          	li	a4,101
    99cc:	a09752e3          	bge	a4,s1,93d0 <_svfprintf_r+0x6e0>
    99d0:	10012703          	lw	a4,256(sp)
    99d4:	0b010593          	addi	a1,sp,176
    99d8:	0c010513          	addi	a0,sp,192
    99dc:	0ce12023          	sw	a4,192(sp)
    99e0:	10412703          	lw	a4,260(sp)
    99e4:	02f12e23          	sw	a5,60(sp)
    99e8:	0a012823          	sw	zero,176(sp)
    99ec:	0ce12223          	sw	a4,196(sp)
    99f0:	10812703          	lw	a4,264(sp)
    99f4:	0a012a23          	sw	zero,180(sp)
    99f8:	0a012c23          	sw	zero,184(sp)
    99fc:	0ce12423          	sw	a4,200(sp)
    9a00:	10c12703          	lw	a4,268(sp)
    9a04:	0a012e23          	sw	zero,188(sp)
    9a08:	0ce12623          	sw	a4,204(sp)
    9a0c:	109070ef          	jal	ra,11314 <__eqtf2>
    9a10:	03c12783          	lw	a5,60(sp)
    9a14:	40051663          	bnez	a0,9e20 <_svfprintf_r+0x1130>
    9a18:	0f812703          	lw	a4,248(sp)
    9a1c:	00016697          	auipc	a3,0x16
    9a20:	6a468693          	addi	a3,a3,1700 # 200c0 <__malloc_trim_threshold+0x88>
    9a24:	00dba023          	sw	a3,0(s7)
    9a28:	00178793          	addi	a5,a5,1
    9a2c:	00100693          	li	a3,1
    9a30:	00170713          	addi	a4,a4,1
    9a34:	00dba223          	sw	a3,4(s7)
    9a38:	0ef12e23          	sw	a5,252(sp)
    9a3c:	0ee12c23          	sw	a4,248(sp)
    9a40:	00700693          	li	a3,7
    9a44:	008b8b93          	addi	s7,s7,8
    9a48:	4ee6cce3          	blt	a3,a4,a740 <_svfprintf_r+0x1a50>
    9a4c:	0dc12703          	lw	a4,220(sp)
    9a50:	01812683          	lw	a3,24(sp)
    9a54:	6ed75263          	bge	a4,a3,a138 <_svfprintf_r+0x1448>
    9a58:	02c12703          	lw	a4,44(sp)
    9a5c:	02812683          	lw	a3,40(sp)
    9a60:	008b8b93          	addi	s7,s7,8
    9a64:	feebac23          	sw	a4,-8(s7)
    9a68:	0f812703          	lw	a4,248(sp)
    9a6c:	00d787b3          	add	a5,a5,a3
    9a70:	fedbae23          	sw	a3,-4(s7)
    9a74:	00170713          	addi	a4,a4,1
    9a78:	0ef12e23          	sw	a5,252(sp)
    9a7c:	0ee12c23          	sw	a4,248(sp)
    9a80:	00700693          	li	a3,7
    9a84:	04e6cae3          	blt	a3,a4,a2d8 <_svfprintf_r+0x15e8>
    9a88:	01812703          	lw	a4,24(sp)
    9a8c:	fff70493          	addi	s1,a4,-1
    9a90:	d0905463          	blez	s1,8f98 <_svfprintf_r+0x2a8>
    9a94:	0f812703          	lw	a4,248(sp)
    9a98:	4c9c54e3          	bge	s8,s1,a760 <_svfprintf_r+0x1a70>
    9a9c:	00700913          	li	s2,7
    9aa0:	00c0006f          	j	9aac <_svfprintf_r+0xdbc>
    9aa4:	ff048493          	addi	s1,s1,-16
    9aa8:	4a9c5ce3          	bge	s8,s1,a760 <_svfprintf_r+0x1a70>
    9aac:	01078793          	addi	a5,a5,16
    9ab0:	00170713          	addi	a4,a4,1
    9ab4:	00017697          	auipc	a3,0x17
    9ab8:	e0468693          	addi	a3,a3,-508 # 208b8 <zeroes.0>
    9abc:	00dba023          	sw	a3,0(s7)
    9ac0:	018ba223          	sw	s8,4(s7)
    9ac4:	0ef12e23          	sw	a5,252(sp)
    9ac8:	0ee12c23          	sw	a4,248(sp)
    9acc:	008b8b93          	addi	s7,s7,8
    9ad0:	fce95ae3          	bge	s2,a4,9aa4 <_svfprintf_r+0xdb4>
    9ad4:	0f410613          	addi	a2,sp,244
    9ad8:	000b0593          	mv	a1,s6
    9adc:	000d0513          	mv	a0,s10
    9ae0:	69c040ef          	jal	ra,e17c <__ssprint_r>
    9ae4:	1c051663          	bnez	a0,9cb0 <_svfprintf_r+0xfc0>
    9ae8:	0fc12783          	lw	a5,252(sp)
    9aec:	0f812703          	lw	a4,248(sp)
    9af0:	11c10b93          	addi	s7,sp,284
    9af4:	fb1ff06f          	j	9aa4 <_svfprintf_r+0xdb4>
    9af8:	41598933          	sub	s2,s3,s5
    9afc:	c7205263          	blez	s2,8f60 <_svfprintf_r+0x270>
    9b00:	0f812703          	lw	a4,248(sp)
    9b04:	092c5463          	bge	s8,s2,9b8c <_svfprintf_r+0xe9c>
    9b08:	02812e23          	sw	s0,60(sp)
    9b0c:	00700e13          	li	t3,7
    9b10:	000b0413          	mv	s0,s6
    9b14:	00090b13          	mv	s6,s2
    9b18:	00030913          	mv	s2,t1
    9b1c:	00c0006f          	j	9b28 <_svfprintf_r+0xe38>
    9b20:	ff0b0b13          	addi	s6,s6,-16
    9b24:	056c5c63          	bge	s8,s6,9b7c <_svfprintf_r+0xe8c>
    9b28:	01078793          	addi	a5,a5,16
    9b2c:	00170713          	addi	a4,a4,1
    9b30:	00017697          	auipc	a3,0x17
    9b34:	d8868693          	addi	a3,a3,-632 # 208b8 <zeroes.0>
    9b38:	00dba023          	sw	a3,0(s7)
    9b3c:	018ba223          	sw	s8,4(s7)
    9b40:	0ef12e23          	sw	a5,252(sp)
    9b44:	0ee12c23          	sw	a4,248(sp)
    9b48:	008b8b93          	addi	s7,s7,8
    9b4c:	fcee5ae3          	bge	t3,a4,9b20 <_svfprintf_r+0xe30>
    9b50:	0f410613          	addi	a2,sp,244
    9b54:	00040593          	mv	a1,s0
    9b58:	000d0513          	mv	a0,s10
    9b5c:	620040ef          	jal	ra,e17c <__ssprint_r>
    9b60:	14051863          	bnez	a0,9cb0 <_svfprintf_r+0xfc0>
    9b64:	ff0b0b13          	addi	s6,s6,-16
    9b68:	0fc12783          	lw	a5,252(sp)
    9b6c:	0f812703          	lw	a4,248(sp)
    9b70:	11c10b93          	addi	s7,sp,284
    9b74:	00700e13          	li	t3,7
    9b78:	fb6c48e3          	blt	s8,s6,9b28 <_svfprintf_r+0xe38>
    9b7c:	00090313          	mv	t1,s2
    9b80:	000b0913          	mv	s2,s6
    9b84:	00040b13          	mv	s6,s0
    9b88:	03c12403          	lw	s0,60(sp)
    9b8c:	00017697          	auipc	a3,0x17
    9b90:	d2c68693          	addi	a3,a3,-724 # 208b8 <zeroes.0>
    9b94:	012787b3          	add	a5,a5,s2
    9b98:	00170713          	addi	a4,a4,1
    9b9c:	00dba023          	sw	a3,0(s7)
    9ba0:	012ba223          	sw	s2,4(s7)
    9ba4:	0ef12e23          	sw	a5,252(sp)
    9ba8:	0ee12c23          	sw	a4,248(sp)
    9bac:	00700693          	li	a3,7
    9bb0:	008b8b93          	addi	s7,s7,8
    9bb4:	bae6d663          	bge	a3,a4,8f60 <_svfprintf_r+0x270>
    9bb8:	0f410613          	addi	a2,sp,244
    9bbc:	000b0593          	mv	a1,s6
    9bc0:	000d0513          	mv	a0,s10
    9bc4:	02612e23          	sw	t1,60(sp)
    9bc8:	5b4040ef          	jal	ra,e17c <__ssprint_r>
    9bcc:	0e051263          	bnez	a0,9cb0 <_svfprintf_r+0xfc0>
    9bd0:	03c12303          	lw	t1,60(sp)
    9bd4:	0fc12783          	lw	a5,252(sp)
    9bd8:	11c10b93          	addi	s7,sp,284
    9bdc:	41b30933          	sub	s2,t1,s11
    9be0:	b9205463          	blez	s2,8f68 <_svfprintf_r+0x278>
    9be4:	0f812703          	lw	a4,248(sp)
    9be8:	072c5463          	bge	s8,s2,9c50 <_svfprintf_r+0xf60>
    9bec:	00700313          	li	t1,7
    9bf0:	00c0006f          	j	9bfc <_svfprintf_r+0xf0c>
    9bf4:	ff090913          	addi	s2,s2,-16
    9bf8:	052c5c63          	bge	s8,s2,9c50 <_svfprintf_r+0xf60>
    9bfc:	01078793          	addi	a5,a5,16
    9c00:	00170713          	addi	a4,a4,1
    9c04:	00017697          	auipc	a3,0x17
    9c08:	cb468693          	addi	a3,a3,-844 # 208b8 <zeroes.0>
    9c0c:	00dba023          	sw	a3,0(s7)
    9c10:	018ba223          	sw	s8,4(s7)
    9c14:	0ef12e23          	sw	a5,252(sp)
    9c18:	0ee12c23          	sw	a4,248(sp)
    9c1c:	008b8b93          	addi	s7,s7,8
    9c20:	fce35ae3          	bge	t1,a4,9bf4 <_svfprintf_r+0xf04>
    9c24:	0f410613          	addi	a2,sp,244
    9c28:	000b0593          	mv	a1,s6
    9c2c:	000d0513          	mv	a0,s10
    9c30:	54c040ef          	jal	ra,e17c <__ssprint_r>
    9c34:	06051e63          	bnez	a0,9cb0 <_svfprintf_r+0xfc0>
    9c38:	ff090913          	addi	s2,s2,-16
    9c3c:	0fc12783          	lw	a5,252(sp)
    9c40:	0f812703          	lw	a4,248(sp)
    9c44:	11c10b93          	addi	s7,sp,284
    9c48:	00700313          	li	t1,7
    9c4c:	fb2c48e3          	blt	s8,s2,9bfc <_svfprintf_r+0xf0c>
    9c50:	00017697          	auipc	a3,0x17
    9c54:	c6868693          	addi	a3,a3,-920 # 208b8 <zeroes.0>
    9c58:	012787b3          	add	a5,a5,s2
    9c5c:	00170713          	addi	a4,a4,1
    9c60:	00dba023          	sw	a3,0(s7)
    9c64:	012ba223          	sw	s2,4(s7)
    9c68:	0ef12e23          	sw	a5,252(sp)
    9c6c:	0ee12c23          	sw	a4,248(sp)
    9c70:	00700693          	li	a3,7
    9c74:	008b8b93          	addi	s7,s7,8
    9c78:	aee6d863          	bge	a3,a4,8f68 <_svfprintf_r+0x278>
    9c7c:	0f410613          	addi	a2,sp,244
    9c80:	000b0593          	mv	a1,s6
    9c84:	000d0513          	mv	a0,s10
    9c88:	4f4040ef          	jal	ra,e17c <__ssprint_r>
    9c8c:	02051263          	bnez	a0,9cb0 <_svfprintf_r+0xfc0>
    9c90:	0fc12783          	lw	a5,252(sp)
    9c94:	11c10b93          	addi	s7,sp,284
    9c98:	ad0ff06f          	j	8f68 <_svfprintf_r+0x278>
    9c9c:	0f410613          	addi	a2,sp,244
    9ca0:	000b0593          	mv	a1,s6
    9ca4:	000d0513          	mv	a0,s10
    9ca8:	4d4040ef          	jal	ra,e17c <__ssprint_r>
    9cac:	b0050a63          	beqz	a0,8fc0 <_svfprintf_r+0x2d0>
    9cb0:	00c12b83          	lw	s7,12(sp)
    9cb4:	b40b8063          	beqz	s7,8ff4 <_svfprintf_r+0x304>
    9cb8:	000b8593          	mv	a1,s7
    9cbc:	000d0513          	mv	a0,s10
    9cc0:	9c1f90ef          	jal	ra,3680 <_free_r>
    9cc4:	b30ff06f          	j	8ff4 <_svfprintf_r+0x304>
    9cc8:	0f812703          	lw	a4,248(sp)
    9ccc:	00017e17          	auipc	t3,0x17
    9cd0:	bdce0e13          	addi	t3,t3,-1060 # 208a8 <blanks.1>
    9cd4:	0cdc5863          	bge	s8,a3,9da4 <_svfprintf_r+0x10b4>
    9cd8:	04812623          	sw	s0,76(sp)
    9cdc:	000d0413          	mv	s0,s10
    9ce0:	00068d13          	mv	s10,a3
    9ce4:	000c8693          	mv	a3,s9
    9ce8:	05212423          	sw	s2,72(sp)
    9cec:	000b8613          	mv	a2,s7
    9cf0:	000a8c93          	mv	s9,s5
    9cf4:	00700f93          	li	t6,7
    9cf8:	00098a93          	mv	s5,s3
    9cfc:	03e12e23          	sw	t5,60(sp)
    9d00:	00048993          	mv	s3,s1
    9d04:	00030b93          	mv	s7,t1
    9d08:	000b0493          	mv	s1,s6
    9d0c:	000e0913          	mv	s2,t3
    9d10:	00068b13          	mv	s6,a3
    9d14:	00c0006f          	j	9d20 <_svfprintf_r+0x1030>
    9d18:	ff0d0d13          	addi	s10,s10,-16
    9d1c:	05ac5863          	bge	s8,s10,9d6c <_svfprintf_r+0x107c>
    9d20:	01078793          	addi	a5,a5,16
    9d24:	00170713          	addi	a4,a4,1
    9d28:	01262023          	sw	s2,0(a2)
    9d2c:	01862223          	sw	s8,4(a2)
    9d30:	0ef12e23          	sw	a5,252(sp)
    9d34:	0ee12c23          	sw	a4,248(sp)
    9d38:	00860613          	addi	a2,a2,8
    9d3c:	fcefdee3          	bge	t6,a4,9d18 <_svfprintf_r+0x1028>
    9d40:	0f410613          	addi	a2,sp,244
    9d44:	00048593          	mv	a1,s1
    9d48:	00040513          	mv	a0,s0
    9d4c:	430040ef          	jal	ra,e17c <__ssprint_r>
    9d50:	1c0514e3          	bnez	a0,a718 <_svfprintf_r+0x1a28>
    9d54:	ff0d0d13          	addi	s10,s10,-16
    9d58:	0fc12783          	lw	a5,252(sp)
    9d5c:	0f812703          	lw	a4,248(sp)
    9d60:	11c10613          	addi	a2,sp,284
    9d64:	00700f93          	li	t6,7
    9d68:	fbac4ce3          	blt	s8,s10,9d20 <_svfprintf_r+0x1030>
    9d6c:	000d0693          	mv	a3,s10
    9d70:	00090e13          	mv	t3,s2
    9d74:	00040d13          	mv	s10,s0
    9d78:	03c12f03          	lw	t5,60(sp)
    9d7c:	04c12403          	lw	s0,76(sp)
    9d80:	04812903          	lw	s2,72(sp)
    9d84:	000b8313          	mv	t1,s7
    9d88:	00060b93          	mv	s7,a2
    9d8c:	000b0613          	mv	a2,s6
    9d90:	00048b13          	mv	s6,s1
    9d94:	00098493          	mv	s1,s3
    9d98:	000a8993          	mv	s3,s5
    9d9c:	000c8a93          	mv	s5,s9
    9da0:	00060c93          	mv	s9,a2
    9da4:	00d787b3          	add	a5,a5,a3
    9da8:	00170713          	addi	a4,a4,1
    9dac:	00dba223          	sw	a3,4(s7)
    9db0:	01cba023          	sw	t3,0(s7)
    9db4:	0ef12e23          	sw	a5,252(sp)
    9db8:	0ee12c23          	sw	a4,248(sp)
    9dbc:	00700693          	li	a3,7
    9dc0:	008b8b93          	addi	s7,s7,8
    9dc4:	92e6d463          	bge	a3,a4,8eec <_svfprintf_r+0x1fc>
    9dc8:	0f410613          	addi	a2,sp,244
    9dcc:	000b0593          	mv	a1,s6
    9dd0:	000d0513          	mv	a0,s10
    9dd4:	04612423          	sw	t1,72(sp)
    9dd8:	03e12e23          	sw	t5,60(sp)
    9ddc:	3a0040ef          	jal	ra,e17c <__ssprint_r>
    9de0:	ec0518e3          	bnez	a0,9cb0 <_svfprintf_r+0xfc0>
    9de4:	0fc12783          	lw	a5,252(sp)
    9de8:	04812303          	lw	t1,72(sp)
    9dec:	03c12f03          	lw	t5,60(sp)
    9df0:	11c10b93          	addi	s7,sp,284
    9df4:	8f8ff06f          	j	8eec <_svfprintf_r+0x1fc>
    9df8:	0f410613          	addi	a2,sp,244
    9dfc:	000b0593          	mv	a1,s6
    9e00:	000d0513          	mv	a0,s10
    9e04:	02612e23          	sw	t1,60(sp)
    9e08:	374040ef          	jal	ra,e17c <__ssprint_r>
    9e0c:	ea0512e3          	bnez	a0,9cb0 <_svfprintf_r+0xfc0>
    9e10:	0fc12783          	lw	a5,252(sp)
    9e14:	03c12303          	lw	t1,60(sp)
    9e18:	11c10b93          	addi	s7,sp,284
    9e1c:	93cff06f          	j	8f58 <_svfprintf_r+0x268>
    9e20:	0dc12683          	lw	a3,220(sp)
    9e24:	02d052e3          	blez	a3,a648 <_svfprintf_r+0x1958>
    9e28:	01412703          	lw	a4,20(sp)
    9e2c:	01812683          	lw	a3,24(sp)
    9e30:	00070493          	mv	s1,a4
    9e34:	3ee6c863          	blt	a3,a4,a224 <_svfprintf_r+0x1534>
    9e38:	02905663          	blez	s1,9e64 <_svfprintf_r+0x1174>
    9e3c:	0f812703          	lw	a4,248(sp)
    9e40:	009787b3          	add	a5,a5,s1
    9e44:	019ba023          	sw	s9,0(s7)
    9e48:	00170713          	addi	a4,a4,1
    9e4c:	009ba223          	sw	s1,4(s7)
    9e50:	0ef12e23          	sw	a5,252(sp)
    9e54:	0ee12c23          	sw	a4,248(sp)
    9e58:	00700693          	li	a3,7
    9e5c:	008b8b93          	addi	s7,s7,8
    9e60:	42e6c0e3          	blt	a3,a4,aa80 <_svfprintf_r+0x1d90>
    9e64:	fff4c713          	not	a4,s1
    9e68:	41f75713          	srai	a4,a4,0x1f
    9e6c:	00e4f4b3          	and	s1,s1,a4
    9e70:	01412703          	lw	a4,20(sp)
    9e74:	409704b3          	sub	s1,a4,s1
    9e78:	4a904863          	bgtz	s1,a328 <_svfprintf_r+0x1638>
    9e7c:	01412683          	lw	a3,20(sp)
    9e80:	400a7713          	andi	a4,s4,1024
    9e84:	00dc84b3          	add	s1,s9,a3
    9e88:	50071a63          	bnez	a4,a39c <_svfprintf_r+0x16ac>
    9e8c:	0dc12683          	lw	a3,220(sp)
    9e90:	01812703          	lw	a4,24(sp)
    9e94:	00e6c663          	blt	a3,a4,9ea0 <_svfprintf_r+0x11b0>
    9e98:	001a7713          	andi	a4,s4,1
    9e9c:	400706e3          	beqz	a4,aaa8 <_svfprintf_r+0x1db8>
    9ea0:	02c12703          	lw	a4,44(sp)
    9ea4:	02812603          	lw	a2,40(sp)
    9ea8:	008b8b93          	addi	s7,s7,8
    9eac:	feebac23          	sw	a4,-8(s7)
    9eb0:	0f812703          	lw	a4,248(sp)
    9eb4:	00c787b3          	add	a5,a5,a2
    9eb8:	fecbae23          	sw	a2,-4(s7)
    9ebc:	00170713          	addi	a4,a4,1
    9ec0:	0ef12e23          	sw	a5,252(sp)
    9ec4:	0ee12c23          	sw	a4,248(sp)
    9ec8:	00700613          	li	a2,7
    9ecc:	6ee64ce3          	blt	a2,a4,adc4 <_svfprintf_r+0x20d4>
    9ed0:	01812603          	lw	a2,24(sp)
    9ed4:	00cc8733          	add	a4,s9,a2
    9ed8:	40970733          	sub	a4,a4,s1
    9edc:	40d60633          	sub	a2,a2,a3
    9ee0:	00060913          	mv	s2,a2
    9ee4:	00c75463          	bge	a4,a2,9eec <_svfprintf_r+0x11fc>
    9ee8:	00070913          	mv	s2,a4
    9eec:	03205663          	blez	s2,9f18 <_svfprintf_r+0x1228>
    9ef0:	0f812703          	lw	a4,248(sp)
    9ef4:	012787b3          	add	a5,a5,s2
    9ef8:	009ba023          	sw	s1,0(s7)
    9efc:	00170713          	addi	a4,a4,1
    9f00:	012ba223          	sw	s2,4(s7)
    9f04:	0ef12e23          	sw	a5,252(sp)
    9f08:	0ee12c23          	sw	a4,248(sp)
    9f0c:	00700693          	li	a3,7
    9f10:	008b8b93          	addi	s7,s7,8
    9f14:	74e6c2e3          	blt	a3,a4,ae58 <_svfprintf_r+0x2168>
    9f18:	fff94713          	not	a4,s2
    9f1c:	41f75713          	srai	a4,a4,0x1f
    9f20:	00e97733          	and	a4,s2,a4
    9f24:	40e604b3          	sub	s1,a2,a4
    9f28:	86905863          	blez	s1,8f98 <_svfprintf_r+0x2a8>
    9f2c:	0f812703          	lw	a4,248(sp)
    9f30:	029c58e3          	bge	s8,s1,a760 <_svfprintf_r+0x1a70>
    9f34:	00700913          	li	s2,7
    9f38:	00c0006f          	j	9f44 <_svfprintf_r+0x1254>
    9f3c:	ff048493          	addi	s1,s1,-16
    9f40:	029c50e3          	bge	s8,s1,a760 <_svfprintf_r+0x1a70>
    9f44:	01078793          	addi	a5,a5,16
    9f48:	00170713          	addi	a4,a4,1
    9f4c:	00017697          	auipc	a3,0x17
    9f50:	96c68693          	addi	a3,a3,-1684 # 208b8 <zeroes.0>
    9f54:	00dba023          	sw	a3,0(s7)
    9f58:	018ba223          	sw	s8,4(s7)
    9f5c:	0ef12e23          	sw	a5,252(sp)
    9f60:	0ee12c23          	sw	a4,248(sp)
    9f64:	008b8b93          	addi	s7,s7,8
    9f68:	fce95ae3          	bge	s2,a4,9f3c <_svfprintf_r+0x124c>
    9f6c:	0f410613          	addi	a2,sp,244
    9f70:	000b0593          	mv	a1,s6
    9f74:	000d0513          	mv	a0,s10
    9f78:	204040ef          	jal	ra,e17c <__ssprint_r>
    9f7c:	d2051ae3          	bnez	a0,9cb0 <_svfprintf_r+0xfc0>
    9f80:	0fc12783          	lw	a5,252(sp)
    9f84:	0f812703          	lw	a4,248(sp)
    9f88:	11c10b93          	addi	s7,sp,284
    9f8c:	fb1ff06f          	j	9f3c <_svfprintf_r+0x124c>
    9f90:	8a0316e3          	bnez	t1,983c <_svfprintf_r+0xb4c>
    9f94:	000a8a13          	mv	s4,s5
    9f98:	00000313          	li	t1,0
    9f9c:	00000d93          	li	s11,0
    9fa0:	1c010c93          	addi	s9,sp,448
    9fa4:	f94ff06f          	j	9738 <_svfprintf_r+0xa48>
    9fa8:	001a7793          	andi	a5,s4,1
    9fac:	c4079263          	bnez	a5,93f0 <_svfprintf_r+0x700>
    9fb0:	00dba223          	sw	a3,4(s7)
    9fb4:	0fb12e23          	sw	s11,252(sp)
    9fb8:	0e912c23          	sw	s1,248(sp)
    9fbc:	00700793          	li	a5,7
    9fc0:	5897c863          	blt	a5,s1,a550 <_svfprintf_r+0x1860>
    9fc4:	00270713          	addi	a4,a4,2
    9fc8:	010b8b93          	addi	s7,s7,16
    9fcc:	cf8ff06f          	j	94c4 <_svfprintf_r+0x7d4>
    9fd0:	cef05a63          	blez	a5,94c4 <_svfprintf_r+0x7d4>
    9fd4:	00fc4463          	blt	s8,a5,9fdc <_svfprintf_r+0x12ec>
    9fd8:	6c40106f          	j	b69c <_svfprintf_r+0x29ac>
    9fdc:	00700b93          	li	s7,7
    9fe0:	00078c93          	mv	s9,a5
    9fe4:	00068493          	mv	s1,a3
    9fe8:	0100006f          	j	9ff8 <_svfprintf_r+0x1308>
    9fec:	ff0c8c93          	addi	s9,s9,-16
    9ff0:	119c56e3          	bge	s8,s9,a8fc <_svfprintf_r+0x1c0c>
    9ff4:	00148493          	addi	s1,s1,1
    9ff8:	010d8d93          	addi	s11,s11,16
    9ffc:	00017797          	auipc	a5,0x17
    a000:	8bc78793          	addi	a5,a5,-1860 # 208b8 <zeroes.0>
    a004:	00f92023          	sw	a5,0(s2)
    a008:	01892223          	sw	s8,4(s2)
    a00c:	0fb12e23          	sw	s11,252(sp)
    a010:	0e912c23          	sw	s1,248(sp)
    a014:	00890913          	addi	s2,s2,8
    a018:	fc9bdae3          	bge	s7,s1,9fec <_svfprintf_r+0x12fc>
    a01c:	0f410613          	addi	a2,sp,244
    a020:	000b0593          	mv	a1,s6
    a024:	000d0513          	mv	a0,s10
    a028:	154040ef          	jal	ra,e17c <__ssprint_r>
    a02c:	c80512e3          	bnez	a0,9cb0 <_svfprintf_r+0xfc0>
    a030:	0fc12d83          	lw	s11,252(sp)
    a034:	0f812483          	lw	s1,248(sp)
    a038:	11c10913          	addi	s2,sp,284
    a03c:	fb1ff06f          	j	9fec <_svfprintf_r+0x12fc>
    a040:	01012683          	lw	a3,16(sp)
    a044:	010a7793          	andi	a5,s4,16
    a048:	00468713          	addi	a4,a3,4
    a04c:	12079e63          	bnez	a5,a188 <_svfprintf_r+0x1498>
    a050:	040a7793          	andi	a5,s4,64
    a054:	0e0784e3          	beqz	a5,a93c <_svfprintf_r+0x1c4c>
    a058:	01012783          	lw	a5,16(sp)
    a05c:	00000913          	li	s2,0
    a060:	00e12823          	sw	a4,16(sp)
    a064:	0007dd83          	lhu	s11,0(a5)
    a068:	f24ff06f          	j	978c <_svfprintf_r+0xa9c>
    a06c:	01012703          	lw	a4,16(sp)
    a070:	010af793          	andi	a5,s5,16
    a074:	00470693          	addi	a3,a4,4
    a078:	0e079e63          	bnez	a5,a174 <_svfprintf_r+0x1484>
    a07c:	040af793          	andi	a5,s5,64
    a080:	0c078ce3          	beqz	a5,a958 <_svfprintf_r+0x1c68>
    a084:	01012783          	lw	a5,16(sp)
    a088:	00000913          	li	s2,0
    a08c:	00d12823          	sw	a3,16(sp)
    a090:	0007dd83          	lhu	s11,0(a5)
    a094:	00100793          	li	a5,1
    a098:	e74ff06f          	j	970c <_svfprintf_r+0xa1c>
    a09c:	01012683          	lw	a3,16(sp)
    a0a0:	010a7793          	andi	a5,s4,16
    a0a4:	00468713          	addi	a4,a3,4
    a0a8:	0a079c63          	bnez	a5,a160 <_svfprintf_r+0x1470>
    a0ac:	040a7793          	andi	a5,s4,64
    a0b0:	0e0782e3          	beqz	a5,a994 <_svfprintf_r+0x1ca4>
    a0b4:	01012783          	lw	a5,16(sp)
    a0b8:	00e12823          	sw	a4,16(sp)
    a0bc:	00079d83          	lh	s11,0(a5)
    a0c0:	41fdd913          	srai	s2,s11,0x1f
    a0c4:	00090793          	mv	a5,s2
    a0c8:	f407d863          	bgez	a5,9818 <_svfprintf_r+0xb28>
    a0cc:	01b037b3          	snez	a5,s11
    a0d0:	41200933          	neg	s2,s2
    a0d4:	40f90933          	sub	s2,s2,a5
    a0d8:	02d00793          	li	a5,45
    a0dc:	0cf10ba3          	sb	a5,215(sp)
    a0e0:	41b00db3          	neg	s11,s11
    a0e4:	000a0a93          	mv	s5,s4
    a0e8:	00100793          	li	a5,1
    a0ec:	e24ff06f          	j	9710 <_svfprintf_r+0xa20>
    a0f0:	0f410613          	addi	a2,sp,244
    a0f4:	000b0593          	mv	a1,s6
    a0f8:	000d0513          	mv	a0,s10
    a0fc:	080040ef          	jal	ra,e17c <__ssprint_r>
    a100:	ba0518e3          	bnez	a0,9cb0 <_svfprintf_r+0xfc0>
    a104:	0fc12d83          	lw	s11,252(sp)
    a108:	0f812483          	lw	s1,248(sp)
    a10c:	11c10913          	addi	s2,sp,284
    a110:	af8ff06f          	j	9408 <_svfprintf_r+0x718>
    a114:	0f410613          	addi	a2,sp,244
    a118:	000b0593          	mv	a1,s6
    a11c:	000d0513          	mv	a0,s10
    a120:	05c040ef          	jal	ra,e17c <__ssprint_r>
    a124:	b80516e3          	bnez	a0,9cb0 <_svfprintf_r+0xfc0>
    a128:	0fc12d83          	lw	s11,252(sp)
    a12c:	0f812483          	lw	s1,248(sp)
    a130:	11c10913          	addi	s2,sp,284
    a134:	b00ff06f          	j	9434 <_svfprintf_r+0x744>
    a138:	001a7713          	andi	a4,s4,1
    a13c:	00071463          	bnez	a4,a144 <_svfprintf_r+0x1454>
    a140:	e59fe06f          	j	8f98 <_svfprintf_r+0x2a8>
    a144:	915ff06f          	j	9a58 <_svfprintf_r+0xd68>
    a148:	000d8313          	mv	t1,s11
    a14c:	ea0ff06f          	j	97ec <_svfprintf_r+0xafc>
    a150:	03000793          	li	a5,48
    a154:	1af10fa3          	sb	a5,447(sp)
    a158:	1bf10c93          	addi	s9,sp,447
    a15c:	ddcff06f          	j	9738 <_svfprintf_r+0xa48>
    a160:	0006ad83          	lw	s11,0(a3)
    a164:	00e12823          	sw	a4,16(sp)
    a168:	41fdd913          	srai	s2,s11,0x1f
    a16c:	00090793          	mv	a5,s2
    a170:	ea4ff06f          	j	9814 <_svfprintf_r+0xb24>
    a174:	00072d83          	lw	s11,0(a4)
    a178:	00000913          	li	s2,0
    a17c:	00d12823          	sw	a3,16(sp)
    a180:	00100793          	li	a5,1
    a184:	d88ff06f          	j	970c <_svfprintf_r+0xa1c>
    a188:	0006ad83          	lw	s11,0(a3)
    a18c:	00000913          	li	s2,0
    a190:	00e12823          	sw	a4,16(sp)
    a194:	df8ff06f          	j	978c <_svfprintf_r+0xa9c>
    a198:	00812683          	lw	a3,8(sp)
    a19c:	00040c93          	mv	s9,s0
    a1a0:	41f6d793          	srai	a5,a3,0x1f
    a1a4:	00d72023          	sw	a3,0(a4)
    a1a8:	00f72223          	sw	a5,4(a4)
    a1ac:	e35fe06f          	j	8fe0 <_svfprintf_r+0x2f0>
    a1b0:	01012783          	lw	a5,16(sp)
    a1b4:	0c010513          	addi	a0,sp,192
    a1b8:	01b12623          	sw	s11,12(sp)
    a1bc:	00778793          	addi	a5,a5,7
    a1c0:	ff87f793          	andi	a5,a5,-8
    a1c4:	0007a583          	lw	a1,0(a5)
    a1c8:	0047a603          	lw	a2,4(a5)
    a1cc:	00878793          	addi	a5,a5,8
    a1d0:	00f12823          	sw	a5,16(sp)
    a1d4:	5dd090ef          	jal	ra,13fb0 <__extenddftf2>
    a1d8:	0c012783          	lw	a5,192(sp)
    a1dc:	00c12303          	lw	t1,12(sp)
    a1e0:	10f12023          	sw	a5,256(sp)
    a1e4:	0c412783          	lw	a5,196(sp)
    a1e8:	10f12223          	sw	a5,260(sp)
    a1ec:	0c812783          	lw	a5,200(sp)
    a1f0:	10f12423          	sw	a5,264(sp)
    a1f4:	0cc12783          	lw	a5,204(sp)
    a1f8:	10f12623          	sw	a5,268(sp)
    a1fc:	f09fe06f          	j	9104 <_svfprintf_r+0x414>
    a200:	03812783          	lw	a5,56(sp)
    a204:	00044483          	lbu	s1,0(s0)
    a208:	00079463          	bnez	a5,a210 <_svfprintf_r+0x1520>
    a20c:	c39fe06f          	j	8e44 <_svfprintf_r+0x154>
    a210:	0007c783          	lbu	a5,0(a5)
    a214:	00079463          	bnez	a5,a21c <_svfprintf_r+0x152c>
    a218:	c2dfe06f          	j	8e44 <_svfprintf_r+0x154>
    a21c:	400a6a13          	ori	s4,s4,1024
    a220:	c25fe06f          	j	8e44 <_svfprintf_r+0x154>
    a224:	00068493          	mv	s1,a3
    a228:	c0904ae3          	bgtz	s1,9e3c <_svfprintf_r+0x114c>
    a22c:	c39ff06f          	j	9e64 <_svfprintf_r+0x1174>
    a230:	00016797          	auipc	a5,0x16
    a234:	e6078793          	addi	a5,a5,-416 # 20090 <__malloc_trim_threshold+0x58>
    a238:	000d8313          	mv	t1,s11
    a23c:	02f12823          	sw	a5,48(sp)
    a240:	020a7793          	andi	a5,s4,32
    a244:	2c078663          	beqz	a5,a510 <_svfprintf_r+0x1820>
    a248:	01012783          	lw	a5,16(sp)
    a24c:	00778c93          	addi	s9,a5,7
    a250:	ff8cfc93          	andi	s9,s9,-8
    a254:	000cad83          	lw	s11,0(s9)
    a258:	004ca903          	lw	s2,4(s9)
    a25c:	008c8793          	addi	a5,s9,8
    a260:	00f12823          	sw	a5,16(sp)
    a264:	001a7793          	andi	a5,s4,1
    a268:	00078e63          	beqz	a5,a284 <_svfprintf_r+0x1594>
    a26c:	012de7b3          	or	a5,s11,s2
    a270:	00078a63          	beqz	a5,a284 <_svfprintf_r+0x1594>
    a274:	03000793          	li	a5,48
    a278:	0cf10c23          	sb	a5,216(sp)
    a27c:	0c910ca3          	sb	s1,217(sp)
    a280:	002a6a13          	ori	s4,s4,2
    a284:	bffa7a93          	andi	s5,s4,-1025
    a288:	00200793          	li	a5,2
    a28c:	c80ff06f          	j	970c <_svfprintf_r+0xa1c>
    a290:	000d8313          	mv	t1,s11
    a294:	000a0a93          	mv	s5,s4
    a298:	d08ff06f          	j	97a0 <_svfprintf_r+0xab0>
    a29c:	000d8313          	mv	t1,s11
    a2a0:	cc8ff06f          	j	9768 <_svfprintf_r+0xa78>
    a2a4:	00144483          	lbu	s1,1(s0)
    a2a8:	200a6a13          	ori	s4,s4,512
    a2ac:	00140413          	addi	s0,s0,1
    a2b0:	b95fe06f          	j	8e44 <_svfprintf_r+0x154>
    a2b4:	00144483          	lbu	s1,1(s0)
    a2b8:	020a6a13          	ori	s4,s4,32
    a2bc:	00140413          	addi	s0,s0,1
    a2c0:	b85fe06f          	j	8e44 <_svfprintf_r+0x154>
    a2c4:	00016797          	auipc	a5,0x16
    a2c8:	de078793          	addi	a5,a5,-544 # 200a4 <__malloc_trim_threshold+0x6c>
    a2cc:	000d8313          	mv	t1,s11
    a2d0:	02f12823          	sw	a5,48(sp)
    a2d4:	f6dff06f          	j	a240 <_svfprintf_r+0x1550>
    a2d8:	0f410613          	addi	a2,sp,244
    a2dc:	000b0593          	mv	a1,s6
    a2e0:	000d0513          	mv	a0,s10
    a2e4:	699030ef          	jal	ra,e17c <__ssprint_r>
    a2e8:	9c0514e3          	bnez	a0,9cb0 <_svfprintf_r+0xfc0>
    a2ec:	0fc12783          	lw	a5,252(sp)
    a2f0:	11c10b93          	addi	s7,sp,284
    a2f4:	f94ff06f          	j	9a88 <_svfprintf_r+0xd98>
    a2f8:	04000593          	li	a1,64
    a2fc:	000d0513          	mv	a0,s10
    a300:	f50fc0ef          	jal	ra,6a50 <_malloc_r>
    a304:	02412783          	lw	a5,36(sp)
    a308:	00a7a023          	sw	a0,0(a5)
    a30c:	00a7a823          	sw	a0,16(a5)
    a310:	00051463          	bnez	a0,a318 <_svfprintf_r+0x1628>
    a314:	3cc0106f          	j	b6e0 <_svfprintf_r+0x29f0>
    a318:	02412703          	lw	a4,36(sp)
    a31c:	04000793          	li	a5,64
    a320:	00f72a23          	sw	a5,20(a4)
    a324:	a59fe06f          	j	8d7c <_svfprintf_r+0x8c>
    a328:	0f812703          	lw	a4,248(sp)
    a32c:	6a9c5863          	bge	s8,s1,a9dc <_svfprintf_r+0x1cec>
    a330:	00700d93          	li	s11,7
    a334:	00c0006f          	j	a340 <_svfprintf_r+0x1650>
    a338:	ff048493          	addi	s1,s1,-16
    a33c:	6a9c5063          	bge	s8,s1,a9dc <_svfprintf_r+0x1cec>
    a340:	01078793          	addi	a5,a5,16
    a344:	00170713          	addi	a4,a4,1
    a348:	00016697          	auipc	a3,0x16
    a34c:	57068693          	addi	a3,a3,1392 # 208b8 <zeroes.0>
    a350:	00dba023          	sw	a3,0(s7)
    a354:	018ba223          	sw	s8,4(s7)
    a358:	0ef12e23          	sw	a5,252(sp)
    a35c:	0ee12c23          	sw	a4,248(sp)
    a360:	008b8b93          	addi	s7,s7,8
    a364:	fceddae3          	bge	s11,a4,a338 <_svfprintf_r+0x1648>
    a368:	0f410613          	addi	a2,sp,244
    a36c:	000b0593          	mv	a1,s6
    a370:	000d0513          	mv	a0,s10
    a374:	609030ef          	jal	ra,e17c <__ssprint_r>
    a378:	92051ce3          	bnez	a0,9cb0 <_svfprintf_r+0xfc0>
    a37c:	0fc12783          	lw	a5,252(sp)
    a380:	0f812703          	lw	a4,248(sp)
    a384:	11c10b93          	addi	s7,sp,284
    a388:	fb1ff06f          	j	a338 <_svfprintf_r+0x1648>
    a38c:	000c8513          	mv	a0,s9
    a390:	82dfe0ef          	jal	ra,8bbc <strlen>
    a394:	00050d93          	mv	s11,a0
    a398:	a68ff06f          	j	9600 <_svfprintf_r+0x910>
    a39c:	01812703          	lw	a4,24(sp)
    a3a0:	01c12d83          	lw	s11,28(sp)
    a3a4:	01412a23          	sw	s4,20(sp)
    a3a8:	00ec8733          	add	a4,s9,a4
    a3ac:	02812e23          	sw	s0,60(sp)
    a3b0:	05312423          	sw	s3,72(sp)
    a3b4:	01512e23          	sw	s5,28(sp)
    a3b8:	02012983          	lw	s3,32(sp)
    a3bc:	03912023          	sw	s9,32(sp)
    a3c0:	000b8693          	mv	a3,s7
    a3c4:	03812403          	lw	s0,56(sp)
    a3c8:	000b0b93          	mv	s7,s6
    a3cc:	04012a03          	lw	s4,64(sp)
    a3d0:	04412a83          	lw	s5,68(sp)
    a3d4:	00700913          	li	s2,7
    a3d8:	00070b13          	mv	s6,a4
    a3dc:	080d8863          	beqz	s11,a46c <_svfprintf_r+0x177c>
    a3e0:	08099863          	bnez	s3,a470 <_svfprintf_r+0x1780>
    a3e4:	fff40413          	addi	s0,s0,-1
    a3e8:	fffd8d93          	addi	s11,s11,-1
    a3ec:	0f812703          	lw	a4,248(sp)
    a3f0:	014787b3          	add	a5,a5,s4
    a3f4:	0156a023          	sw	s5,0(a3)
    a3f8:	00170713          	addi	a4,a4,1
    a3fc:	0146a223          	sw	s4,4(a3)
    a400:	0ef12e23          	sw	a5,252(sp)
    a404:	0ee12c23          	sw	a4,248(sp)
    a408:	00868693          	addi	a3,a3,8
    a40c:	12e94263          	blt	s2,a4,a530 <_svfprintf_r+0x1840>
    a410:	00044603          	lbu	a2,0(s0)
    a414:	409b0533          	sub	a0,s6,s1
    a418:	00060c93          	mv	s9,a2
    a41c:	00c55463          	bge	a0,a2,a424 <_svfprintf_r+0x1734>
    a420:	00050c93          	mv	s9,a0
    a424:	03905663          	blez	s9,a450 <_svfprintf_r+0x1760>
    a428:	0f812603          	lw	a2,248(sp)
    a42c:	019787b3          	add	a5,a5,s9
    a430:	0096a023          	sw	s1,0(a3)
    a434:	00160613          	addi	a2,a2,1
    a438:	0196a223          	sw	s9,4(a3)
    a43c:	0ef12e23          	sw	a5,252(sp)
    a440:	0ec12c23          	sw	a2,248(sp)
    a444:	34c94663          	blt	s2,a2,a790 <_svfprintf_r+0x1aa0>
    a448:	00044603          	lbu	a2,0(s0)
    a44c:	00868693          	addi	a3,a3,8
    a450:	fffcc513          	not	a0,s9
    a454:	41f55513          	srai	a0,a0,0x1f
    a458:	00acf733          	and	a4,s9,a0
    a45c:	40e60cb3          	sub	s9,a2,a4
    a460:	01904c63          	bgtz	s9,a478 <_svfprintf_r+0x1788>
    a464:	00c484b3          	add	s1,s1,a2
    a468:	f60d9ce3          	bnez	s11,a3e0 <_svfprintf_r+0x16f0>
    a46c:	72098063          	beqz	s3,ab8c <_svfprintf_r+0x1e9c>
    a470:	fff98993          	addi	s3,s3,-1
    a474:	f79ff06f          	j	a3ec <_svfprintf_r+0x16fc>
    a478:	0f812603          	lw	a2,248(sp)
    a47c:	019c4863          	blt	s8,s9,a48c <_svfprintf_r+0x179c>
    a480:	05c0006f          	j	a4dc <_svfprintf_r+0x17ec>
    a484:	ff0c8c93          	addi	s9,s9,-16
    a488:	059c5a63          	bge	s8,s9,a4dc <_svfprintf_r+0x17ec>
    a48c:	01078793          	addi	a5,a5,16
    a490:	00160613          	addi	a2,a2,1
    a494:	00016717          	auipc	a4,0x16
    a498:	42470713          	addi	a4,a4,1060 # 208b8 <zeroes.0>
    a49c:	00e6a023          	sw	a4,0(a3)
    a4a0:	0186a223          	sw	s8,4(a3)
    a4a4:	0ef12e23          	sw	a5,252(sp)
    a4a8:	0ec12c23          	sw	a2,248(sp)
    a4ac:	00868693          	addi	a3,a3,8
    a4b0:	fcc95ae3          	bge	s2,a2,a484 <_svfprintf_r+0x1794>
    a4b4:	0f410613          	addi	a2,sp,244
    a4b8:	000b8593          	mv	a1,s7
    a4bc:	000d0513          	mv	a0,s10
    a4c0:	4bd030ef          	jal	ra,e17c <__ssprint_r>
    a4c4:	fe051663          	bnez	a0,9cb0 <_svfprintf_r+0xfc0>
    a4c8:	ff0c8c93          	addi	s9,s9,-16
    a4cc:	0fc12783          	lw	a5,252(sp)
    a4d0:	0f812603          	lw	a2,248(sp)
    a4d4:	11c10693          	addi	a3,sp,284
    a4d8:	fb9c4ae3          	blt	s8,s9,a48c <_svfprintf_r+0x179c>
    a4dc:	019787b3          	add	a5,a5,s9
    a4e0:	00160613          	addi	a2,a2,1
    a4e4:	00016717          	auipc	a4,0x16
    a4e8:	3d470713          	addi	a4,a4,980 # 208b8 <zeroes.0>
    a4ec:	00e6a023          	sw	a4,0(a3)
    a4f0:	0196a223          	sw	s9,4(a3)
    a4f4:	0ef12e23          	sw	a5,252(sp)
    a4f8:	0ec12c23          	sw	a2,248(sp)
    a4fc:	74c94663          	blt	s2,a2,ac48 <_svfprintf_r+0x1f58>
    a500:	00044603          	lbu	a2,0(s0)
    a504:	00868693          	addi	a3,a3,8
    a508:	00c484b3          	add	s1,s1,a2
    a50c:	f5dff06f          	j	a468 <_svfprintf_r+0x1778>
    a510:	01012683          	lw	a3,16(sp)
    a514:	010a7793          	andi	a5,s4,16
    a518:	00468713          	addi	a4,a3,4
    a51c:	20078463          	beqz	a5,a724 <_svfprintf_r+0x1a34>
    a520:	0006ad83          	lw	s11,0(a3)
    a524:	00000913          	li	s2,0
    a528:	00e12823          	sw	a4,16(sp)
    a52c:	d39ff06f          	j	a264 <_svfprintf_r+0x1574>
    a530:	0f410613          	addi	a2,sp,244
    a534:	000b8593          	mv	a1,s7
    a538:	000d0513          	mv	a0,s10
    a53c:	441030ef          	jal	ra,e17c <__ssprint_r>
    a540:	f6051863          	bnez	a0,9cb0 <_svfprintf_r+0xfc0>
    a544:	0fc12783          	lw	a5,252(sp)
    a548:	11c10693          	addi	a3,sp,284
    a54c:	ec5ff06f          	j	a410 <_svfprintf_r+0x1720>
    a550:	0f410613          	addi	a2,sp,244
    a554:	000b0593          	mv	a1,s6
    a558:	000d0513          	mv	a0,s10
    a55c:	421030ef          	jal	ra,e17c <__ssprint_r>
    a560:	f4051863          	bnez	a0,9cb0 <_svfprintf_r+0xfc0>
    a564:	0f812703          	lw	a4,248(sp)
    a568:	0fc12d83          	lw	s11,252(sp)
    a56c:	12410b93          	addi	s7,sp,292
    a570:	00170713          	addi	a4,a4,1
    a574:	11c10913          	addi	s2,sp,284
    a578:	f4dfe06f          	j	94c4 <_svfprintf_r+0x7d4>
    a57c:	1c010c93          	addi	s9,sp,448
    a580:	00000793          	li	a5,0
    a584:	00812623          	sw	s0,12(sp)
    a588:	00912a23          	sw	s1,20(sp)
    a58c:	000c8413          	mv	s0,s9
    a590:	01312e23          	sw	s3,28(sp)
    a594:	000b0c93          	mv	s9,s6
    a598:	000d8493          	mv	s1,s11
    a59c:	00090993          	mv	s3,s2
    a5a0:	03812d83          	lw	s11,56(sp)
    a5a4:	400afa13          	andi	s4,s5,1024
    a5a8:	00030b13          	mv	s6,t1
    a5ac:	00078913          	mv	s2,a5
    a5b0:	0240006f          	j	a5d4 <_svfprintf_r+0x18e4>
    a5b4:	00a00613          	li	a2,10
    a5b8:	00000693          	li	a3,0
    a5bc:	00048513          	mv	a0,s1
    a5c0:	00098593          	mv	a1,s3
    a5c4:	688050ef          	jal	ra,fc4c <__udivdi3>
    a5c8:	4a098063          	beqz	s3,aa68 <_svfprintf_r+0x1d78>
    a5cc:	00050493          	mv	s1,a0
    a5d0:	00058993          	mv	s3,a1
    a5d4:	00a00613          	li	a2,10
    a5d8:	00000693          	li	a3,0
    a5dc:	00048513          	mv	a0,s1
    a5e0:	00098593          	mv	a1,s3
    a5e4:	309050ef          	jal	ra,100ec <__umoddi3>
    a5e8:	03050513          	addi	a0,a0,48
    a5ec:	fea40fa3          	sb	a0,-1(s0)
    a5f0:	00190913          	addi	s2,s2,1
    a5f4:	fff40413          	addi	s0,s0,-1
    a5f8:	fa0a0ee3          	beqz	s4,a5b4 <_svfprintf_r+0x18c4>
    a5fc:	000dc683          	lbu	a3,0(s11)
    a600:	fad91ae3          	bne	s2,a3,a5b4 <_svfprintf_r+0x18c4>
    a604:	0ff00793          	li	a5,255
    a608:	faf906e3          	beq	s2,a5,a5b4 <_svfprintf_r+0x18c4>
    a60c:	40099e63          	bnez	s3,aa28 <_svfprintf_r+0x1d38>
    a610:	00900793          	li	a5,9
    a614:	4097ea63          	bltu	a5,s1,aa28 <_svfprintf_r+0x1d38>
    a618:	000b0313          	mv	t1,s6
    a61c:	1c010793          	addi	a5,sp,448
    a620:	000c8b13          	mv	s6,s9
    a624:	00040c93          	mv	s9,s0
    a628:	03b12c23          	sw	s11,56(sp)
    a62c:	01412483          	lw	s1,20(sp)
    a630:	01c12983          	lw	s3,28(sp)
    a634:	00c12403          	lw	s0,12(sp)
    a638:	01212c23          	sw	s2,24(sp)
    a63c:	41978db3          	sub	s11,a5,s9
    a640:	000a8a13          	mv	s4,s5
    a644:	8f4ff06f          	j	9738 <_svfprintf_r+0xa48>
    a648:	0f812703          	lw	a4,248(sp)
    a64c:	00016617          	auipc	a2,0x16
    a650:	a7460613          	addi	a2,a2,-1420 # 200c0 <__malloc_trim_threshold+0x88>
    a654:	00cba023          	sw	a2,0(s7)
    a658:	00178793          	addi	a5,a5,1
    a65c:	00100613          	li	a2,1
    a660:	00170713          	addi	a4,a4,1
    a664:	00cba223          	sw	a2,4(s7)
    a668:	0ef12e23          	sw	a5,252(sp)
    a66c:	0ee12c23          	sw	a4,248(sp)
    a670:	00700613          	li	a2,7
    a674:	008b8b93          	addi	s7,s7,8
    a678:	06e64e63          	blt	a2,a4,a6f4 <_svfprintf_r+0x1a04>
    a67c:	1e069263          	bnez	a3,a860 <_svfprintf_r+0x1b70>
    a680:	01812683          	lw	a3,24(sp)
    a684:	001a7713          	andi	a4,s4,1
    a688:	00d76733          	or	a4,a4,a3
    a68c:	00071463          	bnez	a4,a694 <_svfprintf_r+0x19a4>
    a690:	909fe06f          	j	8f98 <_svfprintf_r+0x2a8>
    a694:	02c12703          	lw	a4,44(sp)
    a698:	02812683          	lw	a3,40(sp)
    a69c:	008b8893          	addi	a7,s7,8
    a6a0:	00eba023          	sw	a4,0(s7)
    a6a4:	0f812703          	lw	a4,248(sp)
    a6a8:	00f687b3          	add	a5,a3,a5
    a6ac:	00dba223          	sw	a3,4(s7)
    a6b0:	00170713          	addi	a4,a4,1
    a6b4:	0ef12e23          	sw	a5,252(sp)
    a6b8:	0ee12c23          	sw	a4,248(sp)
    a6bc:	00700693          	li	a3,7
    a6c0:	48e6cc63          	blt	a3,a4,ab58 <_svfprintf_r+0x1e68>
    a6c4:	01812683          	lw	a3,24(sp)
    a6c8:	00170713          	addi	a4,a4,1
    a6cc:	0198a023          	sw	s9,0(a7)
    a6d0:	00f687b3          	add	a5,a3,a5
    a6d4:	00d8a223          	sw	a3,4(a7)
    a6d8:	0ef12e23          	sw	a5,252(sp)
    a6dc:	0ee12c23          	sw	a4,248(sp)
    a6e0:	00700693          	li	a3,7
    a6e4:	00888b93          	addi	s7,a7,8
    a6e8:	00e6c463          	blt	a3,a4,a6f0 <_svfprintf_r+0x1a00>
    a6ec:	8adfe06f          	j	8f98 <_svfprintf_r+0x2a8>
    a6f0:	df9fe06f          	j	94e8 <_svfprintf_r+0x7f8>
    a6f4:	0f410613          	addi	a2,sp,244
    a6f8:	000b0593          	mv	a1,s6
    a6fc:	000d0513          	mv	a0,s10
    a700:	27d030ef          	jal	ra,e17c <__ssprint_r>
    a704:	da051663          	bnez	a0,9cb0 <_svfprintf_r+0xfc0>
    a708:	0dc12683          	lw	a3,220(sp)
    a70c:	0fc12783          	lw	a5,252(sp)
    a710:	11c10b93          	addi	s7,sp,284
    a714:	f69ff06f          	j	a67c <_svfprintf_r+0x198c>
    a718:	00c12b83          	lw	s7,12(sp)
    a71c:	00040d13          	mv	s10,s0
    a720:	d94ff06f          	j	9cb4 <_svfprintf_r+0xfc4>
    a724:	040a7793          	andi	a5,s4,64
    a728:	24078863          	beqz	a5,a978 <_svfprintf_r+0x1c88>
    a72c:	01012783          	lw	a5,16(sp)
    a730:	00000913          	li	s2,0
    a734:	00e12823          	sw	a4,16(sp)
    a738:	0007dd83          	lhu	s11,0(a5)
    a73c:	b29ff06f          	j	a264 <_svfprintf_r+0x1574>
    a740:	0f410613          	addi	a2,sp,244
    a744:	000b0593          	mv	a1,s6
    a748:	000d0513          	mv	a0,s10
    a74c:	231030ef          	jal	ra,e17c <__ssprint_r>
    a750:	d6051063          	bnez	a0,9cb0 <_svfprintf_r+0xfc0>
    a754:	0fc12783          	lw	a5,252(sp)
    a758:	11c10b93          	addi	s7,sp,284
    a75c:	af0ff06f          	j	9a4c <_svfprintf_r+0xd5c>
    a760:	00016697          	auipc	a3,0x16
    a764:	15868693          	addi	a3,a3,344 # 208b8 <zeroes.0>
    a768:	00dba023          	sw	a3,0(s7)
    a76c:	009ba223          	sw	s1,4(s7)
    a770:	009787b3          	add	a5,a5,s1
    a774:	00170713          	addi	a4,a4,1
    a778:	0ef12e23          	sw	a5,252(sp)
    a77c:	0ee12c23          	sw	a4,248(sp)
    a780:	00700693          	li	a3,7
    a784:	00e6c463          	blt	a3,a4,a78c <_svfprintf_r+0x1a9c>
    a788:	80dfe06f          	j	8f94 <_svfprintf_r+0x2a4>
    a78c:	d5dfe06f          	j	94e8 <_svfprintf_r+0x7f8>
    a790:	0f410613          	addi	a2,sp,244
    a794:	000b8593          	mv	a1,s7
    a798:	000d0513          	mv	a0,s10
    a79c:	1e1030ef          	jal	ra,e17c <__ssprint_r>
    a7a0:	d0051863          	bnez	a0,9cb0 <_svfprintf_r+0xfc0>
    a7a4:	00044603          	lbu	a2,0(s0)
    a7a8:	0fc12783          	lw	a5,252(sp)
    a7ac:	11c10693          	addi	a3,sp,284
    a7b0:	ca1ff06f          	j	a450 <_svfprintf_r+0x1760>
    a7b4:	10012783          	lw	a5,256(sp)
    a7b8:	0b010593          	addi	a1,sp,176
    a7bc:	0c010513          	addi	a0,sp,192
    a7c0:	0cf12023          	sw	a5,192(sp)
    a7c4:	10412783          	lw	a5,260(sp)
    a7c8:	0a012823          	sw	zero,176(sp)
    a7cc:	0a012a23          	sw	zero,180(sp)
    a7d0:	0cf12223          	sw	a5,196(sp)
    a7d4:	10812783          	lw	a5,264(sp)
    a7d8:	0a012c23          	sw	zero,184(sp)
    a7dc:	0a012e23          	sw	zero,188(sp)
    a7e0:	0cf12423          	sw	a5,200(sp)
    a7e4:	10c12783          	lw	a5,268(sp)
    a7e8:	0cf12623          	sw	a5,204(sp)
    a7ec:	561060ef          	jal	ra,1154c <__letf2>
    a7f0:	5e054e63          	bltz	a0,adec <_svfprintf_r+0x20fc>
    a7f4:	0d714783          	lbu	a5,215(sp)
    a7f8:	04700713          	li	a4,71
    a7fc:	00016c97          	auipc	s9,0x16
    a800:	884c8c93          	addi	s9,s9,-1916 # 20080 <__malloc_trim_threshold+0x48>
    a804:	26974863          	blt	a4,s1,aa74 <_svfprintf_r+0x1d84>
    a808:	00012623          	sw	zero,12(sp)
    a80c:	02012023          	sw	zero,32(sp)
    a810:	00012e23          	sw	zero,28(sp)
    a814:	00012a23          	sw	zero,20(sp)
    a818:	f7fa7a13          	andi	s4,s4,-129
    a81c:	00300a93          	li	s5,3
    a820:	00300d93          	li	s11,3
    a824:	00000313          	li	t1,0
    a828:	00078463          	beqz	a5,a830 <_svfprintf_r+0x1b40>
    a82c:	e01fe06f          	j	962c <_svfprintf_r+0x93c>
    a830:	e9cfe06f          	j	8ecc <_svfprintf_r+0x1dc>
    a834:	00812783          	lw	a5,8(sp)
    a838:	00040c93          	mv	s9,s0
    a83c:	00f72023          	sw	a5,0(a4)
    a840:	fa0fe06f          	j	8fe0 <_svfprintf_r+0x2f0>
    a844:	00600793          	li	a5,6
    a848:	25b7ec63          	bltu	a5,s11,aaa0 <_svfprintf_r+0x1db0>
    a84c:	000d8a93          	mv	s5,s11
    a850:	01212823          	sw	s2,16(sp)
    a854:	00016c97          	auipc	s9,0x16
    a858:	864c8c93          	addi	s9,s9,-1948 # 200b8 <__malloc_trim_threshold+0x80>
    a85c:	e5cfe06f          	j	8eb8 <_svfprintf_r+0x1c8>
    a860:	02c12703          	lw	a4,44(sp)
    a864:	02812603          	lw	a2,40(sp)
    a868:	008b8893          	addi	a7,s7,8
    a86c:	00eba023          	sw	a4,0(s7)
    a870:	0f812703          	lw	a4,248(sp)
    a874:	00f607b3          	add	a5,a2,a5
    a878:	00cba223          	sw	a2,4(s7)
    a87c:	00170713          	addi	a4,a4,1
    a880:	0ef12e23          	sw	a5,252(sp)
    a884:	0ee12c23          	sw	a4,248(sp)
    a888:	00700613          	li	a2,7
    a88c:	2ce64663          	blt	a2,a4,ab58 <_svfprintf_r+0x1e68>
    a890:	e206dae3          	bgez	a3,a6c4 <_svfprintf_r+0x19d4>
    a894:	ff000613          	li	a2,-16
    a898:	40d004b3          	neg	s1,a3
    a89c:	2ac6dee3          	bge	a3,a2,b358 <_svfprintf_r+0x2668>
    a8a0:	00700913          	li	s2,7
    a8a4:	00c0006f          	j	a8b0 <_svfprintf_r+0x1bc0>
    a8a8:	ff048493          	addi	s1,s1,-16
    a8ac:	2a9c56e3          	bge	s8,s1,b358 <_svfprintf_r+0x2668>
    a8b0:	01078793          	addi	a5,a5,16
    a8b4:	00170713          	addi	a4,a4,1
    a8b8:	00016697          	auipc	a3,0x16
    a8bc:	00068693          	mv	a3,a3
    a8c0:	00d8a023          	sw	a3,0(a7)
    a8c4:	0188a223          	sw	s8,4(a7)
    a8c8:	0ef12e23          	sw	a5,252(sp)
    a8cc:	0ee12c23          	sw	a4,248(sp)
    a8d0:	00888893          	addi	a7,a7,8
    a8d4:	fce95ae3          	bge	s2,a4,a8a8 <_svfprintf_r+0x1bb8>
    a8d8:	0f410613          	addi	a2,sp,244
    a8dc:	000b0593          	mv	a1,s6
    a8e0:	000d0513          	mv	a0,s10
    a8e4:	099030ef          	jal	ra,e17c <__ssprint_r>
    a8e8:	bc051463          	bnez	a0,9cb0 <_svfprintf_r+0xfc0>
    a8ec:	0fc12783          	lw	a5,252(sp)
    a8f0:	0f812703          	lw	a4,248(sp)
    a8f4:	11c10893          	addi	a7,sp,284
    a8f8:	fb1ff06f          	j	a8a8 <_svfprintf_r+0x1bb8>
    a8fc:	000c8793          	mv	a5,s9
    a900:	00148713          	addi	a4,s1,1
    a904:	00890693          	addi	a3,s2,8
    a908:	00fd8db3          	add	s11,s11,a5
    a90c:	00016617          	auipc	a2,0x16
    a910:	fac60613          	addi	a2,a2,-84 # 208b8 <zeroes.0>
    a914:	00f92223          	sw	a5,4(s2)
    a918:	00c92023          	sw	a2,0(s2)
    a91c:	0fb12e23          	sw	s11,252(sp)
    a920:	0ee12c23          	sw	a4,248(sp)
    a924:	00700793          	li	a5,7
    a928:	c2e7c4e3          	blt	a5,a4,a550 <_svfprintf_r+0x1860>
    a92c:	00170713          	addi	a4,a4,1
    a930:	00868b93          	addi	s7,a3,8 # 208c0 <zeroes.0+0x8>
    a934:	00068913          	mv	s2,a3
    a938:	b8dfe06f          	j	94c4 <_svfprintf_r+0x7d4>
    a93c:	200a7793          	andi	a5,s4,512
    a940:	1a078863          	beqz	a5,aaf0 <_svfprintf_r+0x1e00>
    a944:	01012783          	lw	a5,16(sp)
    a948:	00000913          	li	s2,0
    a94c:	00e12823          	sw	a4,16(sp)
    a950:	0007cd83          	lbu	s11,0(a5)
    a954:	e39fe06f          	j	978c <_svfprintf_r+0xa9c>
    a958:	200af793          	andi	a5,s5,512
    a95c:	16078e63          	beqz	a5,aad8 <_svfprintf_r+0x1de8>
    a960:	01012783          	lw	a5,16(sp)
    a964:	00000913          	li	s2,0
    a968:	00d12823          	sw	a3,16(sp)
    a96c:	0007cd83          	lbu	s11,0(a5)
    a970:	00100793          	li	a5,1
    a974:	d99fe06f          	j	970c <_svfprintf_r+0xa1c>
    a978:	200a7793          	andi	a5,s4,512
    a97c:	1a078063          	beqz	a5,ab1c <_svfprintf_r+0x1e2c>
    a980:	01012783          	lw	a5,16(sp)
    a984:	00000913          	li	s2,0
    a988:	00e12823          	sw	a4,16(sp)
    a98c:	0007cd83          	lbu	s11,0(a5)
    a990:	8d5ff06f          	j	a264 <_svfprintf_r+0x1574>
    a994:	200a7793          	andi	a5,s4,512
    a998:	16078663          	beqz	a5,ab04 <_svfprintf_r+0x1e14>
    a99c:	01012783          	lw	a5,16(sp)
    a9a0:	00e12823          	sw	a4,16(sp)
    a9a4:	00078d83          	lb	s11,0(a5)
    a9a8:	41fdd913          	srai	s2,s11,0x1f
    a9ac:	00090793          	mv	a5,s2
    a9b0:	e65fe06f          	j	9814 <_svfprintf_r+0xb24>
    a9b4:	10c12783          	lw	a5,268(sp)
    a9b8:	1607cc63          	bltz	a5,ab30 <_svfprintf_r+0x1e40>
    a9bc:	0d714783          	lbu	a5,215(sp)
    a9c0:	04700713          	li	a4,71
    a9c4:	00015c97          	auipc	s9,0x15
    a9c8:	6c4c8c93          	addi	s9,s9,1732 # 20088 <__malloc_trim_threshold+0x50>
    a9cc:	e2975ee3          	bge	a4,s1,a808 <_svfprintf_r+0x1b18>
    a9d0:	00015c97          	auipc	s9,0x15
    a9d4:	6bcc8c93          	addi	s9,s9,1724 # 2008c <__malloc_trim_threshold+0x54>
    a9d8:	e31ff06f          	j	a808 <_svfprintf_r+0x1b18>
    a9dc:	00016697          	auipc	a3,0x16
    a9e0:	edc68693          	addi	a3,a3,-292 # 208b8 <zeroes.0>
    a9e4:	009787b3          	add	a5,a5,s1
    a9e8:	00170713          	addi	a4,a4,1
    a9ec:	00dba023          	sw	a3,0(s7)
    a9f0:	009ba223          	sw	s1,4(s7)
    a9f4:	0ef12e23          	sw	a5,252(sp)
    a9f8:	0ee12c23          	sw	a4,248(sp)
    a9fc:	00700693          	li	a3,7
    aa00:	008b8b93          	addi	s7,s7,8
    aa04:	c6e6dc63          	bge	a3,a4,9e7c <_svfprintf_r+0x118c>
    aa08:	0f410613          	addi	a2,sp,244
    aa0c:	000b0593          	mv	a1,s6
    aa10:	000d0513          	mv	a0,s10
    aa14:	768030ef          	jal	ra,e17c <__ssprint_r>
    aa18:	a8051c63          	bnez	a0,9cb0 <_svfprintf_r+0xfc0>
    aa1c:	0fc12783          	lw	a5,252(sp)
    aa20:	11c10b93          	addi	s7,sp,284
    aa24:	c58ff06f          	j	9e7c <_svfprintf_r+0x118c>
    aa28:	04012783          	lw	a5,64(sp)
    aa2c:	04412583          	lw	a1,68(sp)
    aa30:	00000913          	li	s2,0
    aa34:	40f40433          	sub	s0,s0,a5
    aa38:	00078613          	mv	a2,a5
    aa3c:	00040513          	mv	a0,s0
    aa40:	a08fe0ef          	jal	ra,8c48 <strncpy>
    aa44:	001dc583          	lbu	a1,1(s11)
    aa48:	00a00613          	li	a2,10
    aa4c:	00000693          	li	a3,0
    aa50:	00b03833          	snez	a6,a1
    aa54:	00048513          	mv	a0,s1
    aa58:	00098593          	mv	a1,s3
    aa5c:	010d8db3          	add	s11,s11,a6
    aa60:	1ec050ef          	jal	ra,fc4c <__udivdi3>
    aa64:	b69ff06f          	j	a5cc <_svfprintf_r+0x18dc>
    aa68:	00900793          	li	a5,9
    aa6c:	b697e0e3          	bltu	a5,s1,a5cc <_svfprintf_r+0x18dc>
    aa70:	ba9ff06f          	j	a618 <_svfprintf_r+0x1928>
    aa74:	00015c97          	auipc	s9,0x15
    aa78:	610c8c93          	addi	s9,s9,1552 # 20084 <__malloc_trim_threshold+0x4c>
    aa7c:	d8dff06f          	j	a808 <_svfprintf_r+0x1b18>
    aa80:	0f410613          	addi	a2,sp,244
    aa84:	000b0593          	mv	a1,s6
    aa88:	000d0513          	mv	a0,s10
    aa8c:	6f0030ef          	jal	ra,e17c <__ssprint_r>
    aa90:	a2051063          	bnez	a0,9cb0 <_svfprintf_r+0xfc0>
    aa94:	0fc12783          	lw	a5,252(sp)
    aa98:	11c10b93          	addi	s7,sp,284
    aa9c:	bc8ff06f          	j	9e64 <_svfprintf_r+0x1174>
    aaa0:	00600d93          	li	s11,6
    aaa4:	da9ff06f          	j	a84c <_svfprintf_r+0x1b5c>
    aaa8:	01812703          	lw	a4,24(sp)
    aaac:	00ec8833          	add	a6,s9,a4
    aab0:	40d70633          	sub	a2,a4,a3
    aab4:	409806b3          	sub	a3,a6,s1
    aab8:	00060913          	mv	s2,a2
    aabc:	c4c6de63          	bge	a3,a2,9f18 <_svfprintf_r+0x1228>
    aac0:	00068913          	mv	s2,a3
    aac4:	c54ff06f          	j	9f18 <_svfprintf_r+0x1228>
    aac8:	00812783          	lw	a5,8(sp)
    aacc:	00040c93          	mv	s9,s0
    aad0:	00f71023          	sh	a5,0(a4)
    aad4:	d0cfe06f          	j	8fe0 <_svfprintf_r+0x2f0>
    aad8:	01012783          	lw	a5,16(sp)
    aadc:	00000913          	li	s2,0
    aae0:	00d12823          	sw	a3,16(sp)
    aae4:	0007ad83          	lw	s11,0(a5)
    aae8:	00100793          	li	a5,1
    aaec:	c21fe06f          	j	970c <_svfprintf_r+0xa1c>
    aaf0:	01012783          	lw	a5,16(sp)
    aaf4:	00000913          	li	s2,0
    aaf8:	00e12823          	sw	a4,16(sp)
    aafc:	0007ad83          	lw	s11,0(a5)
    ab00:	c8dfe06f          	j	978c <_svfprintf_r+0xa9c>
    ab04:	01012783          	lw	a5,16(sp)
    ab08:	00e12823          	sw	a4,16(sp)
    ab0c:	0007ad83          	lw	s11,0(a5)
    ab10:	41fdd913          	srai	s2,s11,0x1f
    ab14:	00090793          	mv	a5,s2
    ab18:	cfdfe06f          	j	9814 <_svfprintf_r+0xb24>
    ab1c:	01012783          	lw	a5,16(sp)
    ab20:	00000913          	li	s2,0
    ab24:	00e12823          	sw	a4,16(sp)
    ab28:	0007ad83          	lw	s11,0(a5)
    ab2c:	f38ff06f          	j	a264 <_svfprintf_r+0x1574>
    ab30:	02d00793          	li	a5,45
    ab34:	0cf10ba3          	sb	a5,215(sp)
    ab38:	e89ff06f          	j	a9c0 <_svfprintf_r+0x1cd0>
    ab3c:	02412403          	lw	s0,36(sp)
    ab40:	0f410613          	addi	a2,sp,244
    ab44:	000d0513          	mv	a0,s10
    ab48:	00040593          	mv	a1,s0
    ab4c:	630030ef          	jal	ra,e17c <__ssprint_r>
    ab50:	00c45783          	lhu	a5,12(s0)
    ab54:	ca8fe06f          	j	8ffc <_svfprintf_r+0x30c>
    ab58:	0f410613          	addi	a2,sp,244
    ab5c:	000b0593          	mv	a1,s6
    ab60:	000d0513          	mv	a0,s10
    ab64:	618030ef          	jal	ra,e17c <__ssprint_r>
    ab68:	94051463          	bnez	a0,9cb0 <_svfprintf_r+0xfc0>
    ab6c:	0dc12683          	lw	a3,220(sp)
    ab70:	0fc12783          	lw	a5,252(sp)
    ab74:	0f812703          	lw	a4,248(sp)
    ab78:	11c10893          	addi	a7,sp,284
    ab7c:	b406d4e3          	bgez	a3,a6c4 <_svfprintf_r+0x19d4>
    ab80:	d15ff06f          	j	a894 <_svfprintf_r+0x1ba4>
    ab84:	00600313          	li	t1,6
    ab88:	de0fe06f          	j	9168 <_svfprintf_r+0x478>
    ab8c:	02012c83          	lw	s9,32(sp)
    ab90:	01812703          	lw	a4,24(sp)
    ab94:	02812c23          	sw	s0,56(sp)
    ab98:	000b8b13          	mv	s6,s7
    ab9c:	00ec8733          	add	a4,s9,a4
    aba0:	01412a03          	lw	s4,20(sp)
    aba4:	03c12403          	lw	s0,60(sp)
    aba8:	04812983          	lw	s3,72(sp)
    abac:	01c12a83          	lw	s5,28(sp)
    abb0:	00068b93          	mv	s7,a3
    abb4:	ac977c63          	bgeu	a4,s1,9e8c <_svfprintf_r+0x119c>
    abb8:	00070493          	mv	s1,a4
    abbc:	ad0ff06f          	j	9e8c <_svfprintf_r+0x119c>
    abc0:	01412703          	lw	a4,20(sp)
    abc4:	ffd00793          	li	a5,-3
    abc8:	00f74463          	blt	a4,a5,abd0 <_svfprintf_r+0x1ee0>
    abcc:	00e35a63          	bge	t1,a4,abe0 <_svfprintf_r+0x1ef0>
    abd0:	ffe48493          	addi	s1,s1,-2
    abd4:	fdf4f793          	andi	a5,s1,-33
    abd8:	02f12e23          	sw	a5,60(sp)
    abdc:	e88fe06f          	j	9264 <_svfprintf_r+0x574>
    abe0:	01812783          	lw	a5,24(sp)
    abe4:	01412703          	lw	a4,20(sp)
    abe8:	22f74e63          	blt	a4,a5,ae24 <_svfprintf_r+0x2134>
    abec:	05012783          	lw	a5,80(sp)
    abf0:	00070d93          	mv	s11,a4
    abf4:	0017f793          	andi	a5,a5,1
    abf8:	00078663          	beqz	a5,ac04 <_svfprintf_r+0x1f14>
    abfc:	02812783          	lw	a5,40(sp)
    ac00:	00f70db3          	add	s11,a4,a5
    ac04:	05012783          	lw	a5,80(sp)
    ac08:	4007f793          	andi	a5,a5,1024
    ac0c:	00078663          	beqz	a5,ac18 <_svfprintf_r+0x1f28>
    ac10:	01412783          	lw	a5,20(sp)
    ac14:	04f04ee3          	bgtz	a5,b470 <_svfprintf_r+0x2780>
    ac18:	fffdca93          	not	s5,s11
    ac1c:	41fada93          	srai	s5,s5,0x1f
    ac20:	015dfab3          	and	s5,s11,s5
    ac24:	06700493          	li	s1,103
    ac28:	02012023          	sw	zero,32(sp)
    ac2c:	00012e23          	sw	zero,28(sp)
    ac30:	f50fe06f          	j	9380 <_svfprintf_r+0x690>
    ac34:	0d714783          	lbu	a5,215(sp)
    ac38:	00000313          	li	t1,0
    ac3c:	00078463          	beqz	a5,ac44 <_svfprintf_r+0x1f54>
    ac40:	9edfe06f          	j	962c <_svfprintf_r+0x93c>
    ac44:	a88fe06f          	j	8ecc <_svfprintf_r+0x1dc>
    ac48:	0f410613          	addi	a2,sp,244
    ac4c:	000b8593          	mv	a1,s7
    ac50:	000d0513          	mv	a0,s10
    ac54:	528030ef          	jal	ra,e17c <__ssprint_r>
    ac58:	00050463          	beqz	a0,ac60 <_svfprintf_r+0x1f70>
    ac5c:	854ff06f          	j	9cb0 <_svfprintf_r+0xfc0>
    ac60:	00044603          	lbu	a2,0(s0)
    ac64:	0fc12783          	lw	a5,252(sp)
    ac68:	11c10693          	addi	a3,sp,284
    ac6c:	00c484b3          	add	s1,s1,a2
    ac70:	ff8ff06f          	j	a468 <_svfprintf_r+0x1778>
    ac74:	0c010d93          	addi	s11,sp,192
    ac78:	0e010793          	addi	a5,sp,224
    ac7c:	0dc10713          	addi	a4,sp,220
    ac80:	00030693          	mv	a3,t1
    ac84:	0ec10813          	addi	a6,sp,236
    ac88:	00300613          	li	a2,3
    ac8c:	000d8593          	mv	a1,s11
    ac90:	000d0513          	mv	a0,s10
    ac94:	04612423          	sw	t1,72(sp)
    ac98:	0dd12023          	sw	t4,192(sp)
    ac9c:	03d12023          	sw	t4,32(sp)
    aca0:	0de12223          	sw	t5,196(sp)
    aca4:	01e12e23          	sw	t5,28(sp)
    aca8:	0df12423          	sw	t6,200(sp)
    acac:	01f12c23          	sw	t6,24(sp)
    acb0:	0dc12623          	sw	t3,204(sp)
    acb4:	01c12a23          	sw	t3,20(sp)
    acb8:	f1cfa0ef          	jal	ra,53d4 <_ldtoa_r>
    acbc:	00054703          	lbu	a4,0(a0)
    acc0:	03000793          	li	a5,48
    acc4:	01412e03          	lw	t3,20(sp)
    acc8:	01812f83          	lw	t6,24(sp)
    accc:	01c12f03          	lw	t5,28(sp)
    acd0:	02012e83          	lw	t4,32(sp)
    acd4:	04812303          	lw	t1,72(sp)
    acd8:	00050c93          	mv	s9,a0
    acdc:	0b010913          	addi	s2,sp,176
    ace0:	06f70c63          	beq	a4,a5,ad58 <_svfprintf_r+0x2068>
    ace4:	0dc12783          	lw	a5,220(sp)
    ace8:	006787b3          	add	a5,a5,t1
    acec:	00fc8ab3          	add	s5,s9,a5
    acf0:	00090593          	mv	a1,s2
    acf4:	000d8513          	mv	a0,s11
    acf8:	00612a23          	sw	t1,20(sp)
    acfc:	0dd12023          	sw	t4,192(sp)
    ad00:	0de12223          	sw	t5,196(sp)
    ad04:	0df12423          	sw	t6,200(sp)
    ad08:	0dc12623          	sw	t3,204(sp)
    ad0c:	0a012823          	sw	zero,176(sp)
    ad10:	0a012a23          	sw	zero,180(sp)
    ad14:	0a012c23          	sw	zero,184(sp)
    ad18:	0a012e23          	sw	zero,188(sp)
    ad1c:	5f8060ef          	jal	ra,11314 <__eqtf2>
    ad20:	01412303          	lw	t1,20(sp)
    ad24:	000a8793          	mv	a5,s5
    ad28:	00051463          	bnez	a0,ad30 <_svfprintf_r+0x2040>
    ad2c:	d08fe06f          	j	9234 <_svfprintf_r+0x544>
    ad30:	0ec12783          	lw	a5,236(sp)
    ad34:	0157e463          	bltu	a5,s5,ad3c <_svfprintf_r+0x204c>
    ad38:	cfcfe06f          	j	9234 <_svfprintf_r+0x544>
    ad3c:	03000693          	li	a3,48
    ad40:	00178713          	addi	a4,a5,1
    ad44:	0ee12623          	sw	a4,236(sp)
    ad48:	00d78023          	sb	a3,0(a5)
    ad4c:	0ec12783          	lw	a5,236(sp)
    ad50:	ff57e8e3          	bltu	a5,s5,ad40 <_svfprintf_r+0x2050>
    ad54:	ce0fe06f          	j	9234 <_svfprintf_r+0x544>
    ad58:	0b010913          	addi	s2,sp,176
    ad5c:	00090593          	mv	a1,s2
    ad60:	000d8513          	mv	a0,s11
    ad64:	04612423          	sw	t1,72(sp)
    ad68:	0dd12023          	sw	t4,192(sp)
    ad6c:	03d12023          	sw	t4,32(sp)
    ad70:	0de12223          	sw	t5,196(sp)
    ad74:	01e12e23          	sw	t5,28(sp)
    ad78:	0df12423          	sw	t6,200(sp)
    ad7c:	01f12c23          	sw	t6,24(sp)
    ad80:	0dc12623          	sw	t3,204(sp)
    ad84:	01c12a23          	sw	t3,20(sp)
    ad88:	0a012823          	sw	zero,176(sp)
    ad8c:	0a012a23          	sw	zero,180(sp)
    ad90:	0a012c23          	sw	zero,184(sp)
    ad94:	0a012e23          	sw	zero,188(sp)
    ad98:	57c060ef          	jal	ra,11314 <__eqtf2>
    ad9c:	01412e03          	lw	t3,20(sp)
    ada0:	01812f83          	lw	t6,24(sp)
    ada4:	01c12f03          	lw	t5,28(sp)
    ada8:	02012e83          	lw	t4,32(sp)
    adac:	04812303          	lw	t1,72(sp)
    adb0:	f2050ae3          	beqz	a0,ace4 <_svfprintf_r+0x1ff4>
    adb4:	00100793          	li	a5,1
    adb8:	406787b3          	sub	a5,a5,t1
    adbc:	0cf12e23          	sw	a5,220(sp)
    adc0:	f29ff06f          	j	ace8 <_svfprintf_r+0x1ff8>
    adc4:	0f410613          	addi	a2,sp,244
    adc8:	000b0593          	mv	a1,s6
    adcc:	000d0513          	mv	a0,s10
    add0:	3ac030ef          	jal	ra,e17c <__ssprint_r>
    add4:	00050463          	beqz	a0,addc <_svfprintf_r+0x20ec>
    add8:	ed9fe06f          	j	9cb0 <_svfprintf_r+0xfc0>
    addc:	0dc12683          	lw	a3,220(sp)
    ade0:	0fc12783          	lw	a5,252(sp)
    ade4:	11c10b93          	addi	s7,sp,284
    ade8:	8e8ff06f          	j	9ed0 <_svfprintf_r+0x11e0>
    adec:	02d00793          	li	a5,45
    adf0:	0cf10ba3          	sb	a5,215(sp)
    adf4:	a05ff06f          	j	a7f8 <_svfprintf_r+0x1b08>
    adf8:	0d714783          	lbu	a5,215(sp)
    adfc:	01212823          	sw	s2,16(sp)
    ae00:	02012023          	sw	zero,32(sp)
    ae04:	00012e23          	sw	zero,28(sp)
    ae08:	00012a23          	sw	zero,20(sp)
    ae0c:	00030a93          	mv	s5,t1
    ae10:	00030d93          	mv	s11,t1
    ae14:	00000313          	li	t1,0
    ae18:	00078463          	beqz	a5,ae20 <_svfprintf_r+0x2130>
    ae1c:	811fe06f          	j	962c <_svfprintf_r+0x93c>
    ae20:	8acfe06f          	j	8ecc <_svfprintf_r+0x1dc>
    ae24:	01812783          	lw	a5,24(sp)
    ae28:	02812703          	lw	a4,40(sp)
    ae2c:	06700493          	li	s1,103
    ae30:	00e78db3          	add	s11,a5,a4
    ae34:	01412783          	lw	a5,20(sp)
    ae38:	00f05ce3          	blez	a5,b650 <_svfprintf_r+0x2960>
    ae3c:	05012783          	lw	a5,80(sp)
    ae40:	4007f793          	andi	a5,a5,1024
    ae44:	62079863          	bnez	a5,b474 <_svfprintf_r+0x2784>
    ae48:	fffdca93          	not	s5,s11
    ae4c:	41fada93          	srai	s5,s5,0x1f
    ae50:	015dfab3          	and	s5,s11,s5
    ae54:	dd5ff06f          	j	ac28 <_svfprintf_r+0x1f38>
    ae58:	0f410613          	addi	a2,sp,244
    ae5c:	000b0593          	mv	a1,s6
    ae60:	000d0513          	mv	a0,s10
    ae64:	318030ef          	jal	ra,e17c <__ssprint_r>
    ae68:	00050463          	beqz	a0,ae70 <_svfprintf_r+0x2180>
    ae6c:	e45fe06f          	j	9cb0 <_svfprintf_r+0xfc0>
    ae70:	0dc12483          	lw	s1,220(sp)
    ae74:	01812703          	lw	a4,24(sp)
    ae78:	0fc12783          	lw	a5,252(sp)
    ae7c:	11c10b93          	addi	s7,sp,284
    ae80:	40970633          	sub	a2,a4,s1
    ae84:	894ff06f          	j	9f18 <_svfprintf_r+0x1228>
    ae88:	05012783          	lw	a5,80(sp)
    ae8c:	01412703          	lw	a4,20(sp)
    ae90:	0017f793          	andi	a5,a5,1
    ae94:	0067e7b3          	or	a5,a5,t1
    ae98:	7ce05863          	blez	a4,b668 <_svfprintf_r+0x2978>
    ae9c:	5c079063          	bnez	a5,b45c <_svfprintf_r+0x276c>
    aea0:	01412d83          	lw	s11,20(sp)
    aea4:	06600493          	li	s1,102
    aea8:	f95ff06f          	j	ae3c <_svfprintf_r+0x214c>
    aeac:	03000793          	li	a5,48
    aeb0:	0cf10c23          	sb	a5,216(sp)
    aeb4:	05800793          	li	a5,88
    aeb8:	002a6713          	ori	a4,s4,2
    aebc:	0cf10ca3          	sb	a5,217(sp)
    aec0:	04e12823          	sw	a4,80(sp)
    aec4:	06300793          	li	a5,99
    aec8:	00012623          	sw	zero,12(sp)
    aecc:	15c10c93          	addi	s9,sp,348
    aed0:	4067c263          	blt	a5,t1,b2d4 <_svfprintf_r+0x25e4>
    aed4:	10c12e03          	lw	t3,268(sp)
    aed8:	fdf4f793          	andi	a5,s1,-33
    aedc:	02f12e23          	sw	a5,60(sp)
    aee0:	06012423          	sw	zero,104(sp)
    aee4:	10012e83          	lw	t4,256(sp)
    aee8:	10412f03          	lw	t5,260(sp)
    aeec:	10812f83          	lw	t6,264(sp)
    aef0:	102a6a13          	ori	s4,s4,258
    aef4:	3c0e4663          	bltz	t3,b2c0 <_svfprintf_r+0x25d0>
    aef8:	06100793          	li	a5,97
    aefc:	62f48263          	beq	s1,a5,b520 <_svfprintf_r+0x2830>
    af00:	04100793          	li	a5,65
    af04:	00f48463          	beq	s1,a5,af0c <_svfprintf_r+0x221c>
    af08:	a8cfe06f          	j	9194 <_svfprintf_r+0x4a4>
    af0c:	0c010d93          	addi	s11,sp,192
    af10:	000d8513          	mv	a0,s11
    af14:	04612a23          	sw	t1,84(sp)
    af18:	0de12223          	sw	t5,196(sp)
    af1c:	0df12423          	sw	t6,200(sp)
    af20:	0dd12023          	sw	t4,192(sp)
    af24:	0dc12623          	sw	t3,204(sp)
    af28:	2bc090ef          	jal	ra,141e4 <__trunctfdf2>
    af2c:	0dc10613          	addi	a2,sp,220
    af30:	f6cfd0ef          	jal	ra,869c <frexp>
    af34:	00058613          	mv	a2,a1
    af38:	00050593          	mv	a1,a0
    af3c:	000d8513          	mv	a0,s11
    af40:	070090ef          	jal	ra,13fb0 <__extenddftf2>
    af44:	0c012e83          	lw	t4,192(sp)
    af48:	00015797          	auipc	a5,0x15
    af4c:	30878793          	addi	a5,a5,776 # 20250 <__malloc_trim_threshold+0x218>
    af50:	0007ae03          	lw	t3,0(a5)
    af54:	0bd12023          	sw	t4,160(sp)
    af58:	0c412e83          	lw	t4,196(sp)
    af5c:	0047a683          	lw	a3,4(a5)
    af60:	0087a703          	lw	a4,8(a5)
    af64:	0bd12223          	sw	t4,164(sp)
    af68:	0c812e83          	lw	t4,200(sp)
    af6c:	00c7a783          	lw	a5,12(a5)
    af70:	0a010613          	addi	a2,sp,160
    af74:	0bd12423          	sw	t4,168(sp)
    af78:	0cc12e83          	lw	t4,204(sp)
    af7c:	0b010913          	addi	s2,sp,176
    af80:	00060593          	mv	a1,a2
    af84:	00c12a23          	sw	a2,20(sp)
    af88:	00090513          	mv	a0,s2
    af8c:	09010613          	addi	a2,sp,144
    af90:	04c12423          	sw	a2,72(sp)
    af94:	0bd12623          	sw	t4,172(sp)
    af98:	09c12823          	sw	t3,144(sp)
    af9c:	08d12a23          	sw	a3,148(sp)
    afa0:	08e12c23          	sw	a4,152(sp)
    afa4:	08f12e23          	sw	a5,156(sp)
    afa8:	710060ef          	jal	ra,116b8 <__multf3>
    afac:	0b012683          	lw	a3,176(sp)
    afb0:	0b412e03          	lw	t3,180(sp)
    afb4:	0b812e83          	lw	t4,184(sp)
    afb8:	0bc12f03          	lw	t5,188(sp)
    afbc:	00090593          	mv	a1,s2
    afc0:	000d8513          	mv	a0,s11
    afc4:	0cd12023          	sw	a3,192(sp)
    afc8:	04d12623          	sw	a3,76(sp)
    afcc:	0dc12223          	sw	t3,196(sp)
    afd0:	03c12023          	sw	t3,32(sp)
    afd4:	0dd12423          	sw	t4,200(sp)
    afd8:	01d12e23          	sw	t4,28(sp)
    afdc:	0de12623          	sw	t5,204(sp)
    afe0:	01e12c23          	sw	t5,24(sp)
    afe4:	0a012823          	sw	zero,176(sp)
    afe8:	0a012a23          	sw	zero,180(sp)
    afec:	0a012c23          	sw	zero,184(sp)
    aff0:	0a012e23          	sw	zero,188(sp)
    aff4:	320060ef          	jal	ra,11314 <__eqtf2>
    aff8:	01812f03          	lw	t5,24(sp)
    affc:	01c12e83          	lw	t4,28(sp)
    b000:	02012e03          	lw	t3,32(sp)
    b004:	04c12683          	lw	a3,76(sp)
    b008:	05412303          	lw	t1,84(sp)
    b00c:	00051663          	bnez	a0,b018 <_svfprintf_r+0x2328>
    b010:	00100793          	li	a5,1
    b014:	0cf12e23          	sw	a5,220(sp)
    b018:	00015797          	auipc	a5,0x15
    b01c:	08c78793          	addi	a5,a5,140 # 200a4 <__malloc_trim_threshold+0x6c>
    b020:	02f12023          	sw	a5,32(sp)
    b024:	00015797          	auipc	a5,0x15
    b028:	20c78793          	addi	a5,a5,524 # 20230 <__malloc_trim_threshold+0x1f8>
    b02c:	0007a703          	lw	a4,0(a5)
    b030:	07412623          	sw	s4,108(sp)
    b034:	06912a23          	sw	s1,116(sp)
    b038:	04e12c23          	sw	a4,88(sp)
    b03c:	0047a703          	lw	a4,4(a5)
    b040:	07312c23          	sw	s3,120(sp)
    b044:	09712023          	sw	s7,128(sp)
    b048:	04e12e23          	sw	a4,92(sp)
    b04c:	0087a703          	lw	a4,8(a5)
    b050:	00c7a783          	lw	a5,12(a5)
    b054:	09a12223          	sw	s10,132(sp)
    b058:	06e12023          	sw	a4,96(sp)
    b05c:	fff30713          	addi	a4,t1,-1
    b060:	09612423          	sw	s6,136(sp)
    b064:	01412483          	lw	s1,20(sp)
    b068:	06f12223          	sw	a5,100(sp)
    b06c:	06812823          	sw	s0,112(sp)
    b070:	06612e23          	sw	t1,124(sp)
    b074:	000c8993          	mv	s3,s9
    b078:	00070a13          	mv	s4,a4
    b07c:	09912623          	sw	s9,140(sp)
    b080:	00068a93          	mv	s5,a3
    b084:	000e0b13          	mv	s6,t3
    b088:	000e8b93          	mv	s7,t4
    b08c:	000f0d13          	mv	s10,t5
    b090:	0500006f          	j	b0e0 <_svfprintf_r+0x23f0>
    b094:	00090593          	mv	a1,s2
    b098:	000d8513          	mv	a0,s11
    b09c:	00c12e23          	sw	a2,28(sp)
    b0a0:	01f12c23          	sw	t6,24(sp)
    b0a4:	00512a23          	sw	t0,20(sp)
    b0a8:	0c512223          	sw	t0,196(sp)
    b0ac:	0df12423          	sw	t6,200(sp)
    b0b0:	0cc12623          	sw	a2,204(sp)
    b0b4:	0d912023          	sw	s9,192(sp)
    b0b8:	0a012823          	sw	zero,176(sp)
    b0bc:	0a012a23          	sw	zero,180(sp)
    b0c0:	0a012c23          	sw	zero,184(sp)
    b0c4:	0a012e23          	sw	zero,188(sp)
    b0c8:	24c060ef          	jal	ra,11314 <__eqtf2>
    b0cc:	fffa0a13          	addi	s4,s4,-1
    b0d0:	000b0293          	mv	t0,s6
    b0d4:	000b8f93          	mv	t6,s7
    b0d8:	000d0613          	mv	a2,s10
    b0dc:	0e050863          	beqz	a0,b1cc <_svfprintf_r+0x24dc>
    b0e0:	05812783          	lw	a5,88(sp)
    b0e4:	00048613          	mv	a2,s1
    b0e8:	00090593          	mv	a1,s2
    b0ec:	0af12023          	sw	a5,160(sp)
    b0f0:	05c12783          	lw	a5,92(sp)
    b0f4:	000d8513          	mv	a0,s11
    b0f8:	0b512823          	sw	s5,176(sp)
    b0fc:	0af12223          	sw	a5,164(sp)
    b100:	06012783          	lw	a5,96(sp)
    b104:	0b612a23          	sw	s6,180(sp)
    b108:	0b712c23          	sw	s7,184(sp)
    b10c:	0af12423          	sw	a5,168(sp)
    b110:	06412783          	lw	a5,100(sp)
    b114:	0ba12e23          	sw	s10,188(sp)
    b118:	0af12623          	sw	a5,172(sp)
    b11c:	59c060ef          	jal	ra,116b8 <__multf3>
    b120:	000d8513          	mv	a0,s11
    b124:	425080ef          	jal	ra,13d48 <__fixtfsi>
    b128:	00050593          	mv	a1,a0
    b12c:	00050413          	mv	s0,a0
    b130:	000d8513          	mv	a0,s11
    b134:	0c012b83          	lw	s7,192(sp)
    b138:	0c412b03          	lw	s6,196(sp)
    b13c:	0c812d03          	lw	s10,200(sp)
    b140:	0cc12a83          	lw	s5,204(sp)
    b144:	501080ef          	jal	ra,13e44 <__floatsitf>
    b148:	0c012683          	lw	a3,192(sp)
    b14c:	04812603          	lw	a2,72(sp)
    b150:	00048593          	mv	a1,s1
    b154:	08d12823          	sw	a3,144(sp)
    b158:	0c412683          	lw	a3,196(sp)
    b15c:	00090513          	mv	a0,s2
    b160:	0b712023          	sw	s7,160(sp)
    b164:	08d12a23          	sw	a3,148(sp)
    b168:	0c812683          	lw	a3,200(sp)
    b16c:	0b612223          	sw	s6,164(sp)
    b170:	0ba12423          	sw	s10,168(sp)
    b174:	08d12c23          	sw	a3,152(sp)
    b178:	0cc12683          	lw	a3,204(sp)
    b17c:	0b512623          	sw	s5,172(sp)
    b180:	08d12e23          	sw	a3,156(sp)
    b184:	61c070ef          	jal	ra,127a0 <__subtf3>
    b188:	02012783          	lw	a5,32(sp)
    b18c:	0b012c83          	lw	s9,176(sp)
    b190:	0b412283          	lw	t0,180(sp)
    b194:	008786b3          	add	a3,a5,s0
    b198:	0006c683          	lbu	a3,0(a3)
    b19c:	0b812f83          	lw	t6,184(sp)
    b1a0:	0bc12603          	lw	a2,188(sp)
    b1a4:	05312a23          	sw	s3,84(sp)
    b1a8:	00d98023          	sb	a3,0(s3)
    b1ac:	05412623          	sw	s4,76(sp)
    b1b0:	fff00793          	li	a5,-1
    b1b4:	00198993          	addi	s3,s3,1
    b1b8:	000c8a93          	mv	s5,s9
    b1bc:	00028b13          	mv	s6,t0
    b1c0:	000f8b93          	mv	s7,t6
    b1c4:	00060d13          	mv	s10,a2
    b1c8:	ecfa16e3          	bne	s4,a5,b094 <_svfprintf_r+0x23a4>
    b1cc:	00015717          	auipc	a4,0x15
    b1d0:	07470713          	addi	a4,a4,116 # 20240 <__malloc_trim_threshold+0x208>
    b1d4:	00072e83          	lw	t4,0(a4)
    b1d8:	00472e03          	lw	t3,4(a4)
    b1dc:	00872683          	lw	a3,8(a4)
    b1e0:	07c12303          	lw	t1,124(sp)
    b1e4:	00c72703          	lw	a4,12(a4)
    b1e8:	000c8393          	mv	t2,s9
    b1ec:	06c12a03          	lw	s4,108(sp)
    b1f0:	00612c23          	sw	t1,24(sp)
    b1f4:	00812a23          	sw	s0,20(sp)
    b1f8:	0c712023          	sw	t2,192(sp)
    b1fc:	07012403          	lw	s0,112(sp)
    b200:	0c512223          	sw	t0,196(sp)
    b204:	06712823          	sw	t2,112(sp)
    b208:	06512623          	sw	t0,108(sp)
    b20c:	0df12423          	sw	t6,200(sp)
    b210:	07f12223          	sw	t6,100(sp)
    b214:	0cc12623          	sw	a2,204(sp)
    b218:	06c12023          	sw	a2,96(sp)
    b21c:	0bd12823          	sw	t4,176(sp)
    b220:	05d12e23          	sw	t4,92(sp)
    b224:	0bc12a23          	sw	t3,180(sp)
    b228:	05c12c23          	sw	t3,88(sp)
    b22c:	0ad12c23          	sw	a3,184(sp)
    b230:	04d12423          	sw	a3,72(sp)
    b234:	0ae12e23          	sw	a4,188(sp)
    b238:	00e12e23          	sw	a4,28(sp)
    b23c:	00090593          	mv	a1,s2
    b240:	000d8513          	mv	a0,s11
    b244:	07412483          	lw	s1,116(sp)
    b248:	08012b83          	lw	s7,128(sp)
    b24c:	08412d03          	lw	s10,132(sp)
    b250:	08812b03          	lw	s6,136(sp)
    b254:	08c12c83          	lw	s9,140(sp)
    b258:	00098a93          	mv	s5,s3
    b25c:	07812983          	lw	s3,120(sp)
    b260:	184060ef          	jal	ra,113e4 <__getf2>
    b264:	01812303          	lw	t1,24(sp)
    b268:	08a04863          	bgtz	a0,b2f8 <_svfprintf_r+0x2608>
    b26c:	00090593          	mv	a1,s2
    b270:	000d8513          	mv	a0,s11
    b274:	0a0060ef          	jal	ra,11314 <__eqtf2>
    b278:	01812303          	lw	t1,24(sp)
    b27c:	00051863          	bnez	a0,b28c <_svfprintf_r+0x259c>
    b280:	01412783          	lw	a5,20(sp)
    b284:	0017f793          	andi	a5,a5,1
    b288:	06079863          	bnez	a5,b2f8 <_svfprintf_r+0x2608>
    b28c:	04c12783          	lw	a5,76(sp)
    b290:	03000693          	li	a3,48
    b294:	00178713          	addi	a4,a5,1
    b298:	00ea8733          	add	a4,s5,a4
    b29c:	0007c863          	bltz	a5,b2ac <_svfprintf_r+0x25bc>
    b2a0:	001a8a93          	addi	s5,s5,1
    b2a4:	feda8fa3          	sb	a3,-1(s5)
    b2a8:	feea9ce3          	bne	s5,a4,b2a0 <_svfprintf_r+0x25b0>
    b2ac:	419a87b3          	sub	a5,s5,s9
    b2b0:	00f12c23          	sw	a5,24(sp)
    b2b4:	f89fd06f          	j	923c <_svfprintf_r+0x54c>
    b2b8:	00012623          	sw	zero,12(sp)
    b2bc:	00078a13          	mv	s4,a5
    b2c0:	800007b7          	lui	a5,0x80000
    b2c4:	01c7ce33          	xor	t3,a5,t3
    b2c8:	02d00793          	li	a5,45
    b2cc:	06f12423          	sw	a5,104(sp)
    b2d0:	c29ff06f          	j	aef8 <_svfprintf_r+0x2208>
    b2d4:	00130593          	addi	a1,t1,1
    b2d8:	000d0513          	mv	a0,s10
    b2dc:	00612623          	sw	t1,12(sp)
    b2e0:	f70fb0ef          	jal	ra,6a50 <_malloc_r>
    b2e4:	00c12303          	lw	t1,12(sp)
    b2e8:	00050c93          	mv	s9,a0
    b2ec:	3c050e63          	beqz	a0,b6c8 <_svfprintf_r+0x29d8>
    b2f0:	00a12623          	sw	a0,12(sp)
    b2f4:	be1ff06f          	j	aed4 <_svfprintf_r+0x21e4>
    b2f8:	05412783          	lw	a5,84(sp)
    b2fc:	000a8713          	mv	a4,s5
    b300:	0ef12623          	sw	a5,236(sp)
    b304:	02012783          	lw	a5,32(sp)
    b308:	fffac683          	lbu	a3,-1(s5)
    b30c:	00f7c603          	lbu	a2,15(a5) # 8000000f <_stack+0x7ffc000f>
    b310:	02c69063          	bne	a3,a2,b330 <_svfprintf_r+0x2640>
    b314:	03000593          	li	a1,48
    b318:	feb70fa3          	sb	a1,-1(a4)
    b31c:	0ec12703          	lw	a4,236(sp)
    b320:	fff70793          	addi	a5,a4,-1
    b324:	0ef12623          	sw	a5,236(sp)
    b328:	fff74683          	lbu	a3,-1(a4)
    b32c:	fed606e3          	beq	a2,a3,b318 <_svfprintf_r+0x2628>
    b330:	00168613          	addi	a2,a3,1
    b334:	03900593          	li	a1,57
    b338:	0ff67613          	zext.b	a2,a2
    b33c:	00b68663          	beq	a3,a1,b348 <_svfprintf_r+0x2658>
    b340:	fec70fa3          	sb	a2,-1(a4)
    b344:	f69ff06f          	j	b2ac <_svfprintf_r+0x25bc>
    b348:	02012783          	lw	a5,32(sp)
    b34c:	00a7c603          	lbu	a2,10(a5)
    b350:	fec70fa3          	sb	a2,-1(a4)
    b354:	f59ff06f          	j	b2ac <_svfprintf_r+0x25bc>
    b358:	00015697          	auipc	a3,0x15
    b35c:	56068693          	addi	a3,a3,1376 # 208b8 <zeroes.0>
    b360:	009787b3          	add	a5,a5,s1
    b364:	00170713          	addi	a4,a4,1
    b368:	00d8a023          	sw	a3,0(a7)
    b36c:	0098a223          	sw	s1,4(a7)
    b370:	0ef12e23          	sw	a5,252(sp)
    b374:	0ee12c23          	sw	a4,248(sp)
    b378:	00700693          	li	a3,7
    b37c:	00888893          	addi	a7,a7,8
    b380:	b4e6d263          	bge	a3,a4,a6c4 <_svfprintf_r+0x19d4>
    b384:	0f410613          	addi	a2,sp,244
    b388:	000b0593          	mv	a1,s6
    b38c:	000d0513          	mv	a0,s10
    b390:	5ed020ef          	jal	ra,e17c <__ssprint_r>
    b394:	00050463          	beqz	a0,b39c <_svfprintf_r+0x26ac>
    b398:	919fe06f          	j	9cb0 <_svfprintf_r+0xfc0>
    b39c:	0fc12783          	lw	a5,252(sp)
    b3a0:	0f812703          	lw	a4,248(sp)
    b3a4:	11c10893          	addi	a7,sp,284
    b3a8:	b1cff06f          	j	a6c4 <_svfprintf_r+0x19d4>
    b3ac:	03000793          	li	a5,48
    b3b0:	0cf10c23          	sb	a5,216(sp)
    b3b4:	07800793          	li	a5,120
    b3b8:	b01ff06f          	j	aeb8 <_svfprintf_r+0x21c8>
    b3bc:	000a0a93          	mv	s5,s4
    b3c0:	c7cfe06f          	j	983c <_svfprintf_r+0xb4c>
    b3c4:	00130a93          	addi	s5,t1,1
    b3c8:	0c010d93          	addi	s11,sp,192
    b3cc:	0ec10813          	addi	a6,sp,236
    b3d0:	0e010793          	addi	a5,sp,224
    b3d4:	0dc10713          	addi	a4,sp,220
    b3d8:	000a8693          	mv	a3,s5
    b3dc:	00200613          	li	a2,2
    b3e0:	000d8593          	mv	a1,s11
    b3e4:	000d0513          	mv	a0,s10
    b3e8:	04612423          	sw	t1,72(sp)
    b3ec:	0dd12023          	sw	t4,192(sp)
    b3f0:	03d12023          	sw	t4,32(sp)
    b3f4:	0de12223          	sw	t5,196(sp)
    b3f8:	01e12e23          	sw	t5,28(sp)
    b3fc:	0df12423          	sw	t6,200(sp)
    b400:	01f12c23          	sw	t6,24(sp)
    b404:	0dc12623          	sw	t3,204(sp)
    b408:	01c12a23          	sw	t3,20(sp)
    b40c:	fc9f90ef          	jal	ra,53d4 <_ldtoa_r>
    b410:	01412e03          	lw	t3,20(sp)
    b414:	01812f83          	lw	t6,24(sp)
    b418:	01c12f03          	lw	t5,28(sp)
    b41c:	02012e83          	lw	t4,32(sp)
    b420:	04812303          	lw	t1,72(sp)
    b424:	00050c93          	mv	s9,a0
    b428:	015c8ab3          	add	s5,s9,s5
    b42c:	0b010913          	addi	s2,sp,176
    b430:	8c1ff06f          	j	acf0 <_svfprintf_r+0x2000>
    b434:	006c8ab3          	add	s5,s9,t1
    b438:	0b010913          	addi	s2,sp,176
    b43c:	8b5ff06f          	j	acf0 <_svfprintf_r+0x2000>
    b440:	00030463          	beqz	t1,b448 <_svfprintf_r+0x2758>
    b444:	d25fd06f          	j	9168 <_svfprintf_r+0x478>
    b448:	00100313          	li	t1,1
    b44c:	d1dfd06f          	j	9168 <_svfprintf_r+0x478>
    b450:	fff00793          	li	a5,-1
    b454:	00f12423          	sw	a5,8(sp)
    b458:	bb1fd06f          	j	9008 <_svfprintf_r+0x318>
    b45c:	02812783          	lw	a5,40(sp)
    b460:	06600493          	li	s1,102
    b464:	00f70db3          	add	s11,a4,a5
    b468:	006d8db3          	add	s11,s11,t1
    b46c:	9d1ff06f          	j	ae3c <_svfprintf_r+0x214c>
    b470:	06700493          	li	s1,103
    b474:	03812603          	lw	a2,56(sp)
    b478:	0ff00713          	li	a4,255
    b47c:	00064783          	lbu	a5,0(a2)
    b480:	26e78e63          	beq	a5,a4,b6fc <_svfprintf_r+0x2a0c>
    b484:	01412683          	lw	a3,20(sp)
    b488:	00000513          	li	a0,0
    b48c:	00000593          	li	a1,0
    b490:	00d7de63          	bge	a5,a3,b4ac <_svfprintf_r+0x27bc>
    b494:	40f686b3          	sub	a3,a3,a5
    b498:	00164783          	lbu	a5,1(a2)
    b49c:	04078463          	beqz	a5,b4e4 <_svfprintf_r+0x27f4>
    b4a0:	00158593          	addi	a1,a1,1
    b4a4:	00160613          	addi	a2,a2,1
    b4a8:	fee794e3          	bne	a5,a4,b490 <_svfprintf_r+0x27a0>
    b4ac:	00d12a23          	sw	a3,20(sp)
    b4b0:	02c12c23          	sw	a2,56(sp)
    b4b4:	00b12e23          	sw	a1,28(sp)
    b4b8:	02a12023          	sw	a0,32(sp)
    b4bc:	02012703          	lw	a4,32(sp)
    b4c0:	01c12783          	lw	a5,28(sp)
    b4c4:	00e787b3          	add	a5,a5,a4
    b4c8:	04012703          	lw	a4,64(sp)
    b4cc:	02e787b3          	mul	a5,a5,a4
    b4d0:	01b78db3          	add	s11,a5,s11
    b4d4:	fffdca93          	not	s5,s11
    b4d8:	41fada93          	srai	s5,s5,0x1f
    b4dc:	015dfab3          	and	s5,s11,s5
    b4e0:	ea1fd06f          	j	9380 <_svfprintf_r+0x690>
    b4e4:	00064783          	lbu	a5,0(a2)
    b4e8:	00150513          	addi	a0,a0,1
    b4ec:	fbdff06f          	j	b4a8 <_svfprintf_r+0x27b8>
    b4f0:	0e610713          	addi	a4,sp,230
    b4f4:	00069863          	bnez	a3,b504 <_svfprintf_r+0x2814>
    b4f8:	03000713          	li	a4,48
    b4fc:	0ee10323          	sb	a4,230(sp)
    b500:	0e710713          	addi	a4,sp,231
    b504:	1c010693          	addi	a3,sp,448
    b508:	03078793          	addi	a5,a5,48
    b50c:	40d706b3          	sub	a3,a4,a3
    b510:	00f70023          	sb	a5,0(a4)
    b514:	0dd68793          	addi	a5,a3,221
    b518:	02f12a23          	sw	a5,52(sp)
    b51c:	e21fd06f          	j	933c <_svfprintf_r+0x64c>
    b520:	0c010d93          	addi	s11,sp,192
    b524:	000d8513          	mv	a0,s11
    b528:	04612a23          	sw	t1,84(sp)
    b52c:	0de12223          	sw	t5,196(sp)
    b530:	0df12423          	sw	t6,200(sp)
    b534:	0dd12023          	sw	t4,192(sp)
    b538:	0dc12623          	sw	t3,204(sp)
    b53c:	4a9080ef          	jal	ra,141e4 <__trunctfdf2>
    b540:	0dc10613          	addi	a2,sp,220
    b544:	958fd0ef          	jal	ra,869c <frexp>
    b548:	00058613          	mv	a2,a1
    b54c:	00050593          	mv	a1,a0
    b550:	000d8513          	mv	a0,s11
    b554:	25d080ef          	jal	ra,13fb0 <__extenddftf2>
    b558:	0c012e83          	lw	t4,192(sp)
    b55c:	00015797          	auipc	a5,0x15
    b560:	cf478793          	addi	a5,a5,-780 # 20250 <__malloc_trim_threshold+0x218>
    b564:	0007ae03          	lw	t3,0(a5)
    b568:	0bd12023          	sw	t4,160(sp)
    b56c:	0c412e83          	lw	t4,196(sp)
    b570:	0047a683          	lw	a3,4(a5)
    b574:	0087a703          	lw	a4,8(a5)
    b578:	0bd12223          	sw	t4,164(sp)
    b57c:	0c812e83          	lw	t4,200(sp)
    b580:	00c7a783          	lw	a5,12(a5)
    b584:	0a010613          	addi	a2,sp,160
    b588:	0bd12423          	sw	t4,168(sp)
    b58c:	0cc12e83          	lw	t4,204(sp)
    b590:	0b010913          	addi	s2,sp,176
    b594:	00060593          	mv	a1,a2
    b598:	00c12a23          	sw	a2,20(sp)
    b59c:	00090513          	mv	a0,s2
    b5a0:	09010613          	addi	a2,sp,144
    b5a4:	04c12423          	sw	a2,72(sp)
    b5a8:	0bd12623          	sw	t4,172(sp)
    b5ac:	09c12823          	sw	t3,144(sp)
    b5b0:	08d12a23          	sw	a3,148(sp)
    b5b4:	08e12c23          	sw	a4,152(sp)
    b5b8:	08f12e23          	sw	a5,156(sp)
    b5bc:	0fc060ef          	jal	ra,116b8 <__multf3>
    b5c0:	0b012683          	lw	a3,176(sp)
    b5c4:	0b412e03          	lw	t3,180(sp)
    b5c8:	0b812e83          	lw	t4,184(sp)
    b5cc:	0bc12f03          	lw	t5,188(sp)
    b5d0:	00090593          	mv	a1,s2
    b5d4:	000d8513          	mv	a0,s11
    b5d8:	0cd12023          	sw	a3,192(sp)
    b5dc:	04d12623          	sw	a3,76(sp)
    b5e0:	0dc12223          	sw	t3,196(sp)
    b5e4:	03c12023          	sw	t3,32(sp)
    b5e8:	0dd12423          	sw	t4,200(sp)
    b5ec:	01d12e23          	sw	t4,28(sp)
    b5f0:	0de12623          	sw	t5,204(sp)
    b5f4:	01e12c23          	sw	t5,24(sp)
    b5f8:	0a012823          	sw	zero,176(sp)
    b5fc:	0a012a23          	sw	zero,180(sp)
    b600:	0a012c23          	sw	zero,184(sp)
    b604:	0a012e23          	sw	zero,188(sp)
    b608:	50d050ef          	jal	ra,11314 <__eqtf2>
    b60c:	01812f03          	lw	t5,24(sp)
    b610:	01c12e83          	lw	t4,28(sp)
    b614:	02012e03          	lw	t3,32(sp)
    b618:	04c12683          	lw	a3,76(sp)
    b61c:	05412303          	lw	t1,84(sp)
    b620:	00051663          	bnez	a0,b62c <_svfprintf_r+0x293c>
    b624:	00100793          	li	a5,1
    b628:	0cf12e23          	sw	a5,220(sp)
    b62c:	00015797          	auipc	a5,0x15
    b630:	a6478793          	addi	a5,a5,-1436 # 20090 <__malloc_trim_threshold+0x58>
    b634:	02f12023          	sw	a5,32(sp)
    b638:	9edff06f          	j	b024 <_svfprintf_r+0x2334>
    b63c:	05012783          	lw	a5,80(sp)
    b640:	0017f793          	andi	a5,a5,1
    b644:	00079463          	bnez	a5,b64c <_svfprintf_r+0x295c>
    b648:	d15fd06f          	j	935c <_svfprintf_r+0x66c>
    b64c:	d09fd06f          	j	9354 <_svfprintf_r+0x664>
    b650:	40fd8db3          	sub	s11,s11,a5
    b654:	001d8d93          	addi	s11,s11,1
    b658:	fffdca93          	not	s5,s11
    b65c:	41fada93          	srai	s5,s5,0x1f
    b660:	015dfab3          	and	s5,s11,s5
    b664:	dc4ff06f          	j	ac28 <_svfprintf_r+0x1f38>
    b668:	00079a63          	bnez	a5,b67c <_svfprintf_r+0x298c>
    b66c:	00100a93          	li	s5,1
    b670:	06600493          	li	s1,102
    b674:	00100d93          	li	s11,1
    b678:	db0ff06f          	j	ac28 <_svfprintf_r+0x1f38>
    b67c:	02812783          	lw	a5,40(sp)
    b680:	06600493          	li	s1,102
    b684:	00178d93          	addi	s11,a5,1
    b688:	006d8db3          	add	s11,s11,t1
    b68c:	fffdca93          	not	s5,s11
    b690:	41fada93          	srai	s5,s5,0x1f
    b694:	015dfab3          	and	s5,s11,s5
    b698:	d90ff06f          	j	ac28 <_svfprintf_r+0x1f38>
    b69c:	000b8693          	mv	a3,s7
    b6a0:	a68ff06f          	j	a908 <_svfprintf_r+0x1c18>
    b6a4:	01012783          	lw	a5,16(sp)
    b6a8:	0007ad83          	lw	s11,0(a5)
    b6ac:	00478793          	addi	a5,a5,4
    b6b0:	000dd463          	bgez	s11,b6b8 <_svfprintf_r+0x29c8>
    b6b4:	fff00d93          	li	s11,-1
    b6b8:	00144483          	lbu	s1,1(s0)
    b6bc:	00f12823          	sw	a5,16(sp)
    b6c0:	00068413          	mv	s0,a3
    b6c4:	f80fd06f          	j	8e44 <_svfprintf_r+0x154>
    b6c8:	02412683          	lw	a3,36(sp)
    b6cc:	00c6d783          	lhu	a5,12(a3)
    b6d0:	0407e713          	ori	a4,a5,64
    b6d4:	00070793          	mv	a5,a4
    b6d8:	00e69623          	sh	a4,12(a3)
    b6dc:	921fd06f          	j	8ffc <_svfprintf_r+0x30c>
    b6e0:	00c00793          	li	a5,12
    b6e4:	00fd2023          	sw	a5,0(s10)
    b6e8:	fff00793          	li	a5,-1
    b6ec:	00f12423          	sw	a5,8(sp)
    b6f0:	919fd06f          	j	9008 <_svfprintf_r+0x318>
    b6f4:	00030a93          	mv	s5,t1
    b6f8:	d31ff06f          	j	b428 <_svfprintf_r+0x2738>
    b6fc:	02012023          	sw	zero,32(sp)
    b700:	00012e23          	sw	zero,28(sp)
    b704:	db9ff06f          	j	b4bc <_svfprintf_r+0x27cc>
    b708:	00200793          	li	a5,2
    b70c:	02f12a23          	sw	a5,52(sp)
    b710:	c2dfd06f          	j	933c <_svfprintf_r+0x64c>

0000b714 <__sprint_r.part.0>:
    b714:	0645a703          	lw	a4,100(a1)
    b718:	fd010113          	addi	sp,sp,-48
    b71c:	000027b7          	lui	a5,0x2
    b720:	01612823          	sw	s6,16(sp)
    b724:	02112623          	sw	ra,44(sp)
    b728:	02812423          	sw	s0,40(sp)
    b72c:	02912223          	sw	s1,36(sp)
    b730:	03212023          	sw	s2,32(sp)
    b734:	01312e23          	sw	s3,28(sp)
    b738:	01412c23          	sw	s4,24(sp)
    b73c:	01512a23          	sw	s5,20(sp)
    b740:	01712623          	sw	s7,12(sp)
    b744:	01812423          	sw	s8,8(sp)
    b748:	00e7f7b3          	and	a5,a5,a4
    b74c:	00060b13          	mv	s6,a2
    b750:	0a078863          	beqz	a5,b800 <__sprint_r.part.0+0xec>
    b754:	00862783          	lw	a5,8(a2)
    b758:	00062b83          	lw	s7,0(a2)
    b75c:	00058913          	mv	s2,a1
    b760:	00050993          	mv	s3,a0
    b764:	fff00a93          	li	s5,-1
    b768:	08078863          	beqz	a5,b7f8 <__sprint_r.part.0+0xe4>
    b76c:	004bac03          	lw	s8,4(s7)
    b770:	000ba403          	lw	s0,0(s7)
    b774:	002c5a13          	srli	s4,s8,0x2
    b778:	060a0663          	beqz	s4,b7e4 <__sprint_r.part.0+0xd0>
    b77c:	00000493          	li	s1,0
    b780:	00c0006f          	j	b78c <__sprint_r.part.0+0x78>
    b784:	00440413          	addi	s0,s0,4
    b788:	049a0c63          	beq	s4,s1,b7e0 <__sprint_r.part.0+0xcc>
    b78c:	00042583          	lw	a1,0(s0)
    b790:	00090613          	mv	a2,s2
    b794:	00098513          	mv	a0,s3
    b798:	1ad010ef          	jal	ra,d144 <_fputwc_r>
    b79c:	00148493          	addi	s1,s1,1
    b7a0:	ff5512e3          	bne	a0,s5,b784 <__sprint_r.part.0+0x70>
    b7a4:	fff00513          	li	a0,-1
    b7a8:	02c12083          	lw	ra,44(sp)
    b7ac:	02812403          	lw	s0,40(sp)
    b7b0:	000b2423          	sw	zero,8(s6)
    b7b4:	000b2223          	sw	zero,4(s6)
    b7b8:	02412483          	lw	s1,36(sp)
    b7bc:	02012903          	lw	s2,32(sp)
    b7c0:	01c12983          	lw	s3,28(sp)
    b7c4:	01812a03          	lw	s4,24(sp)
    b7c8:	01412a83          	lw	s5,20(sp)
    b7cc:	01012b03          	lw	s6,16(sp)
    b7d0:	00c12b83          	lw	s7,12(sp)
    b7d4:	00812c03          	lw	s8,8(sp)
    b7d8:	03010113          	addi	sp,sp,48
    b7dc:	00008067          	ret
    b7e0:	008b2783          	lw	a5,8(s6)
    b7e4:	ffcc7c13          	andi	s8,s8,-4
    b7e8:	418787b3          	sub	a5,a5,s8
    b7ec:	00fb2423          	sw	a5,8(s6)
    b7f0:	008b8b93          	addi	s7,s7,8
    b7f4:	f6079ce3          	bnez	a5,b76c <__sprint_r.part.0+0x58>
    b7f8:	00000513          	li	a0,0
    b7fc:	fadff06f          	j	b7a8 <__sprint_r.part.0+0x94>
    b800:	251010ef          	jal	ra,d250 <__sfvwrite_r>
    b804:	fa5ff06f          	j	b7a8 <__sprint_r.part.0+0x94>

0000b808 <__sprint_r>:
    b808:	00862703          	lw	a4,8(a2)
    b80c:	00070463          	beqz	a4,b814 <__sprint_r+0xc>
    b810:	f05ff06f          	j	b714 <__sprint_r.part.0>
    b814:	00062223          	sw	zero,4(a2)
    b818:	00000513          	li	a0,0
    b81c:	00008067          	ret

0000b820 <_vfiprintf_r>:
    b820:	ed010113          	addi	sp,sp,-304
    b824:	13212023          	sw	s2,288(sp)
    b828:	11312e23          	sw	s3,284(sp)
    b82c:	11712623          	sw	s7,268(sp)
    b830:	12112623          	sw	ra,300(sp)
    b834:	12812423          	sw	s0,296(sp)
    b838:	12912223          	sw	s1,292(sp)
    b83c:	11412c23          	sw	s4,280(sp)
    b840:	11512a23          	sw	s5,276(sp)
    b844:	11612823          	sw	s6,272(sp)
    b848:	11812423          	sw	s8,264(sp)
    b84c:	11912223          	sw	s9,260(sp)
    b850:	11a12023          	sw	s10,256(sp)
    b854:	0fb12e23          	sw	s11,252(sp)
    b858:	00d12823          	sw	a3,16(sp)
    b85c:	00050993          	mv	s3,a0
    b860:	00058913          	mv	s2,a1
    b864:	00060b93          	mv	s7,a2
    b868:	00050663          	beqz	a0,b874 <_vfiprintf_r+0x54>
    b86c:	03852783          	lw	a5,56(a0)
    b870:	6e078e63          	beqz	a5,bf6c <_vfiprintf_r+0x74c>
    b874:	00c91703          	lh	a4,12(s2)
    b878:	000026b7          	lui	a3,0x2
    b87c:	01071793          	slli	a5,a4,0x10
    b880:	0107d793          	srli	a5,a5,0x10
    b884:	00d7f633          	and	a2,a5,a3
    b888:	02061863          	bnez	a2,b8b8 <_vfiprintf_r+0x98>
    b88c:	06492603          	lw	a2,100(s2)
    b890:	00d767b3          	or	a5,a4,a3
    b894:	01079793          	slli	a5,a5,0x10
    b898:	ffffe737          	lui	a4,0xffffe
    b89c:	4107d793          	srai	a5,a5,0x10
    b8a0:	fff70713          	addi	a4,a4,-1 # ffffdfff <_stack+0xfffbdfff>
    b8a4:	00e67733          	and	a4,a2,a4
    b8a8:	00f91623          	sh	a5,12(s2)
    b8ac:	01079793          	slli	a5,a5,0x10
    b8b0:	06e92223          	sw	a4,100(s2)
    b8b4:	0107d793          	srli	a5,a5,0x10
    b8b8:	0087f713          	andi	a4,a5,8
    b8bc:	3e070863          	beqz	a4,bcac <_vfiprintf_r+0x48c>
    b8c0:	01092703          	lw	a4,16(s2)
    b8c4:	3e070463          	beqz	a4,bcac <_vfiprintf_r+0x48c>
    b8c8:	01a7f793          	andi	a5,a5,26
    b8cc:	00a00713          	li	a4,10
    b8d0:	3ee78e63          	beq	a5,a4,bccc <_vfiprintf_r+0x4ac>
    b8d4:	ffff87b7          	lui	a5,0xffff8
    b8d8:	04c10493          	addi	s1,sp,76
    b8dc:	8307c793          	xori	a5,a5,-2000
    b8e0:	04912023          	sw	s1,64(sp)
    b8e4:	04012423          	sw	zero,72(sp)
    b8e8:	04012223          	sw	zero,68(sp)
    b8ec:	00048c13          	mv	s8,s1
    b8f0:	00012a23          	sw	zero,20(sp)
    b8f4:	00012c23          	sw	zero,24(sp)
    b8f8:	02012023          	sw	zero,32(sp)
    b8fc:	00012e23          	sw	zero,28(sp)
    b900:	00012623          	sw	zero,12(sp)
    b904:	02f12223          	sw	a5,36(sp)
    b908:	000b8b13          	mv	s6,s7
    b90c:	000b4783          	lbu	a5,0(s6)
    b910:	26078863          	beqz	a5,bb80 <_vfiprintf_r+0x360>
    b914:	000b0413          	mv	s0,s6
    b918:	02500713          	li	a4,37
    b91c:	46e78a63          	beq	a5,a4,bd90 <_vfiprintf_r+0x570>
    b920:	00144783          	lbu	a5,1(s0)
    b924:	00140413          	addi	s0,s0,1
    b928:	fe079ae3          	bnez	a5,b91c <_vfiprintf_r+0xfc>
    b92c:	41640bb3          	sub	s7,s0,s6
    b930:	25640863          	beq	s0,s6,bb80 <_vfiprintf_r+0x360>
    b934:	04812703          	lw	a4,72(sp)
    b938:	04412783          	lw	a5,68(sp)
    b93c:	016c2023          	sw	s6,0(s8)
    b940:	00eb8733          	add	a4,s7,a4
    b944:	00178793          	addi	a5,a5,1 # ffff8001 <_stack+0xfffb8001>
    b948:	017c2223          	sw	s7,4(s8)
    b94c:	04e12423          	sw	a4,72(sp)
    b950:	04f12223          	sw	a5,68(sp)
    b954:	00700693          	li	a3,7
    b958:	008c0c13          	addi	s8,s8,8
    b95c:	02f6d063          	bge	a3,a5,b97c <_vfiprintf_r+0x15c>
    b960:	420700e3          	beqz	a4,c580 <_vfiprintf_r+0xd60>
    b964:	04010613          	addi	a2,sp,64
    b968:	00090593          	mv	a1,s2
    b96c:	00098513          	mv	a0,s3
    b970:	da5ff0ef          	jal	ra,b714 <__sprint_r.part.0>
    b974:	20051a63          	bnez	a0,bb88 <_vfiprintf_r+0x368>
    b978:	00048c13          	mv	s8,s1
    b97c:	00c12703          	lw	a4,12(sp)
    b980:	00044783          	lbu	a5,0(s0)
    b984:	01770733          	add	a4,a4,s7
    b988:	00e12623          	sw	a4,12(sp)
    b98c:	1e078a63          	beqz	a5,bb80 <_vfiprintf_r+0x360>
    b990:	00144703          	lbu	a4,1(s0)
    b994:	00140b13          	addi	s6,s0,1
    b998:	02010da3          	sb	zero,59(sp)
    b99c:	fff00a13          	li	s4,-1
    b9a0:	00000c93          	li	s9,0
    b9a4:	00000a93          	li	s5,0
    b9a8:	02a00413          	li	s0,42
    b9ac:	001b0b13          	addi	s6,s6,1
    b9b0:	05a00613          	li	a2,90
    b9b4:	fe070793          	addi	a5,a4,-32
    b9b8:	04f66a63          	bltu	a2,a5,ba0c <_vfiprintf_r+0x1ec>
    b9bc:	00015697          	auipc	a3,0x15
    b9c0:	f0c68693          	addi	a3,a3,-244 # 208c8 <zeroes.0+0x10>
    b9c4:	00279793          	slli	a5,a5,0x2
    b9c8:	00d787b3          	add	a5,a5,a3
    b9cc:	0007a783          	lw	a5,0(a5)
    b9d0:	00d787b3          	add	a5,a5,a3
    b9d4:	00078067          	jr	a5
    b9d8:	00000c93          	li	s9,0
    b9dc:	fd070793          	addi	a5,a4,-48
    b9e0:	000b4703          	lbu	a4,0(s6)
    b9e4:	002c9693          	slli	a3,s9,0x2
    b9e8:	01968cb3          	add	s9,a3,s9
    b9ec:	001c9c93          	slli	s9,s9,0x1
    b9f0:	01978cb3          	add	s9,a5,s9
    b9f4:	00900693          	li	a3,9
    b9f8:	fd070793          	addi	a5,a4,-48
    b9fc:	001b0b13          	addi	s6,s6,1
    ba00:	fef6f0e3          	bgeu	a3,a5,b9e0 <_vfiprintf_r+0x1c0>
    ba04:	fe070793          	addi	a5,a4,-32
    ba08:	faf67ae3          	bgeu	a2,a5,b9bc <_vfiprintf_r+0x19c>
    ba0c:	16070a63          	beqz	a4,bb80 <_vfiprintf_r+0x360>
    ba10:	00100793          	li	a5,1
    ba14:	08e10623          	sb	a4,140(sp)
    ba18:	02010da3          	sb	zero,59(sp)
    ba1c:	00100413          	li	s0,1
    ba20:	00f12423          	sw	a5,8(sp)
    ba24:	08c10d13          	addi	s10,sp,140
    ba28:	00000a13          	li	s4,0
    ba2c:	002aff93          	andi	t6,s5,2
    ba30:	000f8463          	beqz	t6,ba38 <_vfiprintf_r+0x218>
    ba34:	00240413          	addi	s0,s0,2
    ba38:	04412703          	lw	a4,68(sp)
    ba3c:	084aff13          	andi	t5,s5,132
    ba40:	04812783          	lw	a5,72(sp)
    ba44:	00170693          	addi	a3,a4,1
    ba48:	00068613          	mv	a2,a3
    ba4c:	000f1663          	bnez	t5,ba58 <_vfiprintf_r+0x238>
    ba50:	408c8bb3          	sub	s7,s9,s0
    ba54:	1d7048e3          	bgtz	s7,c424 <_vfiprintf_r+0xc04>
    ba58:	03b14583          	lbu	a1,59(sp)
    ba5c:	008c0693          	addi	a3,s8,8
    ba60:	02058c63          	beqz	a1,ba98 <_vfiprintf_r+0x278>
    ba64:	03b10713          	addi	a4,sp,59
    ba68:	00178793          	addi	a5,a5,1
    ba6c:	00ec2023          	sw	a4,0(s8)
    ba70:	00100713          	li	a4,1
    ba74:	00ec2223          	sw	a4,4(s8)
    ba78:	04f12423          	sw	a5,72(sp)
    ba7c:	04c12223          	sw	a2,68(sp)
    ba80:	00700713          	li	a4,7
    ba84:	10c74ee3          	blt	a4,a2,c3a0 <_vfiprintf_r+0xb80>
    ba88:	00060713          	mv	a4,a2
    ba8c:	00068c13          	mv	s8,a3
    ba90:	00160613          	addi	a2,a2,1
    ba94:	00868693          	addi	a3,a3,8
    ba98:	040f8e63          	beqz	t6,baf4 <_vfiprintf_r+0x2d4>
    ba9c:	03c10713          	addi	a4,sp,60
    baa0:	00278793          	addi	a5,a5,2
    baa4:	00ec2023          	sw	a4,0(s8)
    baa8:	00200713          	li	a4,2
    baac:	00ec2223          	sw	a4,4(s8)
    bab0:	04f12423          	sw	a5,72(sp)
    bab4:	04c12223          	sw	a2,68(sp)
    bab8:	00700713          	li	a4,7
    babc:	14c756e3          	bge	a4,a2,c408 <_vfiprintf_r+0xbe8>
    bac0:	30078ae3          	beqz	a5,c5d4 <_vfiprintf_r+0xdb4>
    bac4:	04010613          	addi	a2,sp,64
    bac8:	00090593          	mv	a1,s2
    bacc:	00098513          	mv	a0,s3
    bad0:	03e12423          	sw	t5,40(sp)
    bad4:	c41ff0ef          	jal	ra,b714 <__sprint_r.part.0>
    bad8:	0a051863          	bnez	a0,bb88 <_vfiprintf_r+0x368>
    badc:	04412703          	lw	a4,68(sp)
    bae0:	04812783          	lw	a5,72(sp)
    bae4:	02812f03          	lw	t5,40(sp)
    bae8:	05410693          	addi	a3,sp,84
    baec:	00170613          	addi	a2,a4,1
    baf0:	00048c13          	mv	s8,s1
    baf4:	08000593          	li	a1,128
    baf8:	6cbf0c63          	beq	t5,a1,c1d0 <_vfiprintf_r+0x9b0>
    bafc:	00812583          	lw	a1,8(sp)
    bb00:	40ba0a33          	sub	s4,s4,a1
    bb04:	7b404a63          	bgtz	s4,c2b8 <_vfiprintf_r+0xa98>
    bb08:	00812703          	lw	a4,8(sp)
    bb0c:	01ac2023          	sw	s10,0(s8)
    bb10:	04c12223          	sw	a2,68(sp)
    bb14:	00f707b3          	add	a5,a4,a5
    bb18:	00ec2223          	sw	a4,4(s8)
    bb1c:	04f12423          	sw	a5,72(sp)
    bb20:	00700713          	li	a4,7
    bb24:	02c75263          	bge	a4,a2,bb48 <_vfiprintf_r+0x328>
    bb28:	26078c63          	beqz	a5,bda0 <_vfiprintf_r+0x580>
    bb2c:	04010613          	addi	a2,sp,64
    bb30:	00090593          	mv	a1,s2
    bb34:	00098513          	mv	a0,s3
    bb38:	bddff0ef          	jal	ra,b714 <__sprint_r.part.0>
    bb3c:	04051663          	bnez	a0,bb88 <_vfiprintf_r+0x368>
    bb40:	04812783          	lw	a5,72(sp)
    bb44:	00048693          	mv	a3,s1
    bb48:	004afe13          	andi	t3,s5,4
    bb4c:	000e0663          	beqz	t3,bb58 <_vfiprintf_r+0x338>
    bb50:	408c8bb3          	sub	s7,s9,s0
    bb54:	27704263          	bgtz	s7,bdb8 <_vfiprintf_r+0x598>
    bb58:	008cd463          	bge	s9,s0,bb60 <_vfiprintf_r+0x340>
    bb5c:	00040c93          	mv	s9,s0
    bb60:	00c12703          	lw	a4,12(sp)
    bb64:	01970733          	add	a4,a4,s9
    bb68:	00e12623          	sw	a4,12(sp)
    bb6c:	000796e3          	bnez	a5,c378 <_vfiprintf_r+0xb58>
    bb70:	000b4783          	lbu	a5,0(s6)
    bb74:	04012223          	sw	zero,68(sp)
    bb78:	00048c13          	mv	s8,s1
    bb7c:	d8079ce3          	bnez	a5,b914 <_vfiprintf_r+0xf4>
    bb80:	04812783          	lw	a5,72(sp)
    bb84:	6a0794e3          	bnez	a5,ca2c <_vfiprintf_r+0x120c>
    bb88:	00c95783          	lhu	a5,12(s2)
    bb8c:	0407f793          	andi	a5,a5,64
    bb90:	6e0794e3          	bnez	a5,ca78 <_vfiprintf_r+0x1258>
    bb94:	12c12083          	lw	ra,300(sp)
    bb98:	12812403          	lw	s0,296(sp)
    bb9c:	00c12503          	lw	a0,12(sp)
    bba0:	12412483          	lw	s1,292(sp)
    bba4:	12012903          	lw	s2,288(sp)
    bba8:	11c12983          	lw	s3,284(sp)
    bbac:	11812a03          	lw	s4,280(sp)
    bbb0:	11412a83          	lw	s5,276(sp)
    bbb4:	11012b03          	lw	s6,272(sp)
    bbb8:	10c12b83          	lw	s7,268(sp)
    bbbc:	10812c03          	lw	s8,264(sp)
    bbc0:	10412c83          	lw	s9,260(sp)
    bbc4:	10012d03          	lw	s10,256(sp)
    bbc8:	0fc12d83          	lw	s11,252(sp)
    bbcc:	13010113          	addi	sp,sp,304
    bbd0:	00008067          	ret
    bbd4:	00098513          	mv	a0,s3
    bbd8:	afdfa0ef          	jal	ra,66d4 <_localeconv_r>
    bbdc:	00452783          	lw	a5,4(a0)
    bbe0:	00078513          	mv	a0,a5
    bbe4:	00f12e23          	sw	a5,28(sp)
    bbe8:	fd5fc0ef          	jal	ra,8bbc <strlen>
    bbec:	00050793          	mv	a5,a0
    bbf0:	00098513          	mv	a0,s3
    bbf4:	00078b93          	mv	s7,a5
    bbf8:	02f12023          	sw	a5,32(sp)
    bbfc:	ad9fa0ef          	jal	ra,66d4 <_localeconv_r>
    bc00:	00852783          	lw	a5,8(a0)
    bc04:	00f12c23          	sw	a5,24(sp)
    bc08:	300b92e3          	bnez	s7,c70c <_vfiprintf_r+0xeec>
    bc0c:	000b4703          	lbu	a4,0(s6)
    bc10:	d9dff06f          	j	b9ac <_vfiprintf_r+0x18c>
    bc14:	000b4703          	lbu	a4,0(s6)
    bc18:	020aea93          	ori	s5,s5,32
    bc1c:	d91ff06f          	j	b9ac <_vfiprintf_r+0x18c>
    bc20:	010aea93          	ori	s5,s5,16
    bc24:	020af793          	andi	a5,s5,32
    bc28:	26078e63          	beqz	a5,bea4 <_vfiprintf_r+0x684>
    bc2c:	01012783          	lw	a5,16(sp)
    bc30:	00778793          	addi	a5,a5,7
    bc34:	ff87f713          	andi	a4,a5,-8
    bc38:	00472783          	lw	a5,4(a4)
    bc3c:	00072403          	lw	s0,0(a4)
    bc40:	00870713          	addi	a4,a4,8
    bc44:	00e12823          	sw	a4,16(sp)
    bc48:	00078b93          	mv	s7,a5
    bc4c:	2807c463          	bltz	a5,bed4 <_vfiprintf_r+0x6b4>
    bc50:	fff00793          	li	a5,-1
    bc54:	000a8d93          	mv	s11,s5
    bc58:	00fa0863          	beq	s4,a5,bc68 <_vfiprintf_r+0x448>
    bc5c:	017467b3          	or	a5,s0,s7
    bc60:	f7fafd93          	andi	s11,s5,-129
    bc64:	120784e3          	beqz	a5,c58c <_vfiprintf_r+0xd6c>
    bc68:	180b9ce3          	bnez	s7,c600 <_vfiprintf_r+0xde0>
    bc6c:	00900793          	li	a5,9
    bc70:	1887e8e3          	bltu	a5,s0,c600 <_vfiprintf_r+0xde0>
    bc74:	03040413          	addi	s0,s0,48
    bc78:	00100793          	li	a5,1
    bc7c:	0e8107a3          	sb	s0,239(sp)
    bc80:	000d8a93          	mv	s5,s11
    bc84:	00f12423          	sw	a5,8(sp)
    bc88:	0ef10d13          	addi	s10,sp,239
    bc8c:	00812783          	lw	a5,8(sp)
    bc90:	000a0413          	mv	s0,s4
    bc94:	00fa5463          	bge	s4,a5,bc9c <_vfiprintf_r+0x47c>
    bc98:	00078413          	mv	s0,a5
    bc9c:	03b14783          	lbu	a5,59(sp)
    bca0:	00f037b3          	snez	a5,a5
    bca4:	00f40433          	add	s0,s0,a5
    bca8:	d85ff06f          	j	ba2c <_vfiprintf_r+0x20c>
    bcac:	00090593          	mv	a1,s2
    bcb0:	00098513          	mv	a0,s3
    bcb4:	838f70ef          	jal	ra,2cec <__swsetup_r>
    bcb8:	5c0510e3          	bnez	a0,ca78 <_vfiprintf_r+0x1258>
    bcbc:	00c95783          	lhu	a5,12(s2)
    bcc0:	00a00713          	li	a4,10
    bcc4:	01a7f793          	andi	a5,a5,26
    bcc8:	c0e796e3          	bne	a5,a4,b8d4 <_vfiprintf_r+0xb4>
    bccc:	00e91783          	lh	a5,14(s2)
    bcd0:	c007c2e3          	bltz	a5,b8d4 <_vfiprintf_r+0xb4>
    bcd4:	12812403          	lw	s0,296(sp)
    bcd8:	01012683          	lw	a3,16(sp)
    bcdc:	12c12083          	lw	ra,300(sp)
    bce0:	12412483          	lw	s1,292(sp)
    bce4:	11812a03          	lw	s4,280(sp)
    bce8:	11412a83          	lw	s5,276(sp)
    bcec:	11012b03          	lw	s6,272(sp)
    bcf0:	10812c03          	lw	s8,264(sp)
    bcf4:	10412c83          	lw	s9,260(sp)
    bcf8:	10012d03          	lw	s10,256(sp)
    bcfc:	0fc12d83          	lw	s11,252(sp)
    bd00:	000b8613          	mv	a2,s7
    bd04:	00090593          	mv	a1,s2
    bd08:	10c12b83          	lw	s7,268(sp)
    bd0c:	12012903          	lw	s2,288(sp)
    bd10:	00098513          	mv	a0,s3
    bd14:	11c12983          	lw	s3,284(sp)
    bd18:	13010113          	addi	sp,sp,304
    bd1c:	5b90006f          	j	cad4 <__sbprintf>
    bd20:	010aea93          	ori	s5,s5,16
    bd24:	020af793          	andi	a5,s5,32
    bd28:	14078863          	beqz	a5,be78 <_vfiprintf_r+0x658>
    bd2c:	01012783          	lw	a5,16(sp)
    bd30:	00778793          	addi	a5,a5,7
    bd34:	ff87f793          	andi	a5,a5,-8
    bd38:	0007a403          	lw	s0,0(a5)
    bd3c:	0047ab83          	lw	s7,4(a5)
    bd40:	00878793          	addi	a5,a5,8
    bd44:	00f12823          	sw	a5,16(sp)
    bd48:	bffafd93          	andi	s11,s5,-1025
    bd4c:	00000793          	li	a5,0
    bd50:	02010da3          	sb	zero,59(sp)
    bd54:	fff00693          	li	a3,-1
    bd58:	1ada0263          	beq	s4,a3,befc <_vfiprintf_r+0x6dc>
    bd5c:	017466b3          	or	a3,s0,s7
    bd60:	f7fdfa93          	andi	s5,s11,-129
    bd64:	6a069c63          	bnez	a3,c41c <_vfiprintf_r+0xbfc>
    bd68:	3e0a1e63          	bnez	s4,c164 <_vfiprintf_r+0x944>
    bd6c:	020794e3          	bnez	a5,c594 <_vfiprintf_r+0xd74>
    bd70:	001df793          	andi	a5,s11,1
    bd74:	00f12423          	sw	a5,8(sp)
    bd78:	0f010d13          	addi	s10,sp,240
    bd7c:	f00788e3          	beqz	a5,bc8c <_vfiprintf_r+0x46c>
    bd80:	03000793          	li	a5,48
    bd84:	0ef107a3          	sb	a5,239(sp)
    bd88:	0ef10d13          	addi	s10,sp,239
    bd8c:	f01ff06f          	j	bc8c <_vfiprintf_r+0x46c>
    bd90:	41640bb3          	sub	s7,s0,s6
    bd94:	bb6410e3          	bne	s0,s6,b934 <_vfiprintf_r+0x114>
    bd98:	00044783          	lbu	a5,0(s0)
    bd9c:	bf1ff06f          	j	b98c <_vfiprintf_r+0x16c>
    bda0:	04012223          	sw	zero,68(sp)
    bda4:	004afe13          	andi	t3,s5,4
    bda8:	780e0863          	beqz	t3,c538 <_vfiprintf_r+0xd18>
    bdac:	408c8bb3          	sub	s7,s9,s0
    bdb0:	79705463          	blez	s7,c538 <_vfiprintf_r+0xd18>
    bdb4:	00048693          	mv	a3,s1
    bdb8:	01000713          	li	a4,16
    bdbc:	04412603          	lw	a2,68(sp)
    bdc0:	4b7750e3          	bge	a4,s7,ca60 <_vfiprintf_r+0x1240>
    bdc4:	00015d97          	auipc	s11,0x15
    bdc8:	c70d8d93          	addi	s11,s11,-912 # 20a34 <blanks.1>
    bdcc:	01000c13          	li	s8,16
    bdd0:	00700d13          	li	s10,7
    bdd4:	0180006f          	j	bdec <_vfiprintf_r+0x5cc>
    bdd8:	00260513          	addi	a0,a2,2
    bddc:	00868693          	addi	a3,a3,8
    bde0:	00070613          	mv	a2,a4
    bde4:	ff0b8b93          	addi	s7,s7,-16
    bde8:	057c5863          	bge	s8,s7,be38 <_vfiprintf_r+0x618>
    bdec:	01078793          	addi	a5,a5,16
    bdf0:	00160713          	addi	a4,a2,1
    bdf4:	01b6a023          	sw	s11,0(a3)
    bdf8:	0186a223          	sw	s8,4(a3)
    bdfc:	04f12423          	sw	a5,72(sp)
    be00:	04e12223          	sw	a4,68(sp)
    be04:	fced5ae3          	bge	s10,a4,bdd8 <_vfiprintf_r+0x5b8>
    be08:	3a078c63          	beqz	a5,c1c0 <_vfiprintf_r+0x9a0>
    be0c:	04010613          	addi	a2,sp,64
    be10:	00090593          	mv	a1,s2
    be14:	00098513          	mv	a0,s3
    be18:	8fdff0ef          	jal	ra,b714 <__sprint_r.part.0>
    be1c:	d60516e3          	bnez	a0,bb88 <_vfiprintf_r+0x368>
    be20:	04412603          	lw	a2,68(sp)
    be24:	ff0b8b93          	addi	s7,s7,-16
    be28:	04812783          	lw	a5,72(sp)
    be2c:	00048693          	mv	a3,s1
    be30:	00160513          	addi	a0,a2,1
    be34:	fb7c4ce3          	blt	s8,s7,bdec <_vfiprintf_r+0x5cc>
    be38:	00050593          	mv	a1,a0
    be3c:	017787b3          	add	a5,a5,s7
    be40:	01b6a023          	sw	s11,0(a3)
    be44:	0176a223          	sw	s7,4(a3)
    be48:	04f12423          	sw	a5,72(sp)
    be4c:	04b12223          	sw	a1,68(sp)
    be50:	00700713          	li	a4,7
    be54:	d0b752e3          	bge	a4,a1,bb58 <_vfiprintf_r+0x338>
    be58:	6e078063          	beqz	a5,c538 <_vfiprintf_r+0xd18>
    be5c:	04010613          	addi	a2,sp,64
    be60:	00090593          	mv	a1,s2
    be64:	00098513          	mv	a0,s3
    be68:	8adff0ef          	jal	ra,b714 <__sprint_r.part.0>
    be6c:	d0051ee3          	bnez	a0,bb88 <_vfiprintf_r+0x368>
    be70:	04812783          	lw	a5,72(sp)
    be74:	ce5ff06f          	j	bb58 <_vfiprintf_r+0x338>
    be78:	01012683          	lw	a3,16(sp)
    be7c:	010af793          	andi	a5,s5,16
    be80:	00468713          	addi	a4,a3,4
    be84:	0c0796e3          	bnez	a5,c750 <_vfiprintf_r+0xf30>
    be88:	040af793          	andi	a5,s5,64
    be8c:	280788e3          	beqz	a5,c91c <_vfiprintf_r+0x10fc>
    be90:	01012783          	lw	a5,16(sp)
    be94:	00000b93          	li	s7,0
    be98:	00e12823          	sw	a4,16(sp)
    be9c:	0007d403          	lhu	s0,0(a5)
    bea0:	ea9ff06f          	j	bd48 <_vfiprintf_r+0x528>
    bea4:	01012683          	lw	a3,16(sp)
    bea8:	010af793          	andi	a5,s5,16
    beac:	00468713          	addi	a4,a3,4
    beb0:	080796e3          	bnez	a5,c73c <_vfiprintf_r+0xf1c>
    beb4:	040af793          	andi	a5,s5,64
    beb8:	240782e3          	beqz	a5,c8fc <_vfiprintf_r+0x10dc>
    bebc:	01012783          	lw	a5,16(sp)
    bec0:	00e12823          	sw	a4,16(sp)
    bec4:	00079403          	lh	s0,0(a5)
    bec8:	41f45b93          	srai	s7,s0,0x1f
    becc:	000b8793          	mv	a5,s7
    bed0:	d807d0e3          	bgez	a5,bc50 <_vfiprintf_r+0x430>
    bed4:	008037b3          	snez	a5,s0
    bed8:	41700bb3          	neg	s7,s7
    bedc:	40fb8bb3          	sub	s7,s7,a5
    bee0:	02d00793          	li	a5,45
    bee4:	02f10da3          	sb	a5,59(sp)
    bee8:	fff00693          	li	a3,-1
    beec:	40800433          	neg	s0,s0
    bef0:	000a8d93          	mv	s11,s5
    bef4:	00100793          	li	a5,1
    bef8:	e6da12e3          	bne	s4,a3,bd5c <_vfiprintf_r+0x53c>
    befc:	00100693          	li	a3,1
    bf00:	d6d784e3          	beq	a5,a3,bc68 <_vfiprintf_r+0x448>
    bf04:	00200693          	li	a3,2
    bf08:	26d78863          	beq	a5,a3,c178 <_vfiprintf_r+0x958>
    bf0c:	0f010d13          	addi	s10,sp,240
    bf10:	01db9713          	slli	a4,s7,0x1d
    bf14:	00747793          	andi	a5,s0,7
    bf18:	00345413          	srli	s0,s0,0x3
    bf1c:	03078793          	addi	a5,a5,48
    bf20:	00876433          	or	s0,a4,s0
    bf24:	003bdb93          	srli	s7,s7,0x3
    bf28:	fefd0fa3          	sb	a5,-1(s10)
    bf2c:	01746733          	or	a4,s0,s7
    bf30:	000d0613          	mv	a2,s10
    bf34:	fffd0d13          	addi	s10,s10,-1
    bf38:	fc071ce3          	bnez	a4,bf10 <_vfiprintf_r+0x6f0>
    bf3c:	001df693          	andi	a3,s11,1
    bf40:	26068663          	beqz	a3,c1ac <_vfiprintf_r+0x98c>
    bf44:	03000693          	li	a3,48
    bf48:	26d78263          	beq	a5,a3,c1ac <_vfiprintf_r+0x98c>
    bf4c:	ffe60613          	addi	a2,a2,-2
    bf50:	0f010793          	addi	a5,sp,240
    bf54:	40c787b3          	sub	a5,a5,a2
    bf58:	fedd0fa3          	sb	a3,-1(s10)
    bf5c:	00f12423          	sw	a5,8(sp)
    bf60:	000d8a93          	mv	s5,s11
    bf64:	00060d13          	mv	s10,a2
    bf68:	d25ff06f          	j	bc8c <_vfiprintf_r+0x46c>
    bf6c:	d8cf70ef          	jal	ra,34f8 <__sinit>
    bf70:	905ff06f          	j	b874 <_vfiprintf_r+0x54>
    bf74:	01012783          	lw	a5,16(sp)
    bf78:	02010da3          	sb	zero,59(sp)
    bf7c:	0007ad03          	lw	s10,0(a5)
    bf80:	00478b93          	addi	s7,a5,4
    bf84:	140d0ce3          	beqz	s10,c8dc <_vfiprintf_r+0x10bc>
    bf88:	fff00793          	li	a5,-1
    bf8c:	08fa04e3          	beq	s4,a5,c814 <_vfiprintf_r+0xff4>
    bf90:	000a0613          	mv	a2,s4
    bf94:	00000593          	li	a1,0
    bf98:	000d0513          	mv	a0,s10
    bf9c:	af4fb0ef          	jal	ra,7290 <memchr>
    bfa0:	2a0500e3          	beqz	a0,ca40 <_vfiprintf_r+0x1220>
    bfa4:	41a507b3          	sub	a5,a0,s10
    bfa8:	00f12423          	sw	a5,8(sp)
    bfac:	01712823          	sw	s7,16(sp)
    bfb0:	00000a13          	li	s4,0
    bfb4:	cd9ff06f          	j	bc8c <_vfiprintf_r+0x46c>
    bfb8:	01012703          	lw	a4,16(sp)
    bfbc:	02010da3          	sb	zero,59(sp)
    bfc0:	00100413          	li	s0,1
    bfc4:	00072783          	lw	a5,0(a4)
    bfc8:	00470713          	addi	a4,a4,4
    bfcc:	00e12823          	sw	a4,16(sp)
    bfd0:	08f10623          	sb	a5,140(sp)
    bfd4:	00100793          	li	a5,1
    bfd8:	00f12423          	sw	a5,8(sp)
    bfdc:	08c10d13          	addi	s10,sp,140
    bfe0:	a49ff06f          	j	ba28 <_vfiprintf_r+0x208>
    bfe4:	000b4703          	lbu	a4,0(s6)
    bfe8:	06c00793          	li	a5,108
    bfec:	0cf70ae3          	beq	a4,a5,c8c0 <_vfiprintf_r+0x10a0>
    bff0:	010aea93          	ori	s5,s5,16
    bff4:	9b9ff06f          	j	b9ac <_vfiprintf_r+0x18c>
    bff8:	000b4703          	lbu	a4,0(s6)
    bffc:	06800793          	li	a5,104
    c000:	0af708e3          	beq	a4,a5,c8b0 <_vfiprintf_r+0x1090>
    c004:	040aea93          	ori	s5,s5,64
    c008:	9a5ff06f          	j	b9ac <_vfiprintf_r+0x18c>
    c00c:	010aed93          	ori	s11,s5,16
    c010:	020df793          	andi	a5,s11,32
    c014:	58078863          	beqz	a5,c5a4 <_vfiprintf_r+0xd84>
    c018:	01012783          	lw	a5,16(sp)
    c01c:	00778793          	addi	a5,a5,7
    c020:	ff87f793          	andi	a5,a5,-8
    c024:	0007a403          	lw	s0,0(a5)
    c028:	0047ab83          	lw	s7,4(a5)
    c02c:	00878793          	addi	a5,a5,8
    c030:	00f12823          	sw	a5,16(sp)
    c034:	00100793          	li	a5,1
    c038:	d19ff06f          	j	bd50 <_vfiprintf_r+0x530>
    c03c:	000b4703          	lbu	a4,0(s6)
    c040:	080aea93          	ori	s5,s5,128
    c044:	969ff06f          	j	b9ac <_vfiprintf_r+0x18c>
    c048:	01012783          	lw	a5,16(sp)
    c04c:	02412703          	lw	a4,36(sp)
    c050:	00000b93          	li	s7,0
    c054:	0007a403          	lw	s0,0(a5)
    c058:	00478793          	addi	a5,a5,4
    c05c:	00f12823          	sw	a5,16(sp)
    c060:	00014797          	auipc	a5,0x14
    c064:	03078793          	addi	a5,a5,48 # 20090 <__malloc_trim_threshold+0x58>
    c068:	00f12a23          	sw	a5,20(sp)
    c06c:	002aed93          	ori	s11,s5,2
    c070:	02e11e23          	sh	a4,60(sp)
    c074:	00200793          	li	a5,2
    c078:	cd9ff06f          	j	bd50 <_vfiprintf_r+0x530>
    c07c:	01012683          	lw	a3,16(sp)
    c080:	020af793          	andi	a5,s5,32
    c084:	0006a703          	lw	a4,0(a3)
    c088:	00468693          	addi	a3,a3,4
    c08c:	00d12823          	sw	a3,16(sp)
    c090:	68079c63          	bnez	a5,c728 <_vfiprintf_r+0xf08>
    c094:	010af793          	andi	a5,s5,16
    c098:	02079ce3          	bnez	a5,c8d0 <_vfiprintf_r+0x10b0>
    c09c:	040af793          	andi	a5,s5,64
    c0a0:	120794e3          	bnez	a5,c9c8 <_vfiprintf_r+0x11a8>
    c0a4:	200afe13          	andi	t3,s5,512
    c0a8:	020e04e3          	beqz	t3,c8d0 <_vfiprintf_r+0x10b0>
    c0ac:	00c12783          	lw	a5,12(sp)
    c0b0:	00f70023          	sb	a5,0(a4)
    c0b4:	859ff06f          	j	b90c <_vfiprintf_r+0xec>
    c0b8:	01012783          	lw	a5,16(sp)
    c0bc:	000b4703          	lbu	a4,0(s6)
    c0c0:	0007ac83          	lw	s9,0(a5)
    c0c4:	00478793          	addi	a5,a5,4
    c0c8:	00f12823          	sw	a5,16(sp)
    c0cc:	8e0cd0e3          	bgez	s9,b9ac <_vfiprintf_r+0x18c>
    c0d0:	41900cb3          	neg	s9,s9
    c0d4:	004aea93          	ori	s5,s5,4
    c0d8:	8d5ff06f          	j	b9ac <_vfiprintf_r+0x18c>
    c0dc:	000b4703          	lbu	a4,0(s6)
    c0e0:	001aea93          	ori	s5,s5,1
    c0e4:	8c9ff06f          	j	b9ac <_vfiprintf_r+0x18c>
    c0e8:	03b14783          	lbu	a5,59(sp)
    c0ec:	000b4703          	lbu	a4,0(s6)
    c0f0:	8a079ee3          	bnez	a5,b9ac <_vfiprintf_r+0x18c>
    c0f4:	02000793          	li	a5,32
    c0f8:	02f10da3          	sb	a5,59(sp)
    c0fc:	8b1ff06f          	j	b9ac <_vfiprintf_r+0x18c>
    c100:	000b4703          	lbu	a4,0(s6)
    c104:	004aea93          	ori	s5,s5,4
    c108:	8a5ff06f          	j	b9ac <_vfiprintf_r+0x18c>
    c10c:	02b00793          	li	a5,43
    c110:	000b4703          	lbu	a4,0(s6)
    c114:	02f10da3          	sb	a5,59(sp)
    c118:	895ff06f          	j	b9ac <_vfiprintf_r+0x18c>
    c11c:	000b4703          	lbu	a4,0(s6)
    c120:	001b0693          	addi	a3,s6,1
    c124:	16870ae3          	beq	a4,s0,ca98 <_vfiprintf_r+0x1278>
    c128:	00068b13          	mv	s6,a3
    c12c:	fd070793          	addi	a5,a4,-48
    c130:	00900693          	li	a3,9
    c134:	00000a13          	li	s4,0
    c138:	86f6eee3          	bltu	a3,a5,b9b4 <_vfiprintf_r+0x194>
    c13c:	000b4703          	lbu	a4,0(s6)
    c140:	002a1693          	slli	a3,s4,0x2
    c144:	01468a33          	add	s4,a3,s4
    c148:	001a1a13          	slli	s4,s4,0x1
    c14c:	00fa0a33          	add	s4,s4,a5
    c150:	00900693          	li	a3,9
    c154:	fd070793          	addi	a5,a4,-48
    c158:	001b0b13          	addi	s6,s6,1
    c15c:	fef6f0e3          	bgeu	a3,a5,c13c <_vfiprintf_r+0x91c>
    c160:	855ff06f          	j	b9b4 <_vfiprintf_r+0x194>
    c164:	00100713          	li	a4,1
    c168:	10e784e3          	beq	a5,a4,ca70 <_vfiprintf_r+0x1250>
    c16c:	00200713          	li	a4,2
    c170:	000a8d93          	mv	s11,s5
    c174:	d8e79ce3          	bne	a5,a4,bf0c <_vfiprintf_r+0x6ec>
    c178:	01412683          	lw	a3,20(sp)
    c17c:	0f010d13          	addi	s10,sp,240
    c180:	00f47793          	andi	a5,s0,15
    c184:	00f687b3          	add	a5,a3,a5
    c188:	0007c703          	lbu	a4,0(a5)
    c18c:	00445413          	srli	s0,s0,0x4
    c190:	01cb9793          	slli	a5,s7,0x1c
    c194:	0087e433          	or	s0,a5,s0
    c198:	004bdb93          	srli	s7,s7,0x4
    c19c:	feed0fa3          	sb	a4,-1(s10)
    c1a0:	017467b3          	or	a5,s0,s7
    c1a4:	fffd0d13          	addi	s10,s10,-1
    c1a8:	fc079ce3          	bnez	a5,c180 <_vfiprintf_r+0x960>
    c1ac:	0f010793          	addi	a5,sp,240
    c1b0:	41a787b3          	sub	a5,a5,s10
    c1b4:	00f12423          	sw	a5,8(sp)
    c1b8:	000d8a93          	mv	s5,s11
    c1bc:	ad1ff06f          	j	bc8c <_vfiprintf_r+0x46c>
    c1c0:	00100513          	li	a0,1
    c1c4:	00000613          	li	a2,0
    c1c8:	00048693          	mv	a3,s1
    c1cc:	c19ff06f          	j	bde4 <_vfiprintf_r+0x5c4>
    c1d0:	408c8bb3          	sub	s7,s9,s0
    c1d4:	937054e3          	blez	s7,bafc <_vfiprintf_r+0x2dc>
    c1d8:	01000593          	li	a1,16
    c1dc:	0b75d4e3          	bge	a1,s7,ca84 <_vfiprintf_r+0x1264>
    c1e0:	00015d97          	auipc	s11,0x15
    c1e4:	864d8d93          	addi	s11,s11,-1948 # 20a44 <zeroes.0>
    c1e8:	01000813          	li	a6,16
    c1ec:	00700f13          	li	t5,7
    c1f0:	0180006f          	j	c208 <_vfiprintf_r+0x9e8>
    c1f4:	00270613          	addi	a2,a4,2
    c1f8:	008c0c13          	addi	s8,s8,8
    c1fc:	00068713          	mv	a4,a3
    c200:	ff0b8b93          	addi	s7,s7,-16
    c204:	05785c63          	bge	a6,s7,c25c <_vfiprintf_r+0xa3c>
    c208:	01078793          	addi	a5,a5,16
    c20c:	00170693          	addi	a3,a4,1
    c210:	01bc2023          	sw	s11,0(s8)
    c214:	010c2223          	sw	a6,4(s8)
    c218:	04f12423          	sw	a5,72(sp)
    c21c:	04d12223          	sw	a3,68(sp)
    c220:	fcdf5ae3          	bge	t5,a3,c1f4 <_vfiprintf_r+0x9d4>
    c224:	16078663          	beqz	a5,c390 <_vfiprintf_r+0xb70>
    c228:	04010613          	addi	a2,sp,64
    c22c:	00090593          	mv	a1,s2
    c230:	00098513          	mv	a0,s3
    c234:	ce0ff0ef          	jal	ra,b714 <__sprint_r.part.0>
    c238:	940518e3          	bnez	a0,bb88 <_vfiprintf_r+0x368>
    c23c:	04412703          	lw	a4,68(sp)
    c240:	01000813          	li	a6,16
    c244:	ff0b8b93          	addi	s7,s7,-16
    c248:	04812783          	lw	a5,72(sp)
    c24c:	00048c13          	mv	s8,s1
    c250:	00170613          	addi	a2,a4,1
    c254:	00700f13          	li	t5,7
    c258:	fb7848e3          	blt	a6,s7,c208 <_vfiprintf_r+0x9e8>
    c25c:	00060593          	mv	a1,a2
    c260:	008c0513          	addi	a0,s8,8
    c264:	017787b3          	add	a5,a5,s7
    c268:	01bc2023          	sw	s11,0(s8)
    c26c:	017c2223          	sw	s7,4(s8)
    c270:	04f12423          	sw	a5,72(sp)
    c274:	04b12223          	sw	a1,68(sp)
    c278:	00700713          	li	a4,7
    c27c:	46b75463          	bge	a4,a1,c6e4 <_vfiprintf_r+0xec4>
    c280:	70078863          	beqz	a5,c990 <_vfiprintf_r+0x1170>
    c284:	04010613          	addi	a2,sp,64
    c288:	00090593          	mv	a1,s2
    c28c:	00098513          	mv	a0,s3
    c290:	c84ff0ef          	jal	ra,b714 <__sprint_r.part.0>
    c294:	8e051ae3          	bnez	a0,bb88 <_vfiprintf_r+0x368>
    c298:	00812583          	lw	a1,8(sp)
    c29c:	04412703          	lw	a4,68(sp)
    c2a0:	04812783          	lw	a5,72(sp)
    c2a4:	40ba0a33          	sub	s4,s4,a1
    c2a8:	05410693          	addi	a3,sp,84
    c2ac:	00170613          	addi	a2,a4,1
    c2b0:	00048c13          	mv	s8,s1
    c2b4:	85405ae3          	blez	s4,bb08 <_vfiprintf_r+0x2e8>
    c2b8:	01000593          	li	a1,16
    c2bc:	6b45dc63          	bge	a1,s4,c974 <_vfiprintf_r+0x1154>
    c2c0:	00014d97          	auipc	s11,0x14
    c2c4:	784d8d93          	addi	s11,s11,1924 # 20a44 <zeroes.0>
    c2c8:	01000b93          	li	s7,16
    c2cc:	00700893          	li	a7,7
    c2d0:	0180006f          	j	c2e8 <_vfiprintf_r+0xac8>
    c2d4:	00270613          	addi	a2,a4,2
    c2d8:	008c0c13          	addi	s8,s8,8
    c2dc:	00068713          	mv	a4,a3
    c2e0:	ff0a0a13          	addi	s4,s4,-16
    c2e4:	054bda63          	bge	s7,s4,c338 <_vfiprintf_r+0xb18>
    c2e8:	01078793          	addi	a5,a5,16
    c2ec:	00170693          	addi	a3,a4,1
    c2f0:	01bc2023          	sw	s11,0(s8)
    c2f4:	017c2223          	sw	s7,4(s8)
    c2f8:	04f12423          	sw	a5,72(sp)
    c2fc:	04d12223          	sw	a3,68(sp)
    c300:	fcd8dae3          	bge	a7,a3,c2d4 <_vfiprintf_r+0xab4>
    c304:	06078263          	beqz	a5,c368 <_vfiprintf_r+0xb48>
    c308:	04010613          	addi	a2,sp,64
    c30c:	00090593          	mv	a1,s2
    c310:	00098513          	mv	a0,s3
    c314:	c00ff0ef          	jal	ra,b714 <__sprint_r.part.0>
    c318:	860518e3          	bnez	a0,bb88 <_vfiprintf_r+0x368>
    c31c:	04412703          	lw	a4,68(sp)
    c320:	ff0a0a13          	addi	s4,s4,-16
    c324:	04812783          	lw	a5,72(sp)
    c328:	00048c13          	mv	s8,s1
    c32c:	00170613          	addi	a2,a4,1
    c330:	00700893          	li	a7,7
    c334:	fb4bcae3          	blt	s7,s4,c2e8 <_vfiprintf_r+0xac8>
    c338:	008c0593          	addi	a1,s8,8
    c33c:	014787b3          	add	a5,a5,s4
    c340:	01bc2023          	sw	s11,0(s8)
    c344:	014c2223          	sw	s4,4(s8)
    c348:	04f12423          	sw	a5,72(sp)
    c34c:	04c12223          	sw	a2,68(sp)
    c350:	00700713          	li	a4,7
    c354:	1ec74e63          	blt	a4,a2,c550 <_vfiprintf_r+0xd30>
    c358:	00160613          	addi	a2,a2,1
    c35c:	00858693          	addi	a3,a1,8
    c360:	00058c13          	mv	s8,a1
    c364:	fa4ff06f          	j	bb08 <_vfiprintf_r+0x2e8>
    c368:	00100613          	li	a2,1
    c36c:	00000713          	li	a4,0
    c370:	00048c13          	mv	s8,s1
    c374:	f6dff06f          	j	c2e0 <_vfiprintf_r+0xac0>
    c378:	04010613          	addi	a2,sp,64
    c37c:	00090593          	mv	a1,s2
    c380:	00098513          	mv	a0,s3
    c384:	b90ff0ef          	jal	ra,b714 <__sprint_r.part.0>
    c388:	fe050463          	beqz	a0,bb70 <_vfiprintf_r+0x350>
    c38c:	ffcff06f          	j	bb88 <_vfiprintf_r+0x368>
    c390:	00100613          	li	a2,1
    c394:	00000713          	li	a4,0
    c398:	00048c13          	mv	s8,s1
    c39c:	e65ff06f          	j	c200 <_vfiprintf_r+0x9e0>
    c3a0:	24078463          	beqz	a5,c5e8 <_vfiprintf_r+0xdc8>
    c3a4:	04010613          	addi	a2,sp,64
    c3a8:	00090593          	mv	a1,s2
    c3ac:	00098513          	mv	a0,s3
    c3b0:	03e12623          	sw	t5,44(sp)
    c3b4:	03f12423          	sw	t6,40(sp)
    c3b8:	b5cff0ef          	jal	ra,b714 <__sprint_r.part.0>
    c3bc:	fc051663          	bnez	a0,bb88 <_vfiprintf_r+0x368>
    c3c0:	04412703          	lw	a4,68(sp)
    c3c4:	04812783          	lw	a5,72(sp)
    c3c8:	02c12f03          	lw	t5,44(sp)
    c3cc:	02812f83          	lw	t6,40(sp)
    c3d0:	05410693          	addi	a3,sp,84
    c3d4:	00170613          	addi	a2,a4,1
    c3d8:	00048c13          	mv	s8,s1
    c3dc:	ebcff06f          	j	ba98 <_vfiprintf_r+0x278>
    c3e0:	2c079663          	bnez	a5,c6ac <_vfiprintf_r+0xe8c>
    c3e4:	03b14703          	lbu	a4,59(sp)
    c3e8:	5c071263          	bnez	a4,c9ac <_vfiprintf_r+0x118c>
    c3ec:	200f8063          	beqz	t6,c5ec <_vfiprintf_r+0xdcc>
    c3f0:	03c10793          	addi	a5,sp,60
    c3f4:	04f12623          	sw	a5,76(sp)
    c3f8:	00200793          	li	a5,2
    c3fc:	04f12823          	sw	a5,80(sp)
    c400:	05410693          	addi	a3,sp,84
    c404:	00100613          	li	a2,1
    c408:	00068c13          	mv	s8,a3
    c40c:	00060713          	mv	a4,a2
    c410:	00170613          	addi	a2,a4,1
    c414:	008c0693          	addi	a3,s8,8
    c418:	edcff06f          	j	baf4 <_vfiprintf_r+0x2d4>
    c41c:	000a8d93          	mv	s11,s5
    c420:	addff06f          	j	befc <_vfiprintf_r+0x6dc>
    c424:	01000613          	li	a2,16
    c428:	63765463          	bge	a2,s7,ca50 <_vfiprintf_r+0x1230>
    c42c:	00014d97          	auipc	s11,0x14
    c430:	608d8d93          	addi	s11,s11,1544 # 20a34 <blanks.1>
    c434:	00090593          	mv	a1,s2
    c438:	000d8613          	mv	a2,s11
    c43c:	000b8913          	mv	s2,s7
    c440:	000b0d93          	mv	s11,s6
    c444:	00040b93          	mv	s7,s0
    c448:	000a0b13          	mv	s6,s4
    c44c:	01000e93          	li	t4,16
    c450:	00700293          	li	t0,7
    c454:	03f12423          	sw	t6,40(sp)
    c458:	03e12623          	sw	t5,44(sp)
    c45c:	00060a13          	mv	s4,a2
    c460:	00058413          	mv	s0,a1
    c464:	01c0006f          	j	c480 <_vfiprintf_r+0xc60>
    c468:	00270613          	addi	a2,a4,2
    c46c:	008c0c13          	addi	s8,s8,8
    c470:	00068713          	mv	a4,a3
    c474:	ff090913          	addi	s2,s2,-16
    c478:	052edc63          	bge	t4,s2,c4d0 <_vfiprintf_r+0xcb0>
    c47c:	00170693          	addi	a3,a4,1
    c480:	01078793          	addi	a5,a5,16
    c484:	014c2023          	sw	s4,0(s8)
    c488:	01dc2223          	sw	t4,4(s8)
    c48c:	04f12423          	sw	a5,72(sp)
    c490:	04d12223          	sw	a3,68(sp)
    c494:	fcd2dae3          	bge	t0,a3,c468 <_vfiprintf_r+0xc48>
    c498:	08078863          	beqz	a5,c528 <_vfiprintf_r+0xd08>
    c49c:	04010613          	addi	a2,sp,64
    c4a0:	00040593          	mv	a1,s0
    c4a4:	00098513          	mv	a0,s3
    c4a8:	a6cff0ef          	jal	ra,b714 <__sprint_r.part.0>
    c4ac:	3c051063          	bnez	a0,c86c <_vfiprintf_r+0x104c>
    c4b0:	04412703          	lw	a4,68(sp)
    c4b4:	01000e93          	li	t4,16
    c4b8:	ff090913          	addi	s2,s2,-16
    c4bc:	04812783          	lw	a5,72(sp)
    c4c0:	00048c13          	mv	s8,s1
    c4c4:	00170613          	addi	a2,a4,1
    c4c8:	00700293          	li	t0,7
    c4cc:	fb2ec8e3          	blt	t4,s2,c47c <_vfiprintf_r+0xc5c>
    c4d0:	02812f83          	lw	t6,40(sp)
    c4d4:	02c12f03          	lw	t5,44(sp)
    c4d8:	00040693          	mv	a3,s0
    c4dc:	000a0713          	mv	a4,s4
    c4e0:	000b8413          	mv	s0,s7
    c4e4:	000b0a13          	mv	s4,s6
    c4e8:	00090b93          	mv	s7,s2
    c4ec:	000d8b13          	mv	s6,s11
    c4f0:	00060593          	mv	a1,a2
    c4f4:	00070d93          	mv	s11,a4
    c4f8:	00068913          	mv	s2,a3
    c4fc:	017787b3          	add	a5,a5,s7
    c500:	01bc2023          	sw	s11,0(s8)
    c504:	017c2223          	sw	s7,4(s8)
    c508:	04f12423          	sw	a5,72(sp)
    c50c:	04b12223          	sw	a1,68(sp)
    c510:	00700713          	li	a4,7
    c514:	ecb746e3          	blt	a4,a1,c3e0 <_vfiprintf_r+0xbc0>
    c518:	008c0c13          	addi	s8,s8,8
    c51c:	00158613          	addi	a2,a1,1
    c520:	00058713          	mv	a4,a1
    c524:	d34ff06f          	j	ba58 <_vfiprintf_r+0x238>
    c528:	00000713          	li	a4,0
    c52c:	00100613          	li	a2,1
    c530:	00048c13          	mv	s8,s1
    c534:	f41ff06f          	j	c474 <_vfiprintf_r+0xc54>
    c538:	008cd463          	bge	s9,s0,c540 <_vfiprintf_r+0xd20>
    c53c:	00040c93          	mv	s9,s0
    c540:	00c12783          	lw	a5,12(sp)
    c544:	019787b3          	add	a5,a5,s9
    c548:	00f12623          	sw	a5,12(sp)
    c54c:	e24ff06f          	j	bb70 <_vfiprintf_r+0x350>
    c550:	32078263          	beqz	a5,c874 <_vfiprintf_r+0x1054>
    c554:	04010613          	addi	a2,sp,64
    c558:	00090593          	mv	a1,s2
    c55c:	00098513          	mv	a0,s3
    c560:	9b4ff0ef          	jal	ra,b714 <__sprint_r.part.0>
    c564:	e2051263          	bnez	a0,bb88 <_vfiprintf_r+0x368>
    c568:	04412603          	lw	a2,68(sp)
    c56c:	04812783          	lw	a5,72(sp)
    c570:	05410693          	addi	a3,sp,84
    c574:	00160613          	addi	a2,a2,1
    c578:	00048c13          	mv	s8,s1
    c57c:	d8cff06f          	j	bb08 <_vfiprintf_r+0x2e8>
    c580:	04012223          	sw	zero,68(sp)
    c584:	00048c13          	mv	s8,s1
    c588:	bf4ff06f          	j	b97c <_vfiprintf_r+0x15c>
    c58c:	ee0a1463          	bnez	s4,bc74 <_vfiprintf_r+0x454>
    c590:	000d8a93          	mv	s5,s11
    c594:	00000a13          	li	s4,0
    c598:	00012423          	sw	zero,8(sp)
    c59c:	0f010d13          	addi	s10,sp,240
    c5a0:	eecff06f          	j	bc8c <_vfiprintf_r+0x46c>
    c5a4:	01012703          	lw	a4,16(sp)
    c5a8:	010df793          	andi	a5,s11,16
    c5ac:	00470693          	addi	a3,a4,4
    c5b0:	14079463          	bnez	a5,c6f8 <_vfiprintf_r+0xed8>
    c5b4:	040df793          	andi	a5,s11,64
    c5b8:	38078063          	beqz	a5,c938 <_vfiprintf_r+0x1118>
    c5bc:	01012783          	lw	a5,16(sp)
    c5c0:	00000b93          	li	s7,0
    c5c4:	00d12823          	sw	a3,16(sp)
    c5c8:	0007d403          	lhu	s0,0(a5)
    c5cc:	00100793          	li	a5,1
    c5d0:	f80ff06f          	j	bd50 <_vfiprintf_r+0x530>
    c5d4:	05410693          	addi	a3,sp,84
    c5d8:	00100613          	li	a2,1
    c5dc:	00000713          	li	a4,0
    c5e0:	00048c13          	mv	s8,s1
    c5e4:	d10ff06f          	j	baf4 <_vfiprintf_r+0x2d4>
    c5e8:	160f9c63          	bnez	t6,c760 <_vfiprintf_r+0xf40>
    c5ec:	00000713          	li	a4,0
    c5f0:	05410693          	addi	a3,sp,84
    c5f4:	00100613          	li	a2,1
    c5f8:	00048c13          	mv	s8,s1
    c5fc:	cf8ff06f          	j	baf4 <_vfiprintf_r+0x2d4>
    c600:	400df793          	andi	a5,s11,1024
    c604:	01312423          	sw	s3,8(sp)
    c608:	03212423          	sw	s2,40(sp)
    c60c:	000b8993          	mv	s3,s7
    c610:	00040913          	mv	s2,s0
    c614:	01812b83          	lw	s7,24(sp)
    c618:	00000a93          	li	s5,0
    c61c:	0f010d13          	addi	s10,sp,240
    c620:	00078413          	mv	s0,a5
    c624:	0240006f          	j	c648 <_vfiprintf_r+0xe28>
    c628:	00a00613          	li	a2,10
    c62c:	00000693          	li	a3,0
    c630:	00090513          	mv	a0,s2
    c634:	00098593          	mv	a1,s3
    c638:	614030ef          	jal	ra,fc4c <__udivdi3>
    c63c:	34098463          	beqz	s3,c984 <_vfiprintf_r+0x1164>
    c640:	00050913          	mv	s2,a0
    c644:	00058993          	mv	s3,a1
    c648:	00a00613          	li	a2,10
    c64c:	00000693          	li	a3,0
    c650:	00090513          	mv	a0,s2
    c654:	00098593          	mv	a1,s3
    c658:	295030ef          	jal	ra,100ec <__umoddi3>
    c65c:	03050513          	addi	a0,a0,48
    c660:	fead0fa3          	sb	a0,-1(s10)
    c664:	001a8a93          	addi	s5,s5,1
    c668:	fffd0d13          	addi	s10,s10,-1
    c66c:	fa040ee3          	beqz	s0,c628 <_vfiprintf_r+0xe08>
    c670:	000bc683          	lbu	a3,0(s7)
    c674:	fb569ae3          	bne	a3,s5,c628 <_vfiprintf_r+0xe08>
    c678:	0ff00793          	li	a5,255
    c67c:	fafa86e3          	beq	s5,a5,c628 <_vfiprintf_r+0xe08>
    c680:	1a099663          	bnez	s3,c82c <_vfiprintf_r+0x100c>
    c684:	00900793          	li	a5,9
    c688:	1b27e263          	bltu	a5,s2,c82c <_vfiprintf_r+0x100c>
    c68c:	0f010793          	addi	a5,sp,240
    c690:	41a787b3          	sub	a5,a5,s10
    c694:	00812983          	lw	s3,8(sp)
    c698:	02812903          	lw	s2,40(sp)
    c69c:	01712c23          	sw	s7,24(sp)
    c6a0:	00f12423          	sw	a5,8(sp)
    c6a4:	000d8a93          	mv	s5,s11
    c6a8:	de4ff06f          	j	bc8c <_vfiprintf_r+0x46c>
    c6ac:	04010613          	addi	a2,sp,64
    c6b0:	00090593          	mv	a1,s2
    c6b4:	00098513          	mv	a0,s3
    c6b8:	03e12623          	sw	t5,44(sp)
    c6bc:	03f12423          	sw	t6,40(sp)
    c6c0:	854ff0ef          	jal	ra,b714 <__sprint_r.part.0>
    c6c4:	cc051263          	bnez	a0,bb88 <_vfiprintf_r+0x368>
    c6c8:	04412703          	lw	a4,68(sp)
    c6cc:	04812783          	lw	a5,72(sp)
    c6d0:	02c12f03          	lw	t5,44(sp)
    c6d4:	02812f83          	lw	t6,40(sp)
    c6d8:	00048c13          	mv	s8,s1
    c6dc:	00170613          	addi	a2,a4,1
    c6e0:	b78ff06f          	j	ba58 <_vfiprintf_r+0x238>
    c6e4:	00158613          	addi	a2,a1,1
    c6e8:	00850693          	addi	a3,a0,8
    c6ec:	00058713          	mv	a4,a1
    c6f0:	00050c13          	mv	s8,a0
    c6f4:	c08ff06f          	j	bafc <_vfiprintf_r+0x2dc>
    c6f8:	00072403          	lw	s0,0(a4)
    c6fc:	00000b93          	li	s7,0
    c700:	00d12823          	sw	a3,16(sp)
    c704:	00100793          	li	a5,1
    c708:	e48ff06f          	j	bd50 <_vfiprintf_r+0x530>
    c70c:	01812783          	lw	a5,24(sp)
    c710:	000b4703          	lbu	a4,0(s6)
    c714:	a8078c63          	beqz	a5,b9ac <_vfiprintf_r+0x18c>
    c718:	0007c783          	lbu	a5,0(a5)
    c71c:	a8078863          	beqz	a5,b9ac <_vfiprintf_r+0x18c>
    c720:	400aea93          	ori	s5,s5,1024
    c724:	a88ff06f          	j	b9ac <_vfiprintf_r+0x18c>
    c728:	00c12683          	lw	a3,12(sp)
    c72c:	41f6d793          	srai	a5,a3,0x1f
    c730:	00d72023          	sw	a3,0(a4)
    c734:	00f72223          	sw	a5,4(a4)
    c738:	9d4ff06f          	j	b90c <_vfiprintf_r+0xec>
    c73c:	0006a403          	lw	s0,0(a3)
    c740:	00e12823          	sw	a4,16(sp)
    c744:	41f45b93          	srai	s7,s0,0x1f
    c748:	000b8793          	mv	a5,s7
    c74c:	d00ff06f          	j	bc4c <_vfiprintf_r+0x42c>
    c750:	0006a403          	lw	s0,0(a3)
    c754:	00000b93          	li	s7,0
    c758:	00e12823          	sw	a4,16(sp)
    c75c:	decff06f          	j	bd48 <_vfiprintf_r+0x528>
    c760:	03c10793          	addi	a5,sp,60
    c764:	04f12623          	sw	a5,76(sp)
    c768:	00200793          	li	a5,2
    c76c:	04f12823          	sw	a5,80(sp)
    c770:	05410c13          	addi	s8,sp,84
    c774:	00100713          	li	a4,1
    c778:	c99ff06f          	j	c410 <_vfiprintf_r+0xbf0>
    c77c:	00014797          	auipc	a5,0x14
    c780:	92878793          	addi	a5,a5,-1752 # 200a4 <__malloc_trim_threshold+0x6c>
    c784:	00f12a23          	sw	a5,20(sp)
    c788:	020af793          	andi	a5,s5,32
    c78c:	06078463          	beqz	a5,c7f4 <_vfiprintf_r+0xfd4>
    c790:	01012783          	lw	a5,16(sp)
    c794:	00778793          	addi	a5,a5,7
    c798:	ff87f793          	andi	a5,a5,-8
    c79c:	0007a403          	lw	s0,0(a5)
    c7a0:	0047ab83          	lw	s7,4(a5)
    c7a4:	00878793          	addi	a5,a5,8
    c7a8:	00f12823          	sw	a5,16(sp)
    c7ac:	001af793          	andi	a5,s5,1
    c7b0:	00078e63          	beqz	a5,c7cc <_vfiprintf_r+0xfac>
    c7b4:	017467b3          	or	a5,s0,s7
    c7b8:	00078a63          	beqz	a5,c7cc <_vfiprintf_r+0xfac>
    c7bc:	03000793          	li	a5,48
    c7c0:	02f10e23          	sb	a5,60(sp)
    c7c4:	02e10ea3          	sb	a4,61(sp)
    c7c8:	002aea93          	ori	s5,s5,2
    c7cc:	bffafd93          	andi	s11,s5,-1025
    c7d0:	00200793          	li	a5,2
    c7d4:	d7cff06f          	j	bd50 <_vfiprintf_r+0x530>
    c7d8:	000a8d93          	mv	s11,s5
    c7dc:	835ff06f          	j	c010 <_vfiprintf_r+0x7f0>
    c7e0:	00014797          	auipc	a5,0x14
    c7e4:	8b078793          	addi	a5,a5,-1872 # 20090 <__malloc_trim_threshold+0x58>
    c7e8:	00f12a23          	sw	a5,20(sp)
    c7ec:	020af793          	andi	a5,s5,32
    c7f0:	fa0790e3          	bnez	a5,c790 <_vfiprintf_r+0xf70>
    c7f4:	01012603          	lw	a2,16(sp)
    c7f8:	010af793          	andi	a5,s5,16
    c7fc:	00460693          	addi	a3,a2,4
    c800:	08078a63          	beqz	a5,c894 <_vfiprintf_r+0x1074>
    c804:	00062403          	lw	s0,0(a2)
    c808:	00000b93          	li	s7,0
    c80c:	00d12823          	sw	a3,16(sp)
    c810:	f9dff06f          	j	c7ac <_vfiprintf_r+0xf8c>
    c814:	000d0513          	mv	a0,s10
    c818:	ba4fc0ef          	jal	ra,8bbc <strlen>
    c81c:	00a12423          	sw	a0,8(sp)
    c820:	01712823          	sw	s7,16(sp)
    c824:	00000a13          	li	s4,0
    c828:	c64ff06f          	j	bc8c <_vfiprintf_r+0x46c>
    c82c:	02012783          	lw	a5,32(sp)
    c830:	01c12583          	lw	a1,28(sp)
    c834:	00000a93          	li	s5,0
    c838:	40fd0d33          	sub	s10,s10,a5
    c83c:	00078613          	mv	a2,a5
    c840:	000d0513          	mv	a0,s10
    c844:	c04fc0ef          	jal	ra,8c48 <strncpy>
    c848:	001bc583          	lbu	a1,1(s7)
    c84c:	00a00613          	li	a2,10
    c850:	00000693          	li	a3,0
    c854:	00b03733          	snez	a4,a1
    c858:	00090513          	mv	a0,s2
    c85c:	00098593          	mv	a1,s3
    c860:	00eb8bb3          	add	s7,s7,a4
    c864:	3e8030ef          	jal	ra,fc4c <__udivdi3>
    c868:	dd9ff06f          	j	c640 <_vfiprintf_r+0xe20>
    c86c:	00040913          	mv	s2,s0
    c870:	b18ff06f          	j	bb88 <_vfiprintf_r+0x368>
    c874:	00812783          	lw	a5,8(sp)
    c878:	00100713          	li	a4,1
    c87c:	05a12623          	sw	s10,76(sp)
    c880:	04f12823          	sw	a5,80(sp)
    c884:	04f12423          	sw	a5,72(sp)
    c888:	04e12223          	sw	a4,68(sp)
    c88c:	05410693          	addi	a3,sp,84
    c890:	ab8ff06f          	j	bb48 <_vfiprintf_r+0x328>
    c894:	040af793          	andi	a5,s5,64
    c898:	0c078063          	beqz	a5,c958 <_vfiprintf_r+0x1138>
    c89c:	01012783          	lw	a5,16(sp)
    c8a0:	00000b93          	li	s7,0
    c8a4:	00d12823          	sw	a3,16(sp)
    c8a8:	0007d403          	lhu	s0,0(a5)
    c8ac:	f01ff06f          	j	c7ac <_vfiprintf_r+0xf8c>
    c8b0:	001b4703          	lbu	a4,1(s6)
    c8b4:	200aea93          	ori	s5,s5,512
    c8b8:	001b0b13          	addi	s6,s6,1
    c8bc:	8f0ff06f          	j	b9ac <_vfiprintf_r+0x18c>
    c8c0:	001b4703          	lbu	a4,1(s6)
    c8c4:	020aea93          	ori	s5,s5,32
    c8c8:	001b0b13          	addi	s6,s6,1
    c8cc:	8e0ff06f          	j	b9ac <_vfiprintf_r+0x18c>
    c8d0:	00c12783          	lw	a5,12(sp)
    c8d4:	00f72023          	sw	a5,0(a4)
    c8d8:	834ff06f          	j	b90c <_vfiprintf_r+0xec>
    c8dc:	01412423          	sw	s4,8(sp)
    c8e0:	00600793          	li	a5,6
    c8e4:	0d47e063          	bltu	a5,s4,c9a4 <_vfiprintf_r+0x1184>
    c8e8:	00812403          	lw	s0,8(sp)
    c8ec:	01712823          	sw	s7,16(sp)
    c8f0:	00013d17          	auipc	s10,0x13
    c8f4:	7c8d0d13          	addi	s10,s10,1992 # 200b8 <__malloc_trim_threshold+0x80>
    c8f8:	930ff06f          	j	ba28 <_vfiprintf_r+0x208>
    c8fc:	200af793          	andi	a5,s5,512
    c900:	10078a63          	beqz	a5,ca14 <_vfiprintf_r+0x11f4>
    c904:	01012783          	lw	a5,16(sp)
    c908:	00e12823          	sw	a4,16(sp)
    c90c:	00078403          	lb	s0,0(a5)
    c910:	41f45b93          	srai	s7,s0,0x1f
    c914:	000b8793          	mv	a5,s7
    c918:	b34ff06f          	j	bc4c <_vfiprintf_r+0x42c>
    c91c:	200af793          	andi	a5,s5,512
    c920:	0e078063          	beqz	a5,ca00 <_vfiprintf_r+0x11e0>
    c924:	01012783          	lw	a5,16(sp)
    c928:	00000b93          	li	s7,0
    c92c:	00e12823          	sw	a4,16(sp)
    c930:	0007c403          	lbu	s0,0(a5)
    c934:	c14ff06f          	j	bd48 <_vfiprintf_r+0x528>
    c938:	200df793          	andi	a5,s11,512
    c93c:	0a078663          	beqz	a5,c9e8 <_vfiprintf_r+0x11c8>
    c940:	01012783          	lw	a5,16(sp)
    c944:	00000b93          	li	s7,0
    c948:	00d12823          	sw	a3,16(sp)
    c94c:	0007c403          	lbu	s0,0(a5)
    c950:	00100793          	li	a5,1
    c954:	bfcff06f          	j	bd50 <_vfiprintf_r+0x530>
    c958:	200af793          	andi	a5,s5,512
    c95c:	06078c63          	beqz	a5,c9d4 <_vfiprintf_r+0x11b4>
    c960:	01012783          	lw	a5,16(sp)
    c964:	00000b93          	li	s7,0
    c968:	00d12823          	sw	a3,16(sp)
    c96c:	0007c403          	lbu	s0,0(a5)
    c970:	e3dff06f          	j	c7ac <_vfiprintf_r+0xf8c>
    c974:	00068593          	mv	a1,a3
    c978:	00014d97          	auipc	s11,0x14
    c97c:	0ccd8d93          	addi	s11,s11,204 # 20a44 <zeroes.0>
    c980:	9bdff06f          	j	c33c <_vfiprintf_r+0xb1c>
    c984:	00900793          	li	a5,9
    c988:	cb27ece3          	bltu	a5,s2,c640 <_vfiprintf_r+0xe20>
    c98c:	d01ff06f          	j	c68c <_vfiprintf_r+0xe6c>
    c990:	05410693          	addi	a3,sp,84
    c994:	00100613          	li	a2,1
    c998:	00000713          	li	a4,0
    c99c:	00048c13          	mv	s8,s1
    c9a0:	95cff06f          	j	bafc <_vfiprintf_r+0x2dc>
    c9a4:	00f12423          	sw	a5,8(sp)
    c9a8:	f41ff06f          	j	c8e8 <_vfiprintf_r+0x10c8>
    c9ac:	03b10793          	addi	a5,sp,59
    c9b0:	04f12623          	sw	a5,76(sp)
    c9b4:	00100793          	li	a5,1
    c9b8:	04f12823          	sw	a5,80(sp)
    c9bc:	05410693          	addi	a3,sp,84
    c9c0:	00100613          	li	a2,1
    c9c4:	8c4ff06f          	j	ba88 <_vfiprintf_r+0x268>
    c9c8:	00c12783          	lw	a5,12(sp)
    c9cc:	00f71023          	sh	a5,0(a4)
    c9d0:	f3dfe06f          	j	b90c <_vfiprintf_r+0xec>
    c9d4:	01012783          	lw	a5,16(sp)
    c9d8:	00000b93          	li	s7,0
    c9dc:	00d12823          	sw	a3,16(sp)
    c9e0:	0007a403          	lw	s0,0(a5)
    c9e4:	dc9ff06f          	j	c7ac <_vfiprintf_r+0xf8c>
    c9e8:	01012783          	lw	a5,16(sp)
    c9ec:	00000b93          	li	s7,0
    c9f0:	00d12823          	sw	a3,16(sp)
    c9f4:	0007a403          	lw	s0,0(a5)
    c9f8:	00100793          	li	a5,1
    c9fc:	b54ff06f          	j	bd50 <_vfiprintf_r+0x530>
    ca00:	01012783          	lw	a5,16(sp)
    ca04:	00000b93          	li	s7,0
    ca08:	00e12823          	sw	a4,16(sp)
    ca0c:	0007a403          	lw	s0,0(a5)
    ca10:	b38ff06f          	j	bd48 <_vfiprintf_r+0x528>
    ca14:	01012783          	lw	a5,16(sp)
    ca18:	00e12823          	sw	a4,16(sp)
    ca1c:	0007a403          	lw	s0,0(a5)
    ca20:	41f45b93          	srai	s7,s0,0x1f
    ca24:	000b8793          	mv	a5,s7
    ca28:	a24ff06f          	j	bc4c <_vfiprintf_r+0x42c>
    ca2c:	04010613          	addi	a2,sp,64
    ca30:	00090593          	mv	a1,s2
    ca34:	00098513          	mv	a0,s3
    ca38:	cddfe0ef          	jal	ra,b714 <__sprint_r.part.0>
    ca3c:	94cff06f          	j	bb88 <_vfiprintf_r+0x368>
    ca40:	01412423          	sw	s4,8(sp)
    ca44:	01712823          	sw	s7,16(sp)
    ca48:	00000a13          	li	s4,0
    ca4c:	a40ff06f          	j	bc8c <_vfiprintf_r+0x46c>
    ca50:	00068593          	mv	a1,a3
    ca54:	00014d97          	auipc	s11,0x14
    ca58:	fe0d8d93          	addi	s11,s11,-32 # 20a34 <blanks.1>
    ca5c:	aa1ff06f          	j	c4fc <_vfiprintf_r+0xcdc>
    ca60:	00160593          	addi	a1,a2,1
    ca64:	00014d97          	auipc	s11,0x14
    ca68:	fd0d8d93          	addi	s11,s11,-48 # 20a34 <blanks.1>
    ca6c:	bd0ff06f          	j	be3c <_vfiprintf_r+0x61c>
    ca70:	000a8d93          	mv	s11,s5
    ca74:	a00ff06f          	j	bc74 <_vfiprintf_r+0x454>
    ca78:	fff00793          	li	a5,-1
    ca7c:	00f12623          	sw	a5,12(sp)
    ca80:	914ff06f          	j	bb94 <_vfiprintf_r+0x374>
    ca84:	00068513          	mv	a0,a3
    ca88:	00060593          	mv	a1,a2
    ca8c:	00014d97          	auipc	s11,0x14
    ca90:	fb8d8d93          	addi	s11,s11,-72 # 20a44 <zeroes.0>
    ca94:	fd0ff06f          	j	c264 <_vfiprintf_r+0xa44>
    ca98:	01012783          	lw	a5,16(sp)
    ca9c:	0007aa03          	lw	s4,0(a5)
    caa0:	00478793          	addi	a5,a5,4
    caa4:	000a5463          	bgez	s4,caac <_vfiprintf_r+0x128c>
    caa8:	fff00a13          	li	s4,-1
    caac:	001b4703          	lbu	a4,1(s6)
    cab0:	00f12823          	sw	a5,16(sp)
    cab4:	00068b13          	mv	s6,a3
    cab8:	ef5fe06f          	j	b9ac <_vfiprintf_r+0x18c>

0000cabc <vfiprintf>:
    cabc:	00060693          	mv	a3,a2
    cac0:	00058613          	mv	a2,a1
    cac4:	00050593          	mv	a1,a0
    cac8:	00013517          	auipc	a0,0x13
    cacc:	56852503          	lw	a0,1384(a0) # 20030 <_impure_ptr>
    cad0:	d51fe06f          	j	b820 <_vfiprintf_r>

0000cad4 <__sbprintf>:
    cad4:	00c5d783          	lhu	a5,12(a1)
    cad8:	0645ae03          	lw	t3,100(a1)
    cadc:	00e5d303          	lhu	t1,14(a1)
    cae0:	01c5a883          	lw	a7,28(a1)
    cae4:	0245a803          	lw	a6,36(a1)
    cae8:	b8010113          	addi	sp,sp,-1152
    caec:	ffd7f793          	andi	a5,a5,-3
    caf0:	40000713          	li	a4,1024
    caf4:	46812c23          	sw	s0,1144(sp)
    caf8:	00f11a23          	sh	a5,20(sp)
    cafc:	00058413          	mv	s0,a1
    cb00:	07010793          	addi	a5,sp,112
    cb04:	00810593          	addi	a1,sp,8
    cb08:	46912a23          	sw	s1,1140(sp)
    cb0c:	47212823          	sw	s2,1136(sp)
    cb10:	46112e23          	sw	ra,1148(sp)
    cb14:	00050913          	mv	s2,a0
    cb18:	07c12623          	sw	t3,108(sp)
    cb1c:	00611b23          	sh	t1,22(sp)
    cb20:	03112223          	sw	a7,36(sp)
    cb24:	03012623          	sw	a6,44(sp)
    cb28:	00f12423          	sw	a5,8(sp)
    cb2c:	00f12c23          	sw	a5,24(sp)
    cb30:	00e12823          	sw	a4,16(sp)
    cb34:	00e12e23          	sw	a4,28(sp)
    cb38:	02012023          	sw	zero,32(sp)
    cb3c:	ce5fe0ef          	jal	ra,b820 <_vfiprintf_r>
    cb40:	00050493          	mv	s1,a0
    cb44:	02055c63          	bgez	a0,cb7c <__sbprintf+0xa8>
    cb48:	01415783          	lhu	a5,20(sp)
    cb4c:	0407f793          	andi	a5,a5,64
    cb50:	00078863          	beqz	a5,cb60 <__sbprintf+0x8c>
    cb54:	00c45783          	lhu	a5,12(s0)
    cb58:	0407e793          	ori	a5,a5,64
    cb5c:	00f41623          	sh	a5,12(s0)
    cb60:	47c12083          	lw	ra,1148(sp)
    cb64:	47812403          	lw	s0,1144(sp)
    cb68:	47012903          	lw	s2,1136(sp)
    cb6c:	00048513          	mv	a0,s1
    cb70:	47412483          	lw	s1,1140(sp)
    cb74:	48010113          	addi	sp,sp,1152
    cb78:	00008067          	ret
    cb7c:	00810593          	addi	a1,sp,8
    cb80:	00090513          	mv	a0,s2
    cb84:	d38f60ef          	jal	ra,30bc <_fflush_r>
    cb88:	fc0500e3          	beqz	a0,cb48 <__sbprintf+0x74>
    cb8c:	fff00493          	li	s1,-1
    cb90:	fb9ff06f          	j	cb48 <__sbprintf+0x74>

0000cb94 <_wctomb_r>:
    cb94:	00015797          	auipc	a5,0x15
    cb98:	85c7a783          	lw	a5,-1956(a5) # 213f0 <__global_locale+0xe0>
    cb9c:	00078067          	jr	a5

0000cba0 <__ascii_wctomb>:
    cba0:	02058463          	beqz	a1,cbc8 <__ascii_wctomb+0x28>
    cba4:	0ff00793          	li	a5,255
    cba8:	00c7e863          	bltu	a5,a2,cbb8 <__ascii_wctomb+0x18>
    cbac:	00c58023          	sb	a2,0(a1)
    cbb0:	00100513          	li	a0,1
    cbb4:	00008067          	ret
    cbb8:	08a00793          	li	a5,138
    cbbc:	00f52023          	sw	a5,0(a0)
    cbc0:	fff00513          	li	a0,-1
    cbc4:	00008067          	ret
    cbc8:	00000513          	li	a0,0
    cbcc:	00008067          	ret

0000cbd0 <_write_r>:
    cbd0:	ff010113          	addi	sp,sp,-16
    cbd4:	00058713          	mv	a4,a1
    cbd8:	00812423          	sw	s0,8(sp)
    cbdc:	00060593          	mv	a1,a2
    cbe0:	00050413          	mv	s0,a0
    cbe4:	00068613          	mv	a2,a3
    cbe8:	00070513          	mv	a0,a4
    cbec:	00015797          	auipc	a5,0x15
    cbf0:	ca07a423          	sw	zero,-856(a5) # 21894 <errno>
    cbf4:	00112623          	sw	ra,12(sp)
    cbf8:	429070ef          	jal	ra,14820 <_write>
    cbfc:	fff00793          	li	a5,-1
    cc00:	00f50a63          	beq	a0,a5,cc14 <_write_r+0x44>
    cc04:	00c12083          	lw	ra,12(sp)
    cc08:	00812403          	lw	s0,8(sp)
    cc0c:	01010113          	addi	sp,sp,16
    cc10:	00008067          	ret
    cc14:	00015797          	auipc	a5,0x15
    cc18:	c807a783          	lw	a5,-896(a5) # 21894 <errno>
    cc1c:	fe0784e3          	beqz	a5,cc04 <_write_r+0x34>
    cc20:	00c12083          	lw	ra,12(sp)
    cc24:	00f42023          	sw	a5,0(s0)
    cc28:	00812403          	lw	s0,8(sp)
    cc2c:	01010113          	addi	sp,sp,16
    cc30:	00008067          	ret

0000cc34 <__assert_func>:
    cc34:	ff010113          	addi	sp,sp,-16
    cc38:	00068793          	mv	a5,a3
    cc3c:	00013717          	auipc	a4,0x13
    cc40:	3f472703          	lw	a4,1012(a4) # 20030 <_impure_ptr>
    cc44:	00060813          	mv	a6,a2
    cc48:	00112623          	sw	ra,12(sp)
    cc4c:	00c72883          	lw	a7,12(a4)
    cc50:	00078613          	mv	a2,a5
    cc54:	00050693          	mv	a3,a0
    cc58:	00058713          	mv	a4,a1
    cc5c:	00014797          	auipc	a5,0x14
    cc60:	df878793          	addi	a5,a5,-520 # 20a54 <zeroes.0+0x10>
    cc64:	00080c63          	beqz	a6,cc7c <__assert_func+0x48>
    cc68:	00014597          	auipc	a1,0x14
    cc6c:	dfc58593          	addi	a1,a1,-516 # 20a64 <zeroes.0+0x20>
    cc70:	00088513          	mv	a0,a7
    cc74:	358000ef          	jal	ra,cfcc <fiprintf>
    cc78:	1c9020ef          	jal	ra,f640 <abort>
    cc7c:	00014797          	auipc	a5,0x14
    cc80:	de478793          	addi	a5,a5,-540 # 20a60 <zeroes.0+0x1c>
    cc84:	00078813          	mv	a6,a5
    cc88:	fe1ff06f          	j	cc68 <__assert_func+0x34>

0000cc8c <__assert>:
    cc8c:	ff010113          	addi	sp,sp,-16
    cc90:	00060693          	mv	a3,a2
    cc94:	00000613          	li	a2,0
    cc98:	00112623          	sw	ra,12(sp)
    cc9c:	f99ff0ef          	jal	ra,cc34 <__assert_func>

0000cca0 <_calloc_r>:
    cca0:	02c5b7b3          	mulhu	a5,a1,a2
    cca4:	ff010113          	addi	sp,sp,-16
    cca8:	00112623          	sw	ra,12(sp)
    ccac:	00812423          	sw	s0,8(sp)
    ccb0:	02c585b3          	mul	a1,a1,a2
    ccb4:	0a079063          	bnez	a5,cd54 <_calloc_r+0xb4>
    ccb8:	d99f90ef          	jal	ra,6a50 <_malloc_r>
    ccbc:	00050413          	mv	s0,a0
    ccc0:	04050863          	beqz	a0,cd10 <_calloc_r+0x70>
    ccc4:	ffc52603          	lw	a2,-4(a0)
    ccc8:	02400713          	li	a4,36
    cccc:	ffc67613          	andi	a2,a2,-4
    ccd0:	ffc60613          	addi	a2,a2,-4
    ccd4:	04c76863          	bltu	a4,a2,cd24 <_calloc_r+0x84>
    ccd8:	01300693          	li	a3,19
    ccdc:	00050793          	mv	a5,a0
    cce0:	02c6f263          	bgeu	a3,a2,cd04 <_calloc_r+0x64>
    cce4:	00052023          	sw	zero,0(a0)
    cce8:	00052223          	sw	zero,4(a0)
    ccec:	01b00793          	li	a5,27
    ccf0:	04c7f863          	bgeu	a5,a2,cd40 <_calloc_r+0xa0>
    ccf4:	00052423          	sw	zero,8(a0)
    ccf8:	00052623          	sw	zero,12(a0)
    ccfc:	01050793          	addi	a5,a0,16
    cd00:	06e60c63          	beq	a2,a4,cd78 <_calloc_r+0xd8>
    cd04:	0007a023          	sw	zero,0(a5)
    cd08:	0007a223          	sw	zero,4(a5)
    cd0c:	0007a423          	sw	zero,8(a5)
    cd10:	00c12083          	lw	ra,12(sp)
    cd14:	00040513          	mv	a0,s0
    cd18:	00812403          	lw	s0,8(sp)
    cd1c:	01010113          	addi	sp,sp,16
    cd20:	00008067          	ret
    cd24:	00000593          	li	a1,0
    cd28:	e30fa0ef          	jal	ra,7358 <memset>
    cd2c:	00c12083          	lw	ra,12(sp)
    cd30:	00040513          	mv	a0,s0
    cd34:	00812403          	lw	s0,8(sp)
    cd38:	01010113          	addi	sp,sp,16
    cd3c:	00008067          	ret
    cd40:	00850793          	addi	a5,a0,8
    cd44:	0007a023          	sw	zero,0(a5)
    cd48:	0007a223          	sw	zero,4(a5)
    cd4c:	0007a423          	sw	zero,8(a5)
    cd50:	fc1ff06f          	j	cd10 <_calloc_r+0x70>
    cd54:	08c000ef          	jal	ra,cde0 <__errno>
    cd58:	00000413          	li	s0,0
    cd5c:	00c00793          	li	a5,12
    cd60:	00c12083          	lw	ra,12(sp)
    cd64:	00f52023          	sw	a5,0(a0)
    cd68:	00040513          	mv	a0,s0
    cd6c:	00812403          	lw	s0,8(sp)
    cd70:	01010113          	addi	sp,sp,16
    cd74:	00008067          	ret
    cd78:	00052823          	sw	zero,16(a0)
    cd7c:	01850793          	addi	a5,a0,24
    cd80:	00052a23          	sw	zero,20(a0)
    cd84:	f81ff06f          	j	cd04 <_calloc_r+0x64>

0000cd88 <_close_r>:
    cd88:	ff010113          	addi	sp,sp,-16
    cd8c:	00812423          	sw	s0,8(sp)
    cd90:	00050413          	mv	s0,a0
    cd94:	00058513          	mv	a0,a1
    cd98:	00015797          	auipc	a5,0x15
    cd9c:	ae07ae23          	sw	zero,-1284(a5) # 21894 <errno>
    cda0:	00112623          	sw	ra,12(sp)
    cda4:	2ad070ef          	jal	ra,14850 <_close>
    cda8:	fff00793          	li	a5,-1
    cdac:	00f50a63          	beq	a0,a5,cdc0 <_close_r+0x38>
    cdb0:	00c12083          	lw	ra,12(sp)
    cdb4:	00812403          	lw	s0,8(sp)
    cdb8:	01010113          	addi	sp,sp,16
    cdbc:	00008067          	ret
    cdc0:	00015797          	auipc	a5,0x15
    cdc4:	ad47a783          	lw	a5,-1324(a5) # 21894 <errno>
    cdc8:	fe0784e3          	beqz	a5,cdb0 <_close_r+0x28>
    cdcc:	00c12083          	lw	ra,12(sp)
    cdd0:	00f42023          	sw	a5,0(s0)
    cdd4:	00812403          	lw	s0,8(sp)
    cdd8:	01010113          	addi	sp,sp,16
    cddc:	00008067          	ret

0000cde0 <__errno>:
    cde0:	00013517          	auipc	a0,0x13
    cde4:	25052503          	lw	a0,592(a0) # 20030 <_impure_ptr>
    cde8:	00008067          	ret

0000cdec <_fclose_r.part.0>:
    cdec:	ff010113          	addi	sp,sp,-16
    cdf0:	00812423          	sw	s0,8(sp)
    cdf4:	00912223          	sw	s1,4(sp)
    cdf8:	01212023          	sw	s2,0(sp)
    cdfc:	00058413          	mv	s0,a1
    ce00:	00112623          	sw	ra,12(sp)
    ce04:	00050493          	mv	s1,a0
    ce08:	850f60ef          	jal	ra,2e58 <__sflush_r>
    ce0c:	02c42783          	lw	a5,44(s0)
    ce10:	00050913          	mv	s2,a0
    ce14:	00078a63          	beqz	a5,ce28 <_fclose_r.part.0+0x3c>
    ce18:	01c42583          	lw	a1,28(s0)
    ce1c:	00048513          	mv	a0,s1
    ce20:	000780e7          	jalr	a5
    ce24:	06054463          	bltz	a0,ce8c <_fclose_r.part.0+0xa0>
    ce28:	00c45783          	lhu	a5,12(s0)
    ce2c:	0807f793          	andi	a5,a5,128
    ce30:	06079663          	bnez	a5,ce9c <_fclose_r.part.0+0xb0>
    ce34:	03042583          	lw	a1,48(s0)
    ce38:	00058c63          	beqz	a1,ce50 <_fclose_r.part.0+0x64>
    ce3c:	04040793          	addi	a5,s0,64
    ce40:	00f58663          	beq	a1,a5,ce4c <_fclose_r.part.0+0x60>
    ce44:	00048513          	mv	a0,s1
    ce48:	839f60ef          	jal	ra,3680 <_free_r>
    ce4c:	02042823          	sw	zero,48(s0)
    ce50:	04442583          	lw	a1,68(s0)
    ce54:	00058863          	beqz	a1,ce64 <_fclose_r.part.0+0x78>
    ce58:	00048513          	mv	a0,s1
    ce5c:	825f60ef          	jal	ra,3680 <_free_r>
    ce60:	04042223          	sw	zero,68(s0)
    ce64:	ea4f60ef          	jal	ra,3508 <__sfp_lock_acquire>
    ce68:	00041623          	sh	zero,12(s0)
    ce6c:	ea0f60ef          	jal	ra,350c <__sfp_lock_release>
    ce70:	00c12083          	lw	ra,12(sp)
    ce74:	00812403          	lw	s0,8(sp)
    ce78:	00412483          	lw	s1,4(sp)
    ce7c:	00090513          	mv	a0,s2
    ce80:	00012903          	lw	s2,0(sp)
    ce84:	01010113          	addi	sp,sp,16
    ce88:	00008067          	ret
    ce8c:	00c45783          	lhu	a5,12(s0)
    ce90:	fff00913          	li	s2,-1
    ce94:	0807f793          	andi	a5,a5,128
    ce98:	f8078ee3          	beqz	a5,ce34 <_fclose_r.part.0+0x48>
    ce9c:	01042583          	lw	a1,16(s0)
    cea0:	00048513          	mv	a0,s1
    cea4:	fdcf60ef          	jal	ra,3680 <_free_r>
    cea8:	f8dff06f          	j	ce34 <_fclose_r.part.0+0x48>

0000ceac <_fclose_r>:
    ceac:	06058463          	beqz	a1,cf14 <_fclose_r+0x68>
    ceb0:	fe010113          	addi	sp,sp,-32
    ceb4:	00812c23          	sw	s0,24(sp)
    ceb8:	00112e23          	sw	ra,28(sp)
    cebc:	00050413          	mv	s0,a0
    cec0:	00050663          	beqz	a0,cecc <_fclose_r+0x20>
    cec4:	03852783          	lw	a5,56(a0)
    cec8:	02078a63          	beqz	a5,cefc <_fclose_r+0x50>
    cecc:	00c59783          	lh	a5,12(a1)
    ced0:	00079c63          	bnez	a5,cee8 <_fclose_r+0x3c>
    ced4:	01c12083          	lw	ra,28(sp)
    ced8:	01812403          	lw	s0,24(sp)
    cedc:	00000513          	li	a0,0
    cee0:	02010113          	addi	sp,sp,32
    cee4:	00008067          	ret
    cee8:	00040513          	mv	a0,s0
    ceec:	01812403          	lw	s0,24(sp)
    cef0:	01c12083          	lw	ra,28(sp)
    cef4:	02010113          	addi	sp,sp,32
    cef8:	ef5ff06f          	j	cdec <_fclose_r.part.0>
    cefc:	00b12623          	sw	a1,12(sp)
    cf00:	df8f60ef          	jal	ra,34f8 <__sinit>
    cf04:	00c12583          	lw	a1,12(sp)
    cf08:	00c59783          	lh	a5,12(a1)
    cf0c:	fc0784e3          	beqz	a5,ced4 <_fclose_r+0x28>
    cf10:	fd9ff06f          	j	cee8 <_fclose_r+0x3c>
    cf14:	00000513          	li	a0,0
    cf18:	00008067          	ret

0000cf1c <fclose>:
    cf1c:	06050863          	beqz	a0,cf8c <fclose+0x70>
    cf20:	fe010113          	addi	sp,sp,-32
    cf24:	00812c23          	sw	s0,24(sp)
    cf28:	00112e23          	sw	ra,28(sp)
    cf2c:	00050413          	mv	s0,a0
    cf30:	00013517          	auipc	a0,0x13
    cf34:	10052503          	lw	a0,256(a0) # 20030 <_impure_ptr>
    cf38:	00050663          	beqz	a0,cf44 <fclose+0x28>
    cf3c:	03852783          	lw	a5,56(a0)
    cf40:	02078a63          	beqz	a5,cf74 <fclose+0x58>
    cf44:	00c41783          	lh	a5,12(s0)
    cf48:	00079c63          	bnez	a5,cf60 <fclose+0x44>
    cf4c:	01c12083          	lw	ra,28(sp)
    cf50:	01812403          	lw	s0,24(sp)
    cf54:	00000513          	li	a0,0
    cf58:	02010113          	addi	sp,sp,32
    cf5c:	00008067          	ret
    cf60:	00040593          	mv	a1,s0
    cf64:	01812403          	lw	s0,24(sp)
    cf68:	01c12083          	lw	ra,28(sp)
    cf6c:	02010113          	addi	sp,sp,32
    cf70:	e7dff06f          	j	cdec <_fclose_r.part.0>
    cf74:	00a12623          	sw	a0,12(sp)
    cf78:	d80f60ef          	jal	ra,34f8 <__sinit>
    cf7c:	00c41783          	lh	a5,12(s0)
    cf80:	00c12503          	lw	a0,12(sp)
    cf84:	fc0784e3          	beqz	a5,cf4c <fclose+0x30>
    cf88:	fd9ff06f          	j	cf60 <fclose+0x44>
    cf8c:	00000513          	li	a0,0
    cf90:	00008067          	ret

0000cf94 <_fiprintf_r>:
    cf94:	fc010113          	addi	sp,sp,-64
    cf98:	02c10313          	addi	t1,sp,44
    cf9c:	02d12623          	sw	a3,44(sp)
    cfa0:	00030693          	mv	a3,t1
    cfa4:	00112e23          	sw	ra,28(sp)
    cfa8:	02e12823          	sw	a4,48(sp)
    cfac:	02f12a23          	sw	a5,52(sp)
    cfb0:	03012c23          	sw	a6,56(sp)
    cfb4:	03112e23          	sw	a7,60(sp)
    cfb8:	00612623          	sw	t1,12(sp)
    cfbc:	865fe0ef          	jal	ra,b820 <_vfiprintf_r>
    cfc0:	01c12083          	lw	ra,28(sp)
    cfc4:	04010113          	addi	sp,sp,64
    cfc8:	00008067          	ret

0000cfcc <fiprintf>:
    cfcc:	fc010113          	addi	sp,sp,-64
    cfd0:	02810313          	addi	t1,sp,40
    cfd4:	02c12423          	sw	a2,40(sp)
    cfd8:	02d12623          	sw	a3,44(sp)
    cfdc:	00058613          	mv	a2,a1
    cfe0:	00030693          	mv	a3,t1
    cfe4:	00050593          	mv	a1,a0
    cfe8:	00013517          	auipc	a0,0x13
    cfec:	04852503          	lw	a0,72(a0) # 20030 <_impure_ptr>
    cff0:	00112e23          	sw	ra,28(sp)
    cff4:	02e12823          	sw	a4,48(sp)
    cff8:	02f12a23          	sw	a5,52(sp)
    cffc:	03012c23          	sw	a6,56(sp)
    d000:	03112e23          	sw	a7,60(sp)
    d004:	00612623          	sw	t1,12(sp)
    d008:	819fe0ef          	jal	ra,b820 <_vfiprintf_r>
    d00c:	01c12083          	lw	ra,28(sp)
    d010:	04010113          	addi	sp,sp,64
    d014:	00008067          	ret

0000d018 <__fputwc>:
    d018:	fd010113          	addi	sp,sp,-48
    d01c:	02812423          	sw	s0,40(sp)
    d020:	01312e23          	sw	s3,28(sp)
    d024:	01612823          	sw	s6,16(sp)
    d028:	02112623          	sw	ra,44(sp)
    d02c:	02912223          	sw	s1,36(sp)
    d030:	03212023          	sw	s2,32(sp)
    d034:	01412c23          	sw	s4,24(sp)
    d038:	01512a23          	sw	s5,20(sp)
    d03c:	00050b13          	mv	s6,a0
    d040:	00058993          	mv	s3,a1
    d044:	00060413          	mv	s0,a2
    d048:	f20f90ef          	jal	ra,6768 <__locale_mb_cur_max>
    d04c:	00100793          	li	a5,1
    d050:	02f51063          	bne	a0,a5,d070 <__fputwc+0x58>
    d054:	fff98793          	addi	a5,s3,-1
    d058:	0fe00713          	li	a4,254
    d05c:	00f76a63          	bltu	a4,a5,d070 <__fputwc+0x58>
    d060:	0ff9f713          	zext.b	a4,s3
    d064:	00e10623          	sb	a4,12(sp)
    d068:	00100913          	li	s2,1
    d06c:	02c0006f          	j	d098 <__fputwc+0x80>
    d070:	05c40693          	addi	a3,s0,92
    d074:	00098613          	mv	a2,s3
    d078:	00c10593          	addi	a1,sp,12
    d07c:	000b0513          	mv	a0,s6
    d080:	4b4020ef          	jal	ra,f534 <_wcrtomb_r>
    d084:	fff00793          	li	a5,-1
    d088:	00050913          	mv	s2,a0
    d08c:	0af50463          	beq	a0,a5,d134 <__fputwc+0x11c>
    d090:	08050e63          	beqz	a0,d12c <__fputwc+0x114>
    d094:	00c14703          	lbu	a4,12(sp)
    d098:	00000493          	li	s1,0
    d09c:	fff00a13          	li	s4,-1
    d0a0:	00a00a93          	li	s5,10
    d0a4:	0280006f          	j	d0cc <__fputwc+0xb4>
    d0a8:	00042783          	lw	a5,0(s0)
    d0ac:	00178693          	addi	a3,a5,1
    d0b0:	00d42023          	sw	a3,0(s0)
    d0b4:	00e78023          	sb	a4,0(a5)
    d0b8:	00148493          	addi	s1,s1,1
    d0bc:	00c10793          	addi	a5,sp,12
    d0c0:	009787b3          	add	a5,a5,s1
    d0c4:	0724f463          	bgeu	s1,s2,d12c <__fputwc+0x114>
    d0c8:	0007c703          	lbu	a4,0(a5)
    d0cc:	00842783          	lw	a5,8(s0)
    d0d0:	fff78793          	addi	a5,a5,-1
    d0d4:	00f42423          	sw	a5,8(s0)
    d0d8:	fc07d8e3          	bgez	a5,d0a8 <__fputwc+0x90>
    d0dc:	01842683          	lw	a3,24(s0)
    d0e0:	00070593          	mv	a1,a4
    d0e4:	00040613          	mv	a2,s0
    d0e8:	000b0513          	mv	a0,s6
    d0ec:	00d7c463          	blt	a5,a3,d0f4 <__fputwc+0xdc>
    d0f0:	fb571ce3          	bne	a4,s5,d0a8 <__fputwc+0x90>
    d0f4:	2a4020ef          	jal	ra,f398 <__swbuf_r>
    d0f8:	fd4510e3          	bne	a0,s4,d0b8 <__fputwc+0xa0>
    d0fc:	fff00913          	li	s2,-1
    d100:	02c12083          	lw	ra,44(sp)
    d104:	02812403          	lw	s0,40(sp)
    d108:	02412483          	lw	s1,36(sp)
    d10c:	01c12983          	lw	s3,28(sp)
    d110:	01812a03          	lw	s4,24(sp)
    d114:	01412a83          	lw	s5,20(sp)
    d118:	01012b03          	lw	s6,16(sp)
    d11c:	00090513          	mv	a0,s2
    d120:	02012903          	lw	s2,32(sp)
    d124:	03010113          	addi	sp,sp,48
    d128:	00008067          	ret
    d12c:	00098913          	mv	s2,s3
    d130:	fd1ff06f          	j	d100 <__fputwc+0xe8>
    d134:	00c45783          	lhu	a5,12(s0)
    d138:	0407e793          	ori	a5,a5,64
    d13c:	00f41623          	sh	a5,12(s0)
    d140:	fc1ff06f          	j	d100 <__fputwc+0xe8>

0000d144 <_fputwc_r>:
    d144:	00c61783          	lh	a5,12(a2)
    d148:	01279713          	slli	a4,a5,0x12
    d14c:	02074063          	bltz	a4,d16c <_fputwc_r+0x28>
    d150:	06462703          	lw	a4,100(a2)
    d154:	000026b7          	lui	a3,0x2
    d158:	00d7e7b3          	or	a5,a5,a3
    d15c:	000026b7          	lui	a3,0x2
    d160:	00d76733          	or	a4,a4,a3
    d164:	00f61623          	sh	a5,12(a2)
    d168:	06e62223          	sw	a4,100(a2)
    d16c:	eadff06f          	j	d018 <__fputwc>

0000d170 <fputwc>:
    d170:	fe010113          	addi	sp,sp,-32
    d174:	00812c23          	sw	s0,24(sp)
    d178:	00112e23          	sw	ra,28(sp)
    d17c:	00013417          	auipc	s0,0x13
    d180:	eb442403          	lw	s0,-332(s0) # 20030 <_impure_ptr>
    d184:	00058613          	mv	a2,a1
    d188:	00050593          	mv	a1,a0
    d18c:	00040663          	beqz	s0,d198 <fputwc+0x28>
    d190:	03842783          	lw	a5,56(s0)
    d194:	04078063          	beqz	a5,d1d4 <fputwc+0x64>
    d198:	00c61783          	lh	a5,12(a2)
    d19c:	01279713          	slli	a4,a5,0x12
    d1a0:	02074063          	bltz	a4,d1c0 <fputwc+0x50>
    d1a4:	06462703          	lw	a4,100(a2)
    d1a8:	000026b7          	lui	a3,0x2
    d1ac:	00d7e7b3          	or	a5,a5,a3
    d1b0:	000026b7          	lui	a3,0x2
    d1b4:	00d76733          	or	a4,a4,a3
    d1b8:	00f61623          	sh	a5,12(a2)
    d1bc:	06e62223          	sw	a4,100(a2)
    d1c0:	00040513          	mv	a0,s0
    d1c4:	01812403          	lw	s0,24(sp)
    d1c8:	01c12083          	lw	ra,28(sp)
    d1cc:	02010113          	addi	sp,sp,32
    d1d0:	e49ff06f          	j	d018 <__fputwc>
    d1d4:	00a12423          	sw	a0,8(sp)
    d1d8:	00040513          	mv	a0,s0
    d1dc:	00c12623          	sw	a2,12(sp)
    d1e0:	b18f60ef          	jal	ra,34f8 <__sinit>
    d1e4:	00c12603          	lw	a2,12(sp)
    d1e8:	00812583          	lw	a1,8(sp)
    d1ec:	fadff06f          	j	d198 <fputwc+0x28>

0000d1f0 <_fstat_r>:
    d1f0:	ff010113          	addi	sp,sp,-16
    d1f4:	00058713          	mv	a4,a1
    d1f8:	00812423          	sw	s0,8(sp)
    d1fc:	00060593          	mv	a1,a2
    d200:	00050413          	mv	s0,a0
    d204:	00070513          	mv	a0,a4
    d208:	00014797          	auipc	a5,0x14
    d20c:	6807a623          	sw	zero,1676(a5) # 21894 <errno>
    d210:	00112623          	sw	ra,12(sp)
    d214:	634070ef          	jal	ra,14848 <_fstat>
    d218:	fff00793          	li	a5,-1
    d21c:	00f50a63          	beq	a0,a5,d230 <_fstat_r+0x40>
    d220:	00c12083          	lw	ra,12(sp)
    d224:	00812403          	lw	s0,8(sp)
    d228:	01010113          	addi	sp,sp,16
    d22c:	00008067          	ret
    d230:	00014797          	auipc	a5,0x14
    d234:	6647a783          	lw	a5,1636(a5) # 21894 <errno>
    d238:	fe0784e3          	beqz	a5,d220 <_fstat_r+0x30>
    d23c:	00c12083          	lw	ra,12(sp)
    d240:	00f42023          	sw	a5,0(s0)
    d244:	00812403          	lw	s0,8(sp)
    d248:	01010113          	addi	sp,sp,16
    d24c:	00008067          	ret

0000d250 <__sfvwrite_r>:
    d250:	00862783          	lw	a5,8(a2)
    d254:	30078863          	beqz	a5,d564 <__sfvwrite_r+0x314>
    d258:	00c5d783          	lhu	a5,12(a1)
    d25c:	fd010113          	addi	sp,sp,-48
    d260:	02812423          	sw	s0,40(sp)
    d264:	01412c23          	sw	s4,24(sp)
    d268:	01512a23          	sw	s5,20(sp)
    d26c:	02112623          	sw	ra,44(sp)
    d270:	02912223          	sw	s1,36(sp)
    d274:	03212023          	sw	s2,32(sp)
    d278:	01312e23          	sw	s3,28(sp)
    d27c:	01612823          	sw	s6,16(sp)
    d280:	01712623          	sw	s7,12(sp)
    d284:	01812423          	sw	s8,8(sp)
    d288:	01912223          	sw	s9,4(sp)
    d28c:	01a12023          	sw	s10,0(sp)
    d290:	0087f713          	andi	a4,a5,8
    d294:	00060a13          	mv	s4,a2
    d298:	00050a93          	mv	s5,a0
    d29c:	00058413          	mv	s0,a1
    d2a0:	08070663          	beqz	a4,d32c <__sfvwrite_r+0xdc>
    d2a4:	0105a703          	lw	a4,16(a1)
    d2a8:	08070263          	beqz	a4,d32c <__sfvwrite_r+0xdc>
    d2ac:	0027f713          	andi	a4,a5,2
    d2b0:	000a2483          	lw	s1,0(s4)
    d2b4:	08070c63          	beqz	a4,d34c <__sfvwrite_r+0xfc>
    d2b8:	02442783          	lw	a5,36(s0)
    d2bc:	01c42583          	lw	a1,28(s0)
    d2c0:	80000b37          	lui	s6,0x80000
    d2c4:	00000993          	li	s3,0
    d2c8:	00000913          	li	s2,0
    d2cc:	c00b4b13          	xori	s6,s6,-1024
    d2d0:	00098613          	mv	a2,s3
    d2d4:	000a8513          	mv	a0,s5
    d2d8:	04090263          	beqz	s2,d31c <__sfvwrite_r+0xcc>
    d2dc:	00090693          	mv	a3,s2
    d2e0:	012b7463          	bgeu	s6,s2,d2e8 <__sfvwrite_r+0x98>
    d2e4:	000b0693          	mv	a3,s6
    d2e8:	000780e7          	jalr	a5
    d2ec:	26a05263          	blez	a0,d550 <__sfvwrite_r+0x300>
    d2f0:	008a2783          	lw	a5,8(s4)
    d2f4:	00a989b3          	add	s3,s3,a0
    d2f8:	40a90933          	sub	s2,s2,a0
    d2fc:	40a78533          	sub	a0,a5,a0
    d300:	00aa2423          	sw	a0,8(s4)
    d304:	20050063          	beqz	a0,d504 <__sfvwrite_r+0x2b4>
    d308:	02442783          	lw	a5,36(s0)
    d30c:	01c42583          	lw	a1,28(s0)
    d310:	00098613          	mv	a2,s3
    d314:	000a8513          	mv	a0,s5
    d318:	fc0912e3          	bnez	s2,d2dc <__sfvwrite_r+0x8c>
    d31c:	0004a983          	lw	s3,0(s1)
    d320:	0044a903          	lw	s2,4(s1)
    d324:	00848493          	addi	s1,s1,8
    d328:	fa9ff06f          	j	d2d0 <__sfvwrite_r+0x80>
    d32c:	00040593          	mv	a1,s0
    d330:	000a8513          	mv	a0,s5
    d334:	9b9f50ef          	jal	ra,2cec <__swsetup_r>
    d338:	3a051463          	bnez	a0,d6e0 <__sfvwrite_r+0x490>
    d33c:	00c45783          	lhu	a5,12(s0)
    d340:	000a2483          	lw	s1,0(s4)
    d344:	0027f713          	andi	a4,a5,2
    d348:	f60718e3          	bnez	a4,d2b8 <__sfvwrite_r+0x68>
    d34c:	0017f713          	andi	a4,a5,1
    d350:	12071663          	bnez	a4,d47c <__sfvwrite_r+0x22c>
    d354:	00842c83          	lw	s9,8(s0)
    d358:	00042503          	lw	a0,0(s0)
    d35c:	80000b37          	lui	s6,0x80000
    d360:	ffeb4b93          	xori	s7,s6,-2
    d364:	00000c13          	li	s8,0
    d368:	00000913          	li	s2,0
    d36c:	fffb4b13          	not	s6,s6
    d370:	0e090e63          	beqz	s2,d46c <__sfvwrite_r+0x21c>
    d374:	2007f713          	andi	a4,a5,512
    d378:	24070863          	beqz	a4,d5c8 <__sfvwrite_r+0x378>
    d37c:	000c8d13          	mv	s10,s9
    d380:	2d996e63          	bltu	s2,s9,d65c <__sfvwrite_r+0x40c>
    d384:	4807f713          	andi	a4,a5,1152
    d388:	08070a63          	beqz	a4,d41c <__sfvwrite_r+0x1cc>
    d38c:	01442983          	lw	s3,20(s0)
    d390:	01042583          	lw	a1,16(s0)
    d394:	00190713          	addi	a4,s2,1
    d398:	00199693          	slli	a3,s3,0x1
    d39c:	013686b3          	add	a3,a3,s3
    d3a0:	01f6d993          	srli	s3,a3,0x1f
    d3a4:	40b50d33          	sub	s10,a0,a1
    d3a8:	00d989b3          	add	s3,s3,a3
    d3ac:	4019d993          	srai	s3,s3,0x1
    d3b0:	01a70733          	add	a4,a4,s10
    d3b4:	00098613          	mv	a2,s3
    d3b8:	00e9f663          	bgeu	s3,a4,d3c4 <__sfvwrite_r+0x174>
    d3bc:	00070993          	mv	s3,a4
    d3c0:	00070613          	mv	a2,a4
    d3c4:	4007f793          	andi	a5,a5,1024
    d3c8:	2c078663          	beqz	a5,d694 <__sfvwrite_r+0x444>
    d3cc:	00060593          	mv	a1,a2
    d3d0:	000a8513          	mv	a0,s5
    d3d4:	e7cf90ef          	jal	ra,6a50 <_malloc_r>
    d3d8:	00050c93          	mv	s9,a0
    d3dc:	2e050a63          	beqz	a0,d6d0 <__sfvwrite_r+0x480>
    d3e0:	01042583          	lw	a1,16(s0)
    d3e4:	000d0613          	mv	a2,s10
    d3e8:	3bc000ef          	jal	ra,d7a4 <memcpy>
    d3ec:	00c45783          	lhu	a5,12(s0)
    d3f0:	b7f7f793          	andi	a5,a5,-1153
    d3f4:	0807e793          	ori	a5,a5,128
    d3f8:	00f41623          	sh	a5,12(s0)
    d3fc:	01ac8533          	add	a0,s9,s10
    d400:	41a987b3          	sub	a5,s3,s10
    d404:	01942823          	sw	s9,16(s0)
    d408:	00a42023          	sw	a0,0(s0)
    d40c:	01342a23          	sw	s3,20(s0)
    d410:	00090c93          	mv	s9,s2
    d414:	00f42423          	sw	a5,8(s0)
    d418:	00090d13          	mv	s10,s2
    d41c:	000d0613          	mv	a2,s10
    d420:	000c0593          	mv	a1,s8
    d424:	4a8000ef          	jal	ra,d8cc <memmove>
    d428:	00842703          	lw	a4,8(s0)
    d42c:	00042783          	lw	a5,0(s0)
    d430:	00090993          	mv	s3,s2
    d434:	41970cb3          	sub	s9,a4,s9
    d438:	01a787b3          	add	a5,a5,s10
    d43c:	01942423          	sw	s9,8(s0)
    d440:	00f42023          	sw	a5,0(s0)
    d444:	00000913          	li	s2,0
    d448:	008a2603          	lw	a2,8(s4)
    d44c:	013c0c33          	add	s8,s8,s3
    d450:	413609b3          	sub	s3,a2,s3
    d454:	013a2423          	sw	s3,8(s4)
    d458:	0a098663          	beqz	s3,d504 <__sfvwrite_r+0x2b4>
    d45c:	00842c83          	lw	s9,8(s0)
    d460:	00042503          	lw	a0,0(s0)
    d464:	00c45783          	lhu	a5,12(s0)
    d468:	f00916e3          	bnez	s2,d374 <__sfvwrite_r+0x124>
    d46c:	0004ac03          	lw	s8,0(s1)
    d470:	0044a903          	lw	s2,4(s1)
    d474:	00848493          	addi	s1,s1,8
    d478:	ef9ff06f          	j	d370 <__sfvwrite_r+0x120>
    d47c:	00000b13          	li	s6,0
    d480:	00000513          	li	a0,0
    d484:	00000c13          	li	s8,0
    d488:	00000993          	li	s3,0
    d48c:	0e098063          	beqz	s3,d56c <__sfvwrite_r+0x31c>
    d490:	0e050663          	beqz	a0,d57c <__sfvwrite_r+0x32c>
    d494:	000b0793          	mv	a5,s6
    d498:	00098b93          	mv	s7,s3
    d49c:	0137f463          	bgeu	a5,s3,d4a4 <__sfvwrite_r+0x254>
    d4a0:	00078b93          	mv	s7,a5
    d4a4:	00042503          	lw	a0,0(s0)
    d4a8:	01042783          	lw	a5,16(s0)
    d4ac:	01442683          	lw	a3,20(s0)
    d4b0:	00a7f863          	bgeu	a5,a0,d4c0 <__sfvwrite_r+0x270>
    d4b4:	00842903          	lw	s2,8(s0)
    d4b8:	01268933          	add	s2,a3,s2
    d4bc:	0f794063          	blt	s2,s7,d59c <__sfvwrite_r+0x34c>
    d4c0:	1adbc463          	blt	s7,a3,d668 <__sfvwrite_r+0x418>
    d4c4:	02442783          	lw	a5,36(s0)
    d4c8:	01c42583          	lw	a1,28(s0)
    d4cc:	000c0613          	mv	a2,s8
    d4d0:	000a8513          	mv	a0,s5
    d4d4:	000780e7          	jalr	a5
    d4d8:	00050913          	mv	s2,a0
    d4dc:	06a05a63          	blez	a0,d550 <__sfvwrite_r+0x300>
    d4e0:	412b0b33          	sub	s6,s6,s2
    d4e4:	00100513          	li	a0,1
    d4e8:	040b0c63          	beqz	s6,d540 <__sfvwrite_r+0x2f0>
    d4ec:	008a2603          	lw	a2,8(s4)
    d4f0:	012c0c33          	add	s8,s8,s2
    d4f4:	412989b3          	sub	s3,s3,s2
    d4f8:	41260933          	sub	s2,a2,s2
    d4fc:	012a2423          	sw	s2,8(s4)
    d500:	f80916e3          	bnez	s2,d48c <__sfvwrite_r+0x23c>
    d504:	00000513          	li	a0,0
    d508:	02c12083          	lw	ra,44(sp)
    d50c:	02812403          	lw	s0,40(sp)
    d510:	02412483          	lw	s1,36(sp)
    d514:	02012903          	lw	s2,32(sp)
    d518:	01c12983          	lw	s3,28(sp)
    d51c:	01812a03          	lw	s4,24(sp)
    d520:	01412a83          	lw	s5,20(sp)
    d524:	01012b03          	lw	s6,16(sp)
    d528:	00c12b83          	lw	s7,12(sp)
    d52c:	00812c03          	lw	s8,8(sp)
    d530:	00412c83          	lw	s9,4(sp)
    d534:	00012d03          	lw	s10,0(sp)
    d538:	03010113          	addi	sp,sp,48
    d53c:	00008067          	ret
    d540:	00040593          	mv	a1,s0
    d544:	000a8513          	mv	a0,s5
    d548:	b75f50ef          	jal	ra,30bc <_fflush_r>
    d54c:	fa0500e3          	beqz	a0,d4ec <__sfvwrite_r+0x29c>
    d550:	00c41783          	lh	a5,12(s0)
    d554:	0407e793          	ori	a5,a5,64
    d558:	00f41623          	sh	a5,12(s0)
    d55c:	fff00513          	li	a0,-1
    d560:	fa9ff06f          	j	d508 <__sfvwrite_r+0x2b8>
    d564:	00000513          	li	a0,0
    d568:	00008067          	ret
    d56c:	0044a983          	lw	s3,4(s1)
    d570:	0004ac03          	lw	s8,0(s1)
    d574:	00848493          	addi	s1,s1,8
    d578:	fe098ae3          	beqz	s3,d56c <__sfvwrite_r+0x31c>
    d57c:	00098613          	mv	a2,s3
    d580:	00a00593          	li	a1,10
    d584:	000c0513          	mv	a0,s8
    d588:	d09f90ef          	jal	ra,7290 <memchr>
    d58c:	12050c63          	beqz	a0,d6c4 <__sfvwrite_r+0x474>
    d590:	00150513          	addi	a0,a0,1
    d594:	41850b33          	sub	s6,a0,s8
    d598:	efdff06f          	j	d494 <__sfvwrite_r+0x244>
    d59c:	000c0593          	mv	a1,s8
    d5a0:	00090613          	mv	a2,s2
    d5a4:	328000ef          	jal	ra,d8cc <memmove>
    d5a8:	00042783          	lw	a5,0(s0)
    d5ac:	00040593          	mv	a1,s0
    d5b0:	000a8513          	mv	a0,s5
    d5b4:	012787b3          	add	a5,a5,s2
    d5b8:	00f42023          	sw	a5,0(s0)
    d5bc:	b01f50ef          	jal	ra,30bc <_fflush_r>
    d5c0:	f20500e3          	beqz	a0,d4e0 <__sfvwrite_r+0x290>
    d5c4:	f8dff06f          	j	d550 <__sfvwrite_r+0x300>
    d5c8:	01042783          	lw	a5,16(s0)
    d5cc:	04a7e263          	bltu	a5,a0,d610 <__sfvwrite_r+0x3c0>
    d5d0:	01442783          	lw	a5,20(s0)
    d5d4:	02f96e63          	bltu	s2,a5,d610 <__sfvwrite_r+0x3c0>
    d5d8:	00090693          	mv	a3,s2
    d5dc:	012bf463          	bgeu	s7,s2,d5e4 <__sfvwrite_r+0x394>
    d5e0:	000b0693          	mv	a3,s6
    d5e4:	02f6c6b3          	div	a3,a3,a5
    d5e8:	02442703          	lw	a4,36(s0)
    d5ec:	01c42583          	lw	a1,28(s0)
    d5f0:	000c0613          	mv	a2,s8
    d5f4:	000a8513          	mv	a0,s5
    d5f8:	02f686b3          	mul	a3,a3,a5
    d5fc:	000700e7          	jalr	a4
    d600:	00050993          	mv	s3,a0
    d604:	f4a056e3          	blez	a0,d550 <__sfvwrite_r+0x300>
    d608:	41390933          	sub	s2,s2,s3
    d60c:	e3dff06f          	j	d448 <__sfvwrite_r+0x1f8>
    d610:	000c8993          	mv	s3,s9
    d614:	01997463          	bgeu	s2,s9,d61c <__sfvwrite_r+0x3cc>
    d618:	00090993          	mv	s3,s2
    d61c:	00098613          	mv	a2,s3
    d620:	000c0593          	mv	a1,s8
    d624:	2a8000ef          	jal	ra,d8cc <memmove>
    d628:	00842783          	lw	a5,8(s0)
    d62c:	00042703          	lw	a4,0(s0)
    d630:	413787b3          	sub	a5,a5,s3
    d634:	01370733          	add	a4,a4,s3
    d638:	00f42423          	sw	a5,8(s0)
    d63c:	00e42023          	sw	a4,0(s0)
    d640:	fc0794e3          	bnez	a5,d608 <__sfvwrite_r+0x3b8>
    d644:	00040593          	mv	a1,s0
    d648:	000a8513          	mv	a0,s5
    d64c:	a71f50ef          	jal	ra,30bc <_fflush_r>
    d650:	f00510e3          	bnez	a0,d550 <__sfvwrite_r+0x300>
    d654:	41390933          	sub	s2,s2,s3
    d658:	df1ff06f          	j	d448 <__sfvwrite_r+0x1f8>
    d65c:	00090c93          	mv	s9,s2
    d660:	00090d13          	mv	s10,s2
    d664:	db9ff06f          	j	d41c <__sfvwrite_r+0x1cc>
    d668:	000b8613          	mv	a2,s7
    d66c:	000c0593          	mv	a1,s8
    d670:	25c000ef          	jal	ra,d8cc <memmove>
    d674:	00842703          	lw	a4,8(s0)
    d678:	00042783          	lw	a5,0(s0)
    d67c:	000b8913          	mv	s2,s7
    d680:	41770733          	sub	a4,a4,s7
    d684:	017787b3          	add	a5,a5,s7
    d688:	00e42423          	sw	a4,8(s0)
    d68c:	00f42023          	sw	a5,0(s0)
    d690:	e51ff06f          	j	d4e0 <__sfvwrite_r+0x290>
    d694:	000a8513          	mv	a0,s5
    d698:	3b8000ef          	jal	ra,da50 <_realloc_r>
    d69c:	00050c93          	mv	s9,a0
    d6a0:	d4051ee3          	bnez	a0,d3fc <__sfvwrite_r+0x1ac>
    d6a4:	01042583          	lw	a1,16(s0)
    d6a8:	000a8513          	mv	a0,s5
    d6ac:	fd5f50ef          	jal	ra,3680 <_free_r>
    d6b0:	00c41783          	lh	a5,12(s0)
    d6b4:	00c00713          	li	a4,12
    d6b8:	00eaa023          	sw	a4,0(s5)
    d6bc:	f7f7f793          	andi	a5,a5,-129
    d6c0:	e95ff06f          	j	d554 <__sfvwrite_r+0x304>
    d6c4:	00198793          	addi	a5,s3,1
    d6c8:	00078b13          	mv	s6,a5
    d6cc:	dcdff06f          	j	d498 <__sfvwrite_r+0x248>
    d6d0:	00c00713          	li	a4,12
    d6d4:	00c41783          	lh	a5,12(s0)
    d6d8:	00eaa023          	sw	a4,0(s5)
    d6dc:	e79ff06f          	j	d554 <__sfvwrite_r+0x304>
    d6e0:	fff00513          	li	a0,-1
    d6e4:	e25ff06f          	j	d508 <__sfvwrite_r+0x2b8>

0000d6e8 <_isatty_r>:
    d6e8:	ff010113          	addi	sp,sp,-16
    d6ec:	00812423          	sw	s0,8(sp)
    d6f0:	00050413          	mv	s0,a0
    d6f4:	00058513          	mv	a0,a1
    d6f8:	00014797          	auipc	a5,0x14
    d6fc:	1807ae23          	sw	zero,412(a5) # 21894 <errno>
    d700:	00112623          	sw	ra,12(sp)
    d704:	1ac070ef          	jal	ra,148b0 <_isatty>
    d708:	fff00793          	li	a5,-1
    d70c:	00f50a63          	beq	a0,a5,d720 <_isatty_r+0x38>
    d710:	00c12083          	lw	ra,12(sp)
    d714:	00812403          	lw	s0,8(sp)
    d718:	01010113          	addi	sp,sp,16
    d71c:	00008067          	ret
    d720:	00014797          	auipc	a5,0x14
    d724:	1747a783          	lw	a5,372(a5) # 21894 <errno>
    d728:	fe0784e3          	beqz	a5,d710 <_isatty_r+0x28>
    d72c:	00c12083          	lw	ra,12(sp)
    d730:	00f42023          	sw	a5,0(s0)
    d734:	00812403          	lw	s0,8(sp)
    d738:	01010113          	addi	sp,sp,16
    d73c:	00008067          	ret

0000d740 <_lseek_r>:
    d740:	ff010113          	addi	sp,sp,-16
    d744:	00058713          	mv	a4,a1
    d748:	00812423          	sw	s0,8(sp)
    d74c:	00060593          	mv	a1,a2
    d750:	00050413          	mv	s0,a0
    d754:	00068613          	mv	a2,a3
    d758:	00070513          	mv	a0,a4
    d75c:	00014797          	auipc	a5,0x14
    d760:	1207ac23          	sw	zero,312(a5) # 21894 <errno>
    d764:	00112623          	sw	ra,12(sp)
    d768:	0f0070ef          	jal	ra,14858 <_lseek>
    d76c:	fff00793          	li	a5,-1
    d770:	00f50a63          	beq	a0,a5,d784 <_lseek_r+0x44>
    d774:	00c12083          	lw	ra,12(sp)
    d778:	00812403          	lw	s0,8(sp)
    d77c:	01010113          	addi	sp,sp,16
    d780:	00008067          	ret
    d784:	00014797          	auipc	a5,0x14
    d788:	1107a783          	lw	a5,272(a5) # 21894 <errno>
    d78c:	fe0784e3          	beqz	a5,d774 <_lseek_r+0x34>
    d790:	00c12083          	lw	ra,12(sp)
    d794:	00f42023          	sw	a5,0(s0)
    d798:	00812403          	lw	s0,8(sp)
    d79c:	01010113          	addi	sp,sp,16
    d7a0:	00008067          	ret

0000d7a4 <memcpy>:
    d7a4:	00a5c7b3          	xor	a5,a1,a0
    d7a8:	0037f793          	andi	a5,a5,3
    d7ac:	00c508b3          	add	a7,a0,a2
    d7b0:	06079663          	bnez	a5,d81c <memcpy+0x78>
    d7b4:	00300793          	li	a5,3
    d7b8:	06c7f263          	bgeu	a5,a2,d81c <memcpy+0x78>
    d7bc:	00357793          	andi	a5,a0,3
    d7c0:	00050713          	mv	a4,a0
    d7c4:	0c079a63          	bnez	a5,d898 <memcpy+0xf4>
    d7c8:	ffc8f613          	andi	a2,a7,-4
    d7cc:	40e606b3          	sub	a3,a2,a4
    d7d0:	02000793          	li	a5,32
    d7d4:	02000293          	li	t0,32
    d7d8:	06d7c263          	blt	a5,a3,d83c <memcpy+0x98>
    d7dc:	00058693          	mv	a3,a1
    d7e0:	00070793          	mv	a5,a4
    d7e4:	02c77863          	bgeu	a4,a2,d814 <memcpy+0x70>
    d7e8:	0006a803          	lw	a6,0(a3) # 2000 <_vfprintf_r+0x1e54>
    d7ec:	00478793          	addi	a5,a5,4
    d7f0:	00468693          	addi	a3,a3,4
    d7f4:	ff07ae23          	sw	a6,-4(a5)
    d7f8:	fec7e8e3          	bltu	a5,a2,d7e8 <memcpy+0x44>
    d7fc:	fff60793          	addi	a5,a2,-1
    d800:	40e787b3          	sub	a5,a5,a4
    d804:	ffc7f793          	andi	a5,a5,-4
    d808:	00478793          	addi	a5,a5,4
    d80c:	00f70733          	add	a4,a4,a5
    d810:	00f585b3          	add	a1,a1,a5
    d814:	01176863          	bltu	a4,a7,d824 <memcpy+0x80>
    d818:	00008067          	ret
    d81c:	00050713          	mv	a4,a0
    d820:	ff157ce3          	bgeu	a0,a7,d818 <memcpy+0x74>
    d824:	0005c783          	lbu	a5,0(a1)
    d828:	00170713          	addi	a4,a4,1
    d82c:	00158593          	addi	a1,a1,1
    d830:	fef70fa3          	sb	a5,-1(a4)
    d834:	ff1768e3          	bltu	a4,a7,d824 <memcpy+0x80>
    d838:	00008067          	ret
    d83c:	0045a683          	lw	a3,4(a1)
    d840:	01c5a783          	lw	a5,28(a1)
    d844:	0005af83          	lw	t6,0(a1)
    d848:	0085af03          	lw	t5,8(a1)
    d84c:	00c5ae83          	lw	t4,12(a1)
    d850:	0105ae03          	lw	t3,16(a1)
    d854:	0145a303          	lw	t1,20(a1)
    d858:	0185a803          	lw	a6,24(a1)
    d85c:	00d72223          	sw	a3,4(a4)
    d860:	0205a683          	lw	a3,32(a1)
    d864:	01f72023          	sw	t6,0(a4)
    d868:	01e72423          	sw	t5,8(a4)
    d86c:	01d72623          	sw	t4,12(a4)
    d870:	01c72823          	sw	t3,16(a4)
    d874:	00672a23          	sw	t1,20(a4)
    d878:	01072c23          	sw	a6,24(a4)
    d87c:	00f72e23          	sw	a5,28(a4)
    d880:	02470713          	addi	a4,a4,36
    d884:	40e607b3          	sub	a5,a2,a4
    d888:	fed72e23          	sw	a3,-4(a4)
    d88c:	02458593          	addi	a1,a1,36
    d890:	faf2c6e3          	blt	t0,a5,d83c <memcpy+0x98>
    d894:	f49ff06f          	j	d7dc <memcpy+0x38>
    d898:	0005c683          	lbu	a3,0(a1)
    d89c:	00170713          	addi	a4,a4,1
    d8a0:	00377793          	andi	a5,a4,3
    d8a4:	fed70fa3          	sb	a3,-1(a4)
    d8a8:	00158593          	addi	a1,a1,1
    d8ac:	f0078ee3          	beqz	a5,d7c8 <memcpy+0x24>
    d8b0:	0005c683          	lbu	a3,0(a1)
    d8b4:	00170713          	addi	a4,a4,1
    d8b8:	00377793          	andi	a5,a4,3
    d8bc:	fed70fa3          	sb	a3,-1(a4)
    d8c0:	00158593          	addi	a1,a1,1
    d8c4:	fc079ae3          	bnez	a5,d898 <memcpy+0xf4>
    d8c8:	f01ff06f          	j	d7c8 <memcpy+0x24>

0000d8cc <memmove>:
    d8cc:	02a5f663          	bgeu	a1,a0,d8f8 <memmove+0x2c>
    d8d0:	00c587b3          	add	a5,a1,a2
    d8d4:	02f57263          	bgeu	a0,a5,d8f8 <memmove+0x2c>
    d8d8:	00c50733          	add	a4,a0,a2
    d8dc:	0e060a63          	beqz	a2,d9d0 <memmove+0x104>
    d8e0:	fff7c683          	lbu	a3,-1(a5)
    d8e4:	fff78793          	addi	a5,a5,-1
    d8e8:	fff70713          	addi	a4,a4,-1
    d8ec:	00d70023          	sb	a3,0(a4)
    d8f0:	fef598e3          	bne	a1,a5,d8e0 <memmove+0x14>
    d8f4:	00008067          	ret
    d8f8:	00f00793          	li	a5,15
    d8fc:	02c7e863          	bltu	a5,a2,d92c <memmove+0x60>
    d900:	00050793          	mv	a5,a0
    d904:	fff60693          	addi	a3,a2,-1
    d908:	0c060c63          	beqz	a2,d9e0 <memmove+0x114>
    d90c:	00168693          	addi	a3,a3,1
    d910:	00d786b3          	add	a3,a5,a3
    d914:	0005c703          	lbu	a4,0(a1)
    d918:	00178793          	addi	a5,a5,1
    d91c:	00158593          	addi	a1,a1,1
    d920:	fee78fa3          	sb	a4,-1(a5)
    d924:	fed798e3          	bne	a5,a3,d914 <memmove+0x48>
    d928:	00008067          	ret
    d92c:	00a5e7b3          	or	a5,a1,a0
    d930:	0037f793          	andi	a5,a5,3
    d934:	0a079063          	bnez	a5,d9d4 <memmove+0x108>
    d938:	ff060893          	addi	a7,a2,-16
    d93c:	ff08f893          	andi	a7,a7,-16
    d940:	01088893          	addi	a7,a7,16
    d944:	01150833          	add	a6,a0,a7
    d948:	00058713          	mv	a4,a1
    d94c:	00050793          	mv	a5,a0
    d950:	00072683          	lw	a3,0(a4)
    d954:	01070713          	addi	a4,a4,16
    d958:	01078793          	addi	a5,a5,16
    d95c:	fed7a823          	sw	a3,-16(a5)
    d960:	ff472683          	lw	a3,-12(a4)
    d964:	fed7aa23          	sw	a3,-12(a5)
    d968:	ff872683          	lw	a3,-8(a4)
    d96c:	fed7ac23          	sw	a3,-8(a5)
    d970:	ffc72683          	lw	a3,-4(a4)
    d974:	fed7ae23          	sw	a3,-4(a5)
    d978:	fcf81ce3          	bne	a6,a5,d950 <memmove+0x84>
    d97c:	00c67713          	andi	a4,a2,12
    d980:	011585b3          	add	a1,a1,a7
    d984:	00f67813          	andi	a6,a2,15
    d988:	04070e63          	beqz	a4,d9e4 <memmove+0x118>
    d98c:	00058713          	mv	a4,a1
    d990:	00078893          	mv	a7,a5
    d994:	00300e13          	li	t3,3
    d998:	00072303          	lw	t1,0(a4)
    d99c:	00470713          	addi	a4,a4,4
    d9a0:	40e806b3          	sub	a3,a6,a4
    d9a4:	0068a023          	sw	t1,0(a7)
    d9a8:	00d586b3          	add	a3,a1,a3
    d9ac:	00488893          	addi	a7,a7,4
    d9b0:	fede64e3          	bltu	t3,a3,d998 <memmove+0xcc>
    d9b4:	ffc80713          	addi	a4,a6,-4
    d9b8:	ffc77713          	andi	a4,a4,-4
    d9bc:	00470713          	addi	a4,a4,4
    d9c0:	00367613          	andi	a2,a2,3
    d9c4:	00e787b3          	add	a5,a5,a4
    d9c8:	00e585b3          	add	a1,a1,a4
    d9cc:	f39ff06f          	j	d904 <memmove+0x38>
    d9d0:	00008067          	ret
    d9d4:	fff60693          	addi	a3,a2,-1
    d9d8:	00050793          	mv	a5,a0
    d9dc:	f31ff06f          	j	d90c <memmove+0x40>
    d9e0:	00008067          	ret
    d9e4:	00080613          	mv	a2,a6
    d9e8:	f1dff06f          	j	d904 <memmove+0x38>

0000d9ec <_read_r>:
    d9ec:	ff010113          	addi	sp,sp,-16
    d9f0:	00058713          	mv	a4,a1
    d9f4:	00812423          	sw	s0,8(sp)
    d9f8:	00060593          	mv	a1,a2
    d9fc:	00050413          	mv	s0,a0
    da00:	00068613          	mv	a2,a3
    da04:	00070513          	mv	a0,a4
    da08:	00014797          	auipc	a5,0x14
    da0c:	e807a623          	sw	zero,-372(a5) # 21894 <errno>
    da10:	00112623          	sw	ra,12(sp)
    da14:	64d060ef          	jal	ra,14860 <_read>
    da18:	fff00793          	li	a5,-1
    da1c:	00f50a63          	beq	a0,a5,da30 <_read_r+0x44>
    da20:	00c12083          	lw	ra,12(sp)
    da24:	00812403          	lw	s0,8(sp)
    da28:	01010113          	addi	sp,sp,16
    da2c:	00008067          	ret
    da30:	00014797          	auipc	a5,0x14
    da34:	e647a783          	lw	a5,-412(a5) # 21894 <errno>
    da38:	fe0784e3          	beqz	a5,da20 <_read_r+0x34>
    da3c:	00c12083          	lw	ra,12(sp)
    da40:	00f42023          	sw	a5,0(s0)
    da44:	00812403          	lw	s0,8(sp)
    da48:	01010113          	addi	sp,sp,16
    da4c:	00008067          	ret

0000da50 <_realloc_r>:
    da50:	fd010113          	addi	sp,sp,-48
    da54:	03212023          	sw	s2,32(sp)
    da58:	02112623          	sw	ra,44(sp)
    da5c:	02812423          	sw	s0,40(sp)
    da60:	02912223          	sw	s1,36(sp)
    da64:	01312e23          	sw	s3,28(sp)
    da68:	01412c23          	sw	s4,24(sp)
    da6c:	01512a23          	sw	s5,20(sp)
    da70:	01612823          	sw	s6,16(sp)
    da74:	01712623          	sw	s7,12(sp)
    da78:	01812423          	sw	s8,8(sp)
    da7c:	00060913          	mv	s2,a2
    da80:	1c058663          	beqz	a1,dc4c <_realloc_r+0x1fc>
    da84:	00058413          	mv	s0,a1
    da88:	00050993          	mv	s3,a0
    da8c:	9a9f90ef          	jal	ra,7434 <__malloc_lock>
    da90:	00b90493          	addi	s1,s2,11
    da94:	01600793          	li	a5,22
    da98:	0e97fe63          	bgeu	a5,s1,db94 <_realloc_r+0x144>
    da9c:	ff84f493          	andi	s1,s1,-8
    daa0:	00048713          	mv	a4,s1
    daa4:	0e04ce63          	bltz	s1,dba0 <_realloc_r+0x150>
    daa8:	0f24ec63          	bltu	s1,s2,dba0 <_realloc_r+0x150>
    daac:	ffc42783          	lw	a5,-4(s0)
    dab0:	ff840a93          	addi	s5,s0,-8
    dab4:	ffc7fa13          	andi	s4,a5,-4
    dab8:	014a8b33          	add	s6,s5,s4
    dabc:	12ea5e63          	bge	s4,a4,dbf8 <_realloc_r+0x1a8>
    dac0:	00014b97          	auipc	s7,0x14
    dac4:	9bcb8b93          	addi	s7,s7,-1604 # 2147c <__malloc_av_>
    dac8:	008ba603          	lw	a2,8(s7)
    dacc:	004b2683          	lw	a3,4(s6) # 80000004 <_stack+0x7ffc0004>
    dad0:	1f660063          	beq	a2,s6,dcb0 <_realloc_r+0x260>
    dad4:	ffe6f613          	andi	a2,a3,-2
    dad8:	00cb0633          	add	a2,s6,a2
    dadc:	00462603          	lw	a2,4(a2)
    dae0:	00167613          	andi	a2,a2,1
    dae4:	14061663          	bnez	a2,dc30 <_realloc_r+0x1e0>
    dae8:	ffc6f693          	andi	a3,a3,-4
    daec:	00da0633          	add	a2,s4,a3
    daf0:	0ee65863          	bge	a2,a4,dbe0 <_realloc_r+0x190>
    daf4:	0017f793          	andi	a5,a5,1
    daf8:	02079463          	bnez	a5,db20 <_realloc_r+0xd0>
    dafc:	ff842c03          	lw	s8,-8(s0)
    db00:	418a8c33          	sub	s8,s5,s8
    db04:	004c2783          	lw	a5,4(s8)
    db08:	ffc7f793          	andi	a5,a5,-4
    db0c:	00d786b3          	add	a3,a5,a3
    db10:	01468bb3          	add	s7,a3,s4
    db14:	34ebda63          	bge	s7,a4,de68 <_realloc_r+0x418>
    db18:	00fa0bb3          	add	s7,s4,a5
    db1c:	2cebd463          	bge	s7,a4,dde4 <_realloc_r+0x394>
    db20:	00090593          	mv	a1,s2
    db24:	00098513          	mv	a0,s3
    db28:	f29f80ef          	jal	ra,6a50 <_malloc_r>
    db2c:	00050913          	mv	s2,a0
    db30:	04050c63          	beqz	a0,db88 <_realloc_r+0x138>
    db34:	ffc42783          	lw	a5,-4(s0)
    db38:	ff850713          	addi	a4,a0,-8
    db3c:	ffe7f793          	andi	a5,a5,-2
    db40:	00fa87b3          	add	a5,s5,a5
    db44:	28e78663          	beq	a5,a4,ddd0 <_realloc_r+0x380>
    db48:	ffca0613          	addi	a2,s4,-4
    db4c:	02400793          	li	a5,36
    db50:	30c7e663          	bltu	a5,a2,de5c <_realloc_r+0x40c>
    db54:	01300713          	li	a4,19
    db58:	00042683          	lw	a3,0(s0)
    db5c:	20c76e63          	bltu	a4,a2,dd78 <_realloc_r+0x328>
    db60:	00050793          	mv	a5,a0
    db64:	00040713          	mv	a4,s0
    db68:	00d7a023          	sw	a3,0(a5)
    db6c:	00472683          	lw	a3,4(a4)
    db70:	00d7a223          	sw	a3,4(a5)
    db74:	00872703          	lw	a4,8(a4)
    db78:	00e7a423          	sw	a4,8(a5)
    db7c:	00040593          	mv	a1,s0
    db80:	00098513          	mv	a0,s3
    db84:	afdf50ef          	jal	ra,3680 <_free_r>
    db88:	00098513          	mv	a0,s3
    db8c:	8adf90ef          	jal	ra,7438 <__malloc_unlock>
    db90:	01c0006f          	j	dbac <_realloc_r+0x15c>
    db94:	01000493          	li	s1,16
    db98:	01000713          	li	a4,16
    db9c:	f124f8e3          	bgeu	s1,s2,daac <_realloc_r+0x5c>
    dba0:	00c00793          	li	a5,12
    dba4:	00f9a023          	sw	a5,0(s3)
    dba8:	00000913          	li	s2,0
    dbac:	02c12083          	lw	ra,44(sp)
    dbb0:	02812403          	lw	s0,40(sp)
    dbb4:	02412483          	lw	s1,36(sp)
    dbb8:	01c12983          	lw	s3,28(sp)
    dbbc:	01812a03          	lw	s4,24(sp)
    dbc0:	01412a83          	lw	s5,20(sp)
    dbc4:	01012b03          	lw	s6,16(sp)
    dbc8:	00c12b83          	lw	s7,12(sp)
    dbcc:	00812c03          	lw	s8,8(sp)
    dbd0:	00090513          	mv	a0,s2
    dbd4:	02012903          	lw	s2,32(sp)
    dbd8:	03010113          	addi	sp,sp,48
    dbdc:	00008067          	ret
    dbe0:	00cb2783          	lw	a5,12(s6)
    dbe4:	008b2703          	lw	a4,8(s6)
    dbe8:	00060a13          	mv	s4,a2
    dbec:	00ca8b33          	add	s6,s5,a2
    dbf0:	00f72623          	sw	a5,12(a4)
    dbf4:	00e7a423          	sw	a4,8(a5)
    dbf8:	004aa783          	lw	a5,4(s5)
    dbfc:	409a0733          	sub	a4,s4,s1
    dc00:	00f00693          	li	a3,15
    dc04:	0017f793          	andi	a5,a5,1
    dc08:	06e6ec63          	bltu	a3,a4,dc80 <_realloc_r+0x230>
    dc0c:	00fa67b3          	or	a5,s4,a5
    dc10:	00faa223          	sw	a5,4(s5)
    dc14:	004b2783          	lw	a5,4(s6)
    dc18:	0017e793          	ori	a5,a5,1
    dc1c:	00fb2223          	sw	a5,4(s6)
    dc20:	00098513          	mv	a0,s3
    dc24:	815f90ef          	jal	ra,7438 <__malloc_unlock>
    dc28:	00040913          	mv	s2,s0
    dc2c:	f81ff06f          	j	dbac <_realloc_r+0x15c>
    dc30:	0017f793          	andi	a5,a5,1
    dc34:	ee0796e3          	bnez	a5,db20 <_realloc_r+0xd0>
    dc38:	ff842c03          	lw	s8,-8(s0)
    dc3c:	418a8c33          	sub	s8,s5,s8
    dc40:	004c2783          	lw	a5,4(s8)
    dc44:	ffc7f793          	andi	a5,a5,-4
    dc48:	ed1ff06f          	j	db18 <_realloc_r+0xc8>
    dc4c:	02812403          	lw	s0,40(sp)
    dc50:	02c12083          	lw	ra,44(sp)
    dc54:	02412483          	lw	s1,36(sp)
    dc58:	02012903          	lw	s2,32(sp)
    dc5c:	01c12983          	lw	s3,28(sp)
    dc60:	01812a03          	lw	s4,24(sp)
    dc64:	01412a83          	lw	s5,20(sp)
    dc68:	01012b03          	lw	s6,16(sp)
    dc6c:	00c12b83          	lw	s7,12(sp)
    dc70:	00812c03          	lw	s8,8(sp)
    dc74:	00060593          	mv	a1,a2
    dc78:	03010113          	addi	sp,sp,48
    dc7c:	dd5f806f          	j	6a50 <_malloc_r>
    dc80:	0097e7b3          	or	a5,a5,s1
    dc84:	00faa223          	sw	a5,4(s5)
    dc88:	009a85b3          	add	a1,s5,s1
    dc8c:	00176713          	ori	a4,a4,1
    dc90:	00e5a223          	sw	a4,4(a1)
    dc94:	004b2783          	lw	a5,4(s6)
    dc98:	00858593          	addi	a1,a1,8
    dc9c:	00098513          	mv	a0,s3
    dca0:	0017e793          	ori	a5,a5,1
    dca4:	00fb2223          	sw	a5,4(s6)
    dca8:	9d9f50ef          	jal	ra,3680 <_free_r>
    dcac:	f75ff06f          	j	dc20 <_realloc_r+0x1d0>
    dcb0:	ffc6f693          	andi	a3,a3,-4
    dcb4:	00da0633          	add	a2,s4,a3
    dcb8:	01048593          	addi	a1,s1,16
    dcbc:	0eb65063          	bge	a2,a1,dd9c <_realloc_r+0x34c>
    dcc0:	0017f793          	andi	a5,a5,1
    dcc4:	e4079ee3          	bnez	a5,db20 <_realloc_r+0xd0>
    dcc8:	ff842c03          	lw	s8,-8(s0)
    dccc:	418a8c33          	sub	s8,s5,s8
    dcd0:	004c2783          	lw	a5,4(s8)
    dcd4:	ffc7f793          	andi	a5,a5,-4
    dcd8:	00d786b3          	add	a3,a5,a3
    dcdc:	01468b33          	add	s6,a3,s4
    dce0:	e2bb4ce3          	blt	s6,a1,db18 <_realloc_r+0xc8>
    dce4:	00cc2783          	lw	a5,12(s8)
    dce8:	008c2703          	lw	a4,8(s8)
    dcec:	ffca0613          	addi	a2,s4,-4
    dcf0:	02400693          	li	a3,36
    dcf4:	00f72623          	sw	a5,12(a4)
    dcf8:	00e7a423          	sw	a4,8(a5)
    dcfc:	008c0913          	addi	s2,s8,8
    dd00:	26c6ec63          	bltu	a3,a2,df78 <_realloc_r+0x528>
    dd04:	01300593          	li	a1,19
    dd08:	00042703          	lw	a4,0(s0)
    dd0c:	00090793          	mv	a5,s2
    dd10:	02c5f263          	bgeu	a1,a2,dd34 <_realloc_r+0x2e4>
    dd14:	00ec2423          	sw	a4,8(s8)
    dd18:	00442703          	lw	a4,4(s0)
    dd1c:	01b00793          	li	a5,27
    dd20:	00ec2623          	sw	a4,12(s8)
    dd24:	26c7e263          	bltu	a5,a2,df88 <_realloc_r+0x538>
    dd28:	00842703          	lw	a4,8(s0)
    dd2c:	010c0793          	addi	a5,s8,16
    dd30:	00840413          	addi	s0,s0,8
    dd34:	00e7a023          	sw	a4,0(a5)
    dd38:	00442703          	lw	a4,4(s0)
    dd3c:	00e7a223          	sw	a4,4(a5)
    dd40:	00842703          	lw	a4,8(s0)
    dd44:	00e7a423          	sw	a4,8(a5)
    dd48:	009c0733          	add	a4,s8,s1
    dd4c:	409b07b3          	sub	a5,s6,s1
    dd50:	00eba423          	sw	a4,8(s7)
    dd54:	0017e793          	ori	a5,a5,1
    dd58:	00f72223          	sw	a5,4(a4)
    dd5c:	004c2783          	lw	a5,4(s8)
    dd60:	00098513          	mv	a0,s3
    dd64:	0017f793          	andi	a5,a5,1
    dd68:	0097e4b3          	or	s1,a5,s1
    dd6c:	009c2223          	sw	s1,4(s8)
    dd70:	ec8f90ef          	jal	ra,7438 <__malloc_unlock>
    dd74:	e39ff06f          	j	dbac <_realloc_r+0x15c>
    dd78:	00d52023          	sw	a3,0(a0)
    dd7c:	00442683          	lw	a3,4(s0)
    dd80:	01b00713          	li	a4,27
    dd84:	00d52223          	sw	a3,4(a0)
    dd88:	16c76e63          	bltu	a4,a2,df04 <_realloc_r+0x4b4>
    dd8c:	00842683          	lw	a3,8(s0)
    dd90:	00840713          	addi	a4,s0,8
    dd94:	00850793          	addi	a5,a0,8
    dd98:	dd1ff06f          	j	db68 <_realloc_r+0x118>
    dd9c:	009a8ab3          	add	s5,s5,s1
    dda0:	409607b3          	sub	a5,a2,s1
    dda4:	015ba423          	sw	s5,8(s7)
    dda8:	0017e793          	ori	a5,a5,1
    ddac:	00faa223          	sw	a5,4(s5)
    ddb0:	ffc42783          	lw	a5,-4(s0)
    ddb4:	00098513          	mv	a0,s3
    ddb8:	00040913          	mv	s2,s0
    ddbc:	0017f793          	andi	a5,a5,1
    ddc0:	0097e4b3          	or	s1,a5,s1
    ddc4:	fe942e23          	sw	s1,-4(s0)
    ddc8:	e70f90ef          	jal	ra,7438 <__malloc_unlock>
    ddcc:	de1ff06f          	j	dbac <_realloc_r+0x15c>
    ddd0:	ffc52783          	lw	a5,-4(a0)
    ddd4:	ffc7f793          	andi	a5,a5,-4
    ddd8:	00fa0a33          	add	s4,s4,a5
    dddc:	014a8b33          	add	s6,s5,s4
    dde0:	e19ff06f          	j	dbf8 <_realloc_r+0x1a8>
    dde4:	00cc2783          	lw	a5,12(s8)
    dde8:	008c2703          	lw	a4,8(s8)
    ddec:	ffca0613          	addi	a2,s4,-4
    ddf0:	02400693          	li	a3,36
    ddf4:	00f72623          	sw	a5,12(a4)
    ddf8:	00e7a423          	sw	a4,8(a5)
    ddfc:	008c0913          	addi	s2,s8,8
    de00:	017c0b33          	add	s6,s8,s7
    de04:	0ec6e263          	bltu	a3,a2,dee8 <_realloc_r+0x498>
    de08:	01300593          	li	a1,19
    de0c:	00042703          	lw	a4,0(s0)
    de10:	00090793          	mv	a5,s2
    de14:	02c5f263          	bgeu	a1,a2,de38 <_realloc_r+0x3e8>
    de18:	00ec2423          	sw	a4,8(s8)
    de1c:	00442703          	lw	a4,4(s0)
    de20:	01b00793          	li	a5,27
    de24:	00ec2623          	sw	a4,12(s8)
    de28:	10c7e063          	bltu	a5,a2,df28 <_realloc_r+0x4d8>
    de2c:	00842703          	lw	a4,8(s0)
    de30:	010c0793          	addi	a5,s8,16
    de34:	00840413          	addi	s0,s0,8
    de38:	00e7a023          	sw	a4,0(a5)
    de3c:	00442703          	lw	a4,4(s0)
    de40:	000b8a13          	mv	s4,s7
    de44:	000c0a93          	mv	s5,s8
    de48:	00e7a223          	sw	a4,4(a5)
    de4c:	00842703          	lw	a4,8(s0)
    de50:	00090413          	mv	s0,s2
    de54:	00e7a423          	sw	a4,8(a5)
    de58:	da1ff06f          	j	dbf8 <_realloc_r+0x1a8>
    de5c:	00040593          	mv	a1,s0
    de60:	a6dff0ef          	jal	ra,d8cc <memmove>
    de64:	d19ff06f          	j	db7c <_realloc_r+0x12c>
    de68:	00cb2783          	lw	a5,12(s6)
    de6c:	008b2703          	lw	a4,8(s6)
    de70:	ffca0613          	addi	a2,s4,-4
    de74:	02400693          	li	a3,36
    de78:	00f72623          	sw	a5,12(a4)
    de7c:	00e7a423          	sw	a4,8(a5)
    de80:	008c2703          	lw	a4,8(s8)
    de84:	00cc2783          	lw	a5,12(s8)
    de88:	008c0913          	addi	s2,s8,8
    de8c:	017c0b33          	add	s6,s8,s7
    de90:	00f72623          	sw	a5,12(a4)
    de94:	00e7a423          	sw	a4,8(a5)
    de98:	04c6e863          	bltu	a3,a2,dee8 <_realloc_r+0x498>
    de9c:	01300693          	li	a3,19
    dea0:	00042703          	lw	a4,0(s0)
    dea4:	00090793          	mv	a5,s2
    dea8:	f8c6f8e3          	bgeu	a3,a2,de38 <_realloc_r+0x3e8>
    deac:	00ec2423          	sw	a4,8(s8)
    deb0:	00442703          	lw	a4,4(s0)
    deb4:	01b00793          	li	a5,27
    deb8:	00ec2623          	sw	a4,12(s8)
    debc:	00842703          	lw	a4,8(s0)
    dec0:	f6c7f8e3          	bgeu	a5,a2,de30 <_realloc_r+0x3e0>
    dec4:	00ec2823          	sw	a4,16(s8)
    dec8:	00c42703          	lw	a4,12(s0)
    decc:	02400793          	li	a5,36
    ded0:	00ec2a23          	sw	a4,20(s8)
    ded4:	01042703          	lw	a4,16(s0)
    ded8:	06f60463          	beq	a2,a5,df40 <_realloc_r+0x4f0>
    dedc:	018c0793          	addi	a5,s8,24
    dee0:	01040413          	addi	s0,s0,16
    dee4:	f55ff06f          	j	de38 <_realloc_r+0x3e8>
    dee8:	00040593          	mv	a1,s0
    deec:	00090513          	mv	a0,s2
    def0:	9ddff0ef          	jal	ra,d8cc <memmove>
    def4:	00090413          	mv	s0,s2
    def8:	000b8a13          	mv	s4,s7
    defc:	000c0a93          	mv	s5,s8
    df00:	cf9ff06f          	j	dbf8 <_realloc_r+0x1a8>
    df04:	00842703          	lw	a4,8(s0)
    df08:	00e52423          	sw	a4,8(a0)
    df0c:	00c42703          	lw	a4,12(s0)
    df10:	00e52623          	sw	a4,12(a0)
    df14:	01042683          	lw	a3,16(s0)
    df18:	04f60263          	beq	a2,a5,df5c <_realloc_r+0x50c>
    df1c:	01040713          	addi	a4,s0,16
    df20:	01050793          	addi	a5,a0,16
    df24:	c45ff06f          	j	db68 <_realloc_r+0x118>
    df28:	00842783          	lw	a5,8(s0)
    df2c:	00fc2823          	sw	a5,16(s8)
    df30:	00c42783          	lw	a5,12(s0)
    df34:	00fc2a23          	sw	a5,20(s8)
    df38:	01042703          	lw	a4,16(s0)
    df3c:	fad610e3          	bne	a2,a3,dedc <_realloc_r+0x48c>
    df40:	00ec2c23          	sw	a4,24(s8)
    df44:	01442703          	lw	a4,20(s0)
    df48:	020c0793          	addi	a5,s8,32
    df4c:	01840413          	addi	s0,s0,24
    df50:	00ec2e23          	sw	a4,28(s8)
    df54:	00042703          	lw	a4,0(s0)
    df58:	ee1ff06f          	j	de38 <_realloc_r+0x3e8>
    df5c:	00d52823          	sw	a3,16(a0)
    df60:	01442683          	lw	a3,20(s0)
    df64:	01840713          	addi	a4,s0,24
    df68:	01850793          	addi	a5,a0,24
    df6c:	00d52a23          	sw	a3,20(a0)
    df70:	01842683          	lw	a3,24(s0)
    df74:	bf5ff06f          	j	db68 <_realloc_r+0x118>
    df78:	00040593          	mv	a1,s0
    df7c:	00090513          	mv	a0,s2
    df80:	94dff0ef          	jal	ra,d8cc <memmove>
    df84:	dc5ff06f          	j	dd48 <_realloc_r+0x2f8>
    df88:	00842783          	lw	a5,8(s0)
    df8c:	00fc2823          	sw	a5,16(s8)
    df90:	00c42783          	lw	a5,12(s0)
    df94:	00fc2a23          	sw	a5,20(s8)
    df98:	01042703          	lw	a4,16(s0)
    df9c:	00d60863          	beq	a2,a3,dfac <_realloc_r+0x55c>
    dfa0:	018c0793          	addi	a5,s8,24
    dfa4:	01040413          	addi	s0,s0,16
    dfa8:	d8dff06f          	j	dd34 <_realloc_r+0x2e4>
    dfac:	00ec2c23          	sw	a4,24(s8)
    dfb0:	01442703          	lw	a4,20(s0)
    dfb4:	020c0793          	addi	a5,s8,32
    dfb8:	01840413          	addi	s0,s0,24
    dfbc:	00ec2e23          	sw	a4,28(s8)
    dfc0:	00042703          	lw	a4,0(s0)
    dfc4:	d71ff06f          	j	dd34 <_realloc_r+0x2e4>

0000dfc8 <cleanup_glue>:
    dfc8:	fe010113          	addi	sp,sp,-32
    dfcc:	01212823          	sw	s2,16(sp)
    dfd0:	0005a903          	lw	s2,0(a1)
    dfd4:	00812c23          	sw	s0,24(sp)
    dfd8:	00912a23          	sw	s1,20(sp)
    dfdc:	00112e23          	sw	ra,28(sp)
    dfe0:	01312623          	sw	s3,12(sp)
    dfe4:	01412423          	sw	s4,8(sp)
    dfe8:	00058413          	mv	s0,a1
    dfec:	00050493          	mv	s1,a0
    dff0:	04090263          	beqz	s2,e034 <cleanup_glue+0x6c>
    dff4:	00092983          	lw	s3,0(s2)
    dff8:	02098863          	beqz	s3,e028 <cleanup_glue+0x60>
    dffc:	0009aa03          	lw	s4,0(s3)
    e000:	000a0e63          	beqz	s4,e01c <cleanup_glue+0x54>
    e004:	000a2583          	lw	a1,0(s4)
    e008:	00058463          	beqz	a1,e010 <cleanup_glue+0x48>
    e00c:	fbdff0ef          	jal	ra,dfc8 <cleanup_glue>
    e010:	000a0593          	mv	a1,s4
    e014:	00048513          	mv	a0,s1
    e018:	e68f50ef          	jal	ra,3680 <_free_r>
    e01c:	00098593          	mv	a1,s3
    e020:	00048513          	mv	a0,s1
    e024:	e5cf50ef          	jal	ra,3680 <_free_r>
    e028:	00090593          	mv	a1,s2
    e02c:	00048513          	mv	a0,s1
    e030:	e50f50ef          	jal	ra,3680 <_free_r>
    e034:	00040593          	mv	a1,s0
    e038:	01812403          	lw	s0,24(sp)
    e03c:	01c12083          	lw	ra,28(sp)
    e040:	01012903          	lw	s2,16(sp)
    e044:	00c12983          	lw	s3,12(sp)
    e048:	00812a03          	lw	s4,8(sp)
    e04c:	00048513          	mv	a0,s1
    e050:	01412483          	lw	s1,20(sp)
    e054:	02010113          	addi	sp,sp,32
    e058:	e28f506f          	j	3680 <_free_r>

0000e05c <_reclaim_reent>:
    e05c:	00012797          	auipc	a5,0x12
    e060:	fd47a783          	lw	a5,-44(a5) # 20030 <_impure_ptr>
    e064:	10a78a63          	beq	a5,a0,e178 <_reclaim_reent+0x11c>
    e068:	04c52583          	lw	a1,76(a0)
    e06c:	fe010113          	addi	sp,sp,-32
    e070:	00912a23          	sw	s1,20(sp)
    e074:	00112e23          	sw	ra,28(sp)
    e078:	00812c23          	sw	s0,24(sp)
    e07c:	01212823          	sw	s2,16(sp)
    e080:	01312623          	sw	s3,12(sp)
    e084:	00050493          	mv	s1,a0
    e088:	04058063          	beqz	a1,e0c8 <_reclaim_reent+0x6c>
    e08c:	00000913          	li	s2,0
    e090:	08000993          	li	s3,128
    e094:	012587b3          	add	a5,a1,s2
    e098:	0007a403          	lw	s0,0(a5)
    e09c:	00040e63          	beqz	s0,e0b8 <_reclaim_reent+0x5c>
    e0a0:	00040593          	mv	a1,s0
    e0a4:	00042403          	lw	s0,0(s0)
    e0a8:	00048513          	mv	a0,s1
    e0ac:	dd4f50ef          	jal	ra,3680 <_free_r>
    e0b0:	fe0418e3          	bnez	s0,e0a0 <_reclaim_reent+0x44>
    e0b4:	04c4a583          	lw	a1,76(s1)
    e0b8:	00490913          	addi	s2,s2,4
    e0bc:	fd391ce3          	bne	s2,s3,e094 <_reclaim_reent+0x38>
    e0c0:	00048513          	mv	a0,s1
    e0c4:	dbcf50ef          	jal	ra,3680 <_free_r>
    e0c8:	0404a583          	lw	a1,64(s1)
    e0cc:	00058663          	beqz	a1,e0d8 <_reclaim_reent+0x7c>
    e0d0:	00048513          	mv	a0,s1
    e0d4:	dacf50ef          	jal	ra,3680 <_free_r>
    e0d8:	1484a403          	lw	s0,328(s1)
    e0dc:	02040063          	beqz	s0,e0fc <_reclaim_reent+0xa0>
    e0e0:	14c48913          	addi	s2,s1,332
    e0e4:	01240c63          	beq	s0,s2,e0fc <_reclaim_reent+0xa0>
    e0e8:	00040593          	mv	a1,s0
    e0ec:	00042403          	lw	s0,0(s0)
    e0f0:	00048513          	mv	a0,s1
    e0f4:	d8cf50ef          	jal	ra,3680 <_free_r>
    e0f8:	fe8918e3          	bne	s2,s0,e0e8 <_reclaim_reent+0x8c>
    e0fc:	0544a583          	lw	a1,84(s1)
    e100:	00058663          	beqz	a1,e10c <_reclaim_reent+0xb0>
    e104:	00048513          	mv	a0,s1
    e108:	d78f50ef          	jal	ra,3680 <_free_r>
    e10c:	0384a783          	lw	a5,56(s1)
    e110:	04078663          	beqz	a5,e15c <_reclaim_reent+0x100>
    e114:	03c4a783          	lw	a5,60(s1)
    e118:	00048513          	mv	a0,s1
    e11c:	000780e7          	jalr	a5
    e120:	2e04a403          	lw	s0,736(s1)
    e124:	02040c63          	beqz	s0,e15c <_reclaim_reent+0x100>
    e128:	00042583          	lw	a1,0(s0)
    e12c:	00058663          	beqz	a1,e138 <_reclaim_reent+0xdc>
    e130:	00048513          	mv	a0,s1
    e134:	e95ff0ef          	jal	ra,dfc8 <cleanup_glue>
    e138:	00040593          	mv	a1,s0
    e13c:	01812403          	lw	s0,24(sp)
    e140:	01c12083          	lw	ra,28(sp)
    e144:	01012903          	lw	s2,16(sp)
    e148:	00c12983          	lw	s3,12(sp)
    e14c:	00048513          	mv	a0,s1
    e150:	01412483          	lw	s1,20(sp)
    e154:	02010113          	addi	sp,sp,32
    e158:	d28f506f          	j	3680 <_free_r>
    e15c:	01c12083          	lw	ra,28(sp)
    e160:	01812403          	lw	s0,24(sp)
    e164:	01412483          	lw	s1,20(sp)
    e168:	01012903          	lw	s2,16(sp)
    e16c:	00c12983          	lw	s3,12(sp)
    e170:	02010113          	addi	sp,sp,32
    e174:	00008067          	ret
    e178:	00008067          	ret

0000e17c <__ssprint_r>:
    e17c:	00862783          	lw	a5,8(a2)
    e180:	fd010113          	addi	sp,sp,-48
    e184:	01512a23          	sw	s5,20(sp)
    e188:	02112623          	sw	ra,44(sp)
    e18c:	02812423          	sw	s0,40(sp)
    e190:	02912223          	sw	s1,36(sp)
    e194:	03212023          	sw	s2,32(sp)
    e198:	01312e23          	sw	s3,28(sp)
    e19c:	01412c23          	sw	s4,24(sp)
    e1a0:	01612823          	sw	s6,16(sp)
    e1a4:	01712623          	sw	s7,12(sp)
    e1a8:	01812423          	sw	s8,8(sp)
    e1ac:	00060a93          	mv	s5,a2
    e1b0:	14078863          	beqz	a5,e300 <__ssprint_r+0x184>
    e1b4:	00050b13          	mv	s6,a0
    e1b8:	00062983          	lw	s3,0(a2)
    e1bc:	0005a503          	lw	a0,0(a1)
    e1c0:	0085a483          	lw	s1,8(a1)
    e1c4:	00058413          	mv	s0,a1
    e1c8:	0d40006f          	j	e29c <__ssprint_r+0x120>
    e1cc:	00c45783          	lhu	a5,12(s0)
    e1d0:	4807f713          	andi	a4,a5,1152
    e1d4:	08070a63          	beqz	a4,e268 <__ssprint_r+0xec>
    e1d8:	01442683          	lw	a3,20(s0)
    e1dc:	01042583          	lw	a1,16(s0)
    e1e0:	00190713          	addi	a4,s2,1
    e1e4:	00169493          	slli	s1,a3,0x1
    e1e8:	00d486b3          	add	a3,s1,a3
    e1ec:	01f6d493          	srli	s1,a3,0x1f
    e1f0:	40b50a33          	sub	s4,a0,a1
    e1f4:	00d484b3          	add	s1,s1,a3
    e1f8:	4014d493          	srai	s1,s1,0x1
    e1fc:	01470733          	add	a4,a4,s4
    e200:	00048613          	mv	a2,s1
    e204:	00e4f663          	bgeu	s1,a4,e210 <__ssprint_r+0x94>
    e208:	00070493          	mv	s1,a4
    e20c:	00070613          	mv	a2,a4
    e210:	4007f793          	andi	a5,a5,1024
    e214:	0a078663          	beqz	a5,e2c0 <__ssprint_r+0x144>
    e218:	00060593          	mv	a1,a2
    e21c:	000b0513          	mv	a0,s6
    e220:	831f80ef          	jal	ra,6a50 <_malloc_r>
    e224:	00050c13          	mv	s8,a0
    e228:	0a050a63          	beqz	a0,e2dc <__ssprint_r+0x160>
    e22c:	01042583          	lw	a1,16(s0)
    e230:	000a0613          	mv	a2,s4
    e234:	d70ff0ef          	jal	ra,d7a4 <memcpy>
    e238:	00c45783          	lhu	a5,12(s0)
    e23c:	b7f7f793          	andi	a5,a5,-1153
    e240:	0807e793          	ori	a5,a5,128
    e244:	00f41623          	sh	a5,12(s0)
    e248:	014c0533          	add	a0,s8,s4
    e24c:	41448a33          	sub	s4,s1,s4
    e250:	00942a23          	sw	s1,20(s0)
    e254:	01442423          	sw	s4,8(s0)
    e258:	01842823          	sw	s8,16(s0)
    e25c:	00a42023          	sw	a0,0(s0)
    e260:	00090493          	mv	s1,s2
    e264:	00090a13          	mv	s4,s2
    e268:	000a0613          	mv	a2,s4
    e26c:	000b8593          	mv	a1,s7
    e270:	e5cff0ef          	jal	ra,d8cc <memmove>
    e274:	00842703          	lw	a4,8(s0)
    e278:	00042503          	lw	a0,0(s0)
    e27c:	008aa783          	lw	a5,8(s5)
    e280:	409704b3          	sub	s1,a4,s1
    e284:	01450533          	add	a0,a0,s4
    e288:	00942423          	sw	s1,8(s0)
    e28c:	00a42023          	sw	a0,0(s0)
    e290:	41278933          	sub	s2,a5,s2
    e294:	012aa423          	sw	s2,8(s5)
    e298:	06090463          	beqz	s2,e300 <__ssprint_r+0x184>
    e29c:	0049a903          	lw	s2,4(s3)
    e2a0:	0009ab83          	lw	s7,0(s3)
    e2a4:	00048a13          	mv	s4,s1
    e2a8:	00898993          	addi	s3,s3,8
    e2ac:	fe0908e3          	beqz	s2,e29c <__ssprint_r+0x120>
    e2b0:	f0997ee3          	bgeu	s2,s1,e1cc <__ssprint_r+0x50>
    e2b4:	00090493          	mv	s1,s2
    e2b8:	00090a13          	mv	s4,s2
    e2bc:	fadff06f          	j	e268 <__ssprint_r+0xec>
    e2c0:	000b0513          	mv	a0,s6
    e2c4:	f8cff0ef          	jal	ra,da50 <_realloc_r>
    e2c8:	00050c13          	mv	s8,a0
    e2cc:	f6051ee3          	bnez	a0,e248 <__ssprint_r+0xcc>
    e2d0:	01042583          	lw	a1,16(s0)
    e2d4:	000b0513          	mv	a0,s6
    e2d8:	ba8f50ef          	jal	ra,3680 <_free_r>
    e2dc:	00c00793          	li	a5,12
    e2e0:	00fb2023          	sw	a5,0(s6)
    e2e4:	00c45783          	lhu	a5,12(s0)
    e2e8:	fff00513          	li	a0,-1
    e2ec:	0407e793          	ori	a5,a5,64
    e2f0:	00f41623          	sh	a5,12(s0)
    e2f4:	000aa423          	sw	zero,8(s5)
    e2f8:	000aa223          	sw	zero,4(s5)
    e2fc:	00c0006f          	j	e308 <__ssprint_r+0x18c>
    e300:	000aa223          	sw	zero,4(s5)
    e304:	00000513          	li	a0,0
    e308:	02c12083          	lw	ra,44(sp)
    e30c:	02812403          	lw	s0,40(sp)
    e310:	02412483          	lw	s1,36(sp)
    e314:	02012903          	lw	s2,32(sp)
    e318:	01c12983          	lw	s3,28(sp)
    e31c:	01812a03          	lw	s4,24(sp)
    e320:	01412a83          	lw	s5,20(sp)
    e324:	01012b03          	lw	s6,16(sp)
    e328:	00c12b83          	lw	s7,12(sp)
    e32c:	00812c03          	lw	s8,8(sp)
    e330:	03010113          	addi	sp,sp,48
    e334:	00008067          	ret

0000e338 <_svfiprintf_r>:
    e338:	00c5d783          	lhu	a5,12(a1)
    e33c:	ed010113          	addi	sp,sp,-304
    e340:	13212023          	sw	s2,288(sp)
    e344:	11412c23          	sw	s4,280(sp)
    e348:	11712623          	sw	s7,268(sp)
    e34c:	12112623          	sw	ra,300(sp)
    e350:	12812423          	sw	s0,296(sp)
    e354:	12912223          	sw	s1,292(sp)
    e358:	11312e23          	sw	s3,284(sp)
    e35c:	11512a23          	sw	s5,276(sp)
    e360:	11612823          	sw	s6,272(sp)
    e364:	11812423          	sw	s8,264(sp)
    e368:	11912223          	sw	s9,260(sp)
    e36c:	11a12023          	sw	s10,256(sp)
    e370:	0fb12e23          	sw	s11,252(sp)
    e374:	0807f793          	andi	a5,a5,128
    e378:	00d12823          	sw	a3,16(sp)
    e37c:	00058913          	mv	s2,a1
    e380:	00050a13          	mv	s4,a0
    e384:	00060b93          	mv	s7,a2
    e388:	00078663          	beqz	a5,e394 <_svfiprintf_r+0x5c>
    e38c:	0105a783          	lw	a5,16(a1)
    e390:	580786e3          	beqz	a5,f11c <_svfiprintf_r+0xde4>
    e394:	ffff87b7          	lui	a5,0xffff8
    e398:	04c10993          	addi	s3,sp,76
    e39c:	8307c793          	xori	a5,a5,-2000
    e3a0:	05312023          	sw	s3,64(sp)
    e3a4:	04012423          	sw	zero,72(sp)
    e3a8:	04012223          	sw	zero,68(sp)
    e3ac:	00098c13          	mv	s8,s3
    e3b0:	00012a23          	sw	zero,20(sp)
    e3b4:	00012c23          	sw	zero,24(sp)
    e3b8:	02012023          	sw	zero,32(sp)
    e3bc:	00012e23          	sw	zero,28(sp)
    e3c0:	00012623          	sw	zero,12(sp)
    e3c4:	02f12223          	sw	a5,36(sp)
    e3c8:	000b8d13          	mv	s10,s7
    e3cc:	000d4783          	lbu	a5,0(s10)
    e3d0:	20078a63          	beqz	a5,e5e4 <_svfiprintf_r+0x2ac>
    e3d4:	000d0413          	mv	s0,s10
    e3d8:	02500713          	li	a4,37
    e3dc:	3ae78263          	beq	a5,a4,e780 <_svfiprintf_r+0x448>
    e3e0:	00144783          	lbu	a5,1(s0)
    e3e4:	00140413          	addi	s0,s0,1
    e3e8:	fe079ae3          	bnez	a5,e3dc <_svfiprintf_r+0xa4>
    e3ec:	41a404b3          	sub	s1,s0,s10
    e3f0:	1fa40a63          	beq	s0,s10,e5e4 <_svfiprintf_r+0x2ac>
    e3f4:	04812703          	lw	a4,72(sp)
    e3f8:	04412783          	lw	a5,68(sp)
    e3fc:	01ac2023          	sw	s10,0(s8)
    e400:	00970733          	add	a4,a4,s1
    e404:	00178793          	addi	a5,a5,1 # ffff8001 <_stack+0xfffb8001>
    e408:	009c2223          	sw	s1,4(s8)
    e40c:	04e12423          	sw	a4,72(sp)
    e410:	04f12223          	sw	a5,68(sp)
    e414:	00700713          	li	a4,7
    e418:	008c0c13          	addi	s8,s8,8
    e41c:	36f74a63          	blt	a4,a5,e790 <_svfiprintf_r+0x458>
    e420:	00c12703          	lw	a4,12(sp)
    e424:	00044783          	lbu	a5,0(s0)
    e428:	00970733          	add	a4,a4,s1
    e42c:	00e12623          	sw	a4,12(sp)
    e430:	1a078a63          	beqz	a5,e5e4 <_svfiprintf_r+0x2ac>
    e434:	00144703          	lbu	a4,1(s0)
    e438:	00140d13          	addi	s10,s0,1
    e43c:	02010da3          	sb	zero,59(sp)
    e440:	fff00b13          	li	s6,-1
    e444:	00000413          	li	s0,0
    e448:	00000c93          	li	s9,0
    e44c:	02a00493          	li	s1,42
    e450:	001d0d13          	addi	s10,s10,1
    e454:	05a00613          	li	a2,90
    e458:	fe070793          	addi	a5,a4,-32
    e45c:	04f66a63          	bltu	a2,a5,e4b0 <_svfiprintf_r+0x178>
    e460:	00012697          	auipc	a3,0x12
    e464:	73868693          	addi	a3,a3,1848 # 20b98 <_ctype_+0x104>
    e468:	00279793          	slli	a5,a5,0x2
    e46c:	00d787b3          	add	a5,a5,a3
    e470:	0007a783          	lw	a5,0(a5)
    e474:	00d787b3          	add	a5,a5,a3
    e478:	00078067          	jr	a5
    e47c:	00000413          	li	s0,0
    e480:	fd070793          	addi	a5,a4,-48
    e484:	000d4703          	lbu	a4,0(s10)
    e488:	00241693          	slli	a3,s0,0x2
    e48c:	00868433          	add	s0,a3,s0
    e490:	00141413          	slli	s0,s0,0x1
    e494:	00878433          	add	s0,a5,s0
    e498:	00900693          	li	a3,9
    e49c:	fd070793          	addi	a5,a4,-48
    e4a0:	001d0d13          	addi	s10,s10,1
    e4a4:	fef6f0e3          	bgeu	a3,a5,e484 <_svfiprintf_r+0x14c>
    e4a8:	fe070793          	addi	a5,a4,-32
    e4ac:	faf67ae3          	bgeu	a2,a5,e460 <_svfiprintf_r+0x128>
    e4b0:	12070a63          	beqz	a4,e5e4 <_svfiprintf_r+0x2ac>
    e4b4:	00100793          	li	a5,1
    e4b8:	08e10623          	sb	a4,140(sp)
    e4bc:	02010da3          	sb	zero,59(sp)
    e4c0:	00100493          	li	s1,1
    e4c4:	00f12423          	sw	a5,8(sp)
    e4c8:	08c10a93          	addi	s5,sp,140
    e4cc:	00000b13          	li	s6,0
    e4d0:	002cff13          	andi	t5,s9,2
    e4d4:	000f0463          	beqz	t5,e4dc <_svfiprintf_r+0x1a4>
    e4d8:	00248493          	addi	s1,s1,2
    e4dc:	084cfe93          	andi	t4,s9,132
    e4e0:	04812783          	lw	a5,72(sp)
    e4e4:	04412703          	lw	a4,68(sp)
    e4e8:	000e9663          	bnez	t4,e4f4 <_svfiprintf_r+0x1bc>
    e4ec:	40940bb3          	sub	s7,s0,s1
    e4f0:	077040e3          	bgtz	s7,ed50 <_svfiprintf_r+0xa18>
    e4f4:	03b14503          	lbu	a0,59(sp)
    e4f8:	00170593          	addi	a1,a4,1
    e4fc:	008c0613          	addi	a2,s8,8
    e500:	04050063          	beqz	a0,e540 <_svfiprintf_r+0x208>
    e504:	03b10513          	addi	a0,sp,59
    e508:	00178793          	addi	a5,a5,1
    e50c:	00ac2023          	sw	a0,0(s8)
    e510:	00100513          	li	a0,1
    e514:	00ac2223          	sw	a0,4(s8)
    e518:	04f12423          	sw	a5,72(sp)
    e51c:	04b12223          	sw	a1,68(sp)
    e520:	00700513          	li	a0,7
    e524:	14b548e3          	blt	a0,a1,ee74 <_svfiprintf_r+0xb3c>
    e528:	00270e13          	addi	t3,a4,2
    e52c:	010c0513          	addi	a0,s8,16
    e530:	00058713          	mv	a4,a1
    e534:	00060c13          	mv	s8,a2
    e538:	000e0593          	mv	a1,t3
    e53c:	00050613          	mv	a2,a0
    e540:	020f0c63          	beqz	t5,e578 <_svfiprintf_r+0x240>
    e544:	03c10713          	addi	a4,sp,60
    e548:	00278793          	addi	a5,a5,2
    e54c:	00ec2023          	sw	a4,0(s8)
    e550:	00200713          	li	a4,2
    e554:	00ec2223          	sw	a4,4(s8)
    e558:	04f12423          	sw	a5,72(sp)
    e55c:	04b12223          	sw	a1,68(sp)
    e560:	00700713          	li	a4,7
    e564:	14b746e3          	blt	a4,a1,eeb0 <_svfiprintf_r+0xb78>
    e568:	00058713          	mv	a4,a1
    e56c:	00060c13          	mv	s8,a2
    e570:	00158593          	addi	a1,a1,1
    e574:	00860613          	addi	a2,a2,8
    e578:	08000513          	li	a0,128
    e57c:	60ae8e63          	beq	t4,a0,eb98 <_svfiprintf_r+0x860>
    e580:	00812683          	lw	a3,8(sp)
    e584:	40db0b33          	sub	s6,s6,a3
    e588:	6d604463          	bgtz	s6,ec50 <_svfiprintf_r+0x918>
    e58c:	00812703          	lw	a4,8(sp)
    e590:	015c2023          	sw	s5,0(s8)
    e594:	04b12223          	sw	a1,68(sp)
    e598:	00f707b3          	add	a5,a4,a5
    e59c:	00ec2223          	sw	a4,4(s8)
    e5a0:	04f12423          	sw	a5,72(sp)
    e5a4:	00700713          	li	a4,7
    e5a8:	76b74463          	blt	a4,a1,ed10 <_svfiprintf_r+0x9d8>
    e5ac:	004cf693          	andi	a3,s9,4
    e5b0:	00068663          	beqz	a3,e5bc <_svfiprintf_r+0x284>
    e5b4:	40940ab3          	sub	s5,s0,s1
    e5b8:	1f504a63          	bgtz	s5,e7ac <_svfiprintf_r+0x474>
    e5bc:	00945463          	bge	s0,s1,e5c4 <_svfiprintf_r+0x28c>
    e5c0:	00048413          	mv	s0,s1
    e5c4:	00c12703          	lw	a4,12(sp)
    e5c8:	00870733          	add	a4,a4,s0
    e5cc:	00e12623          	sw	a4,12(sp)
    e5d0:	76079063          	bnez	a5,ed30 <_svfiprintf_r+0x9f8>
    e5d4:	000d4783          	lbu	a5,0(s10)
    e5d8:	04012223          	sw	zero,68(sp)
    e5dc:	00098c13          	mv	s8,s3
    e5e0:	de079ae3          	bnez	a5,e3d4 <_svfiprintf_r+0x9c>
    e5e4:	04812783          	lw	a5,72(sp)
    e5e8:	520796e3          	bnez	a5,f314 <_svfiprintf_r+0xfdc>
    e5ec:	00c95783          	lhu	a5,12(s2)
    e5f0:	0407f793          	andi	a5,a5,64
    e5f4:	560790e3          	bnez	a5,f354 <_svfiprintf_r+0x101c>
    e5f8:	12c12083          	lw	ra,300(sp)
    e5fc:	12812403          	lw	s0,296(sp)
    e600:	00c12503          	lw	a0,12(sp)
    e604:	12412483          	lw	s1,292(sp)
    e608:	12012903          	lw	s2,288(sp)
    e60c:	11c12983          	lw	s3,284(sp)
    e610:	11812a03          	lw	s4,280(sp)
    e614:	11412a83          	lw	s5,276(sp)
    e618:	11012b03          	lw	s6,272(sp)
    e61c:	10c12b83          	lw	s7,268(sp)
    e620:	10812c03          	lw	s8,264(sp)
    e624:	10412c83          	lw	s9,260(sp)
    e628:	10012d03          	lw	s10,256(sp)
    e62c:	0fc12d83          	lw	s11,252(sp)
    e630:	13010113          	addi	sp,sp,304
    e634:	00008067          	ret
    e638:	000a0513          	mv	a0,s4
    e63c:	898f80ef          	jal	ra,66d4 <_localeconv_r>
    e640:	00452783          	lw	a5,4(a0)
    e644:	00078513          	mv	a0,a5
    e648:	00f12e23          	sw	a5,28(sp)
    e64c:	d70fa0ef          	jal	ra,8bbc <strlen>
    e650:	00050793          	mv	a5,a0
    e654:	000a0513          	mv	a0,s4
    e658:	00078a93          	mv	s5,a5
    e65c:	02f12023          	sw	a5,32(sp)
    e660:	874f80ef          	jal	ra,66d4 <_localeconv_r>
    e664:	00852783          	lw	a5,8(a0)
    e668:	00f12c23          	sw	a5,24(sp)
    e66c:	180a9ce3          	bnez	s5,f004 <_svfiprintf_r+0xccc>
    e670:	000d4703          	lbu	a4,0(s10)
    e674:	dddff06f          	j	e450 <_svfiprintf_r+0x118>
    e678:	000d4703          	lbu	a4,0(s10)
    e67c:	020cec93          	ori	s9,s9,32
    e680:	dd1ff06f          	j	e450 <_svfiprintf_r+0x118>
    e684:	010cec93          	ori	s9,s9,16
    e688:	020cf793          	andi	a5,s9,32
    e68c:	1e078c63          	beqz	a5,e884 <_svfiprintf_r+0x54c>
    e690:	01012783          	lw	a5,16(sp)
    e694:	00778793          	addi	a5,a5,7
    e698:	ff87f713          	andi	a4,a5,-8
    e69c:	00472783          	lw	a5,4(a4)
    e6a0:	00072483          	lw	s1,0(a4)
    e6a4:	00870713          	addi	a4,a4,8
    e6a8:	00e12823          	sw	a4,16(sp)
    e6ac:	00078b93          	mv	s7,a5
    e6b0:	2007c263          	bltz	a5,e8b4 <_svfiprintf_r+0x57c>
    e6b4:	fff00793          	li	a5,-1
    e6b8:	000c8d93          	mv	s11,s9
    e6bc:	00fb0863          	beq	s6,a5,e6cc <_svfiprintf_r+0x394>
    e6c0:	0174e7b3          	or	a5,s1,s7
    e6c4:	f7fcfd93          	andi	s11,s9,-129
    e6c8:	00078ee3          	beqz	a5,eee4 <_svfiprintf_r+0xbac>
    e6cc:	080b96e3          	bnez	s7,ef58 <_svfiprintf_r+0xc20>
    e6d0:	00900793          	li	a5,9
    e6d4:	0897e2e3          	bltu	a5,s1,ef58 <_svfiprintf_r+0xc20>
    e6d8:	03048493          	addi	s1,s1,48
    e6dc:	00100793          	li	a5,1
    e6e0:	0e9107a3          	sb	s1,239(sp)
    e6e4:	000d8c93          	mv	s9,s11
    e6e8:	00f12423          	sw	a5,8(sp)
    e6ec:	0ef10a93          	addi	s5,sp,239
    e6f0:	0700006f          	j	e760 <_svfiprintf_r+0x428>
    e6f4:	010cec93          	ori	s9,s9,16
    e6f8:	020cf793          	andi	a5,s9,32
    e6fc:	14078e63          	beqz	a5,e858 <_svfiprintf_r+0x520>
    e700:	01012783          	lw	a5,16(sp)
    e704:	00778793          	addi	a5,a5,7
    e708:	ff87f793          	andi	a5,a5,-8
    e70c:	0007a483          	lw	s1,0(a5)
    e710:	0047ab83          	lw	s7,4(a5)
    e714:	00878793          	addi	a5,a5,8
    e718:	00f12823          	sw	a5,16(sp)
    e71c:	bffcfd93          	andi	s11,s9,-1025
    e720:	00000793          	li	a5,0
    e724:	02010da3          	sb	zero,59(sp)
    e728:	fff00693          	li	a3,-1
    e72c:	1adb0863          	beq	s6,a3,e8dc <_svfiprintf_r+0x5a4>
    e730:	0174e633          	or	a2,s1,s7
    e734:	f7fdfc93          	andi	s9,s11,-129
    e738:	60061863          	bnez	a2,ed48 <_svfiprintf_r+0xa10>
    e73c:	400b1063          	bnez	s6,eb3c <_svfiprintf_r+0x804>
    e740:	7a079663          	bnez	a5,eeec <_svfiprintf_r+0xbb4>
    e744:	001df793          	andi	a5,s11,1
    e748:	00f12423          	sw	a5,8(sp)
    e74c:	0f010a93          	addi	s5,sp,240
    e750:	00078863          	beqz	a5,e760 <_svfiprintf_r+0x428>
    e754:	03000793          	li	a5,48
    e758:	0ef107a3          	sb	a5,239(sp)
    e75c:	0ef10a93          	addi	s5,sp,239
    e760:	00812783          	lw	a5,8(sp)
    e764:	000b0493          	mv	s1,s6
    e768:	00fb5463          	bge	s6,a5,e770 <_svfiprintf_r+0x438>
    e76c:	00078493          	mv	s1,a5
    e770:	03b14783          	lbu	a5,59(sp)
    e774:	00f037b3          	snez	a5,a5
    e778:	00f484b3          	add	s1,s1,a5
    e77c:	d55ff06f          	j	e4d0 <_svfiprintf_r+0x198>
    e780:	41a404b3          	sub	s1,s0,s10
    e784:	c7a418e3          	bne	s0,s10,e3f4 <_svfiprintf_r+0xbc>
    e788:	00044783          	lbu	a5,0(s0)
    e78c:	ca5ff06f          	j	e430 <_svfiprintf_r+0xf8>
    e790:	04010613          	addi	a2,sp,64
    e794:	00090593          	mv	a1,s2
    e798:	000a0513          	mv	a0,s4
    e79c:	9e1ff0ef          	jal	ra,e17c <__ssprint_r>
    e7a0:	e40516e3          	bnez	a0,e5ec <_svfiprintf_r+0x2b4>
    e7a4:	00098c13          	mv	s8,s3
    e7a8:	c79ff06f          	j	e420 <_svfiprintf_r+0xe8>
    e7ac:	01000693          	li	a3,16
    e7b0:	04412703          	lw	a4,68(sp)
    e7b4:	00012d97          	auipc	s11,0x12
    e7b8:	550d8d93          	addi	s11,s11,1360 # 20d04 <blanks.1>
    e7bc:	01000b93          	li	s7,16
    e7c0:	00700c13          	li	s8,7
    e7c4:	0156c863          	blt	a3,s5,e7d4 <_svfiprintf_r+0x49c>
    e7c8:	0540006f          	j	e81c <_svfiprintf_r+0x4e4>
    e7cc:	ff0a8a93          	addi	s5,s5,-16
    e7d0:	055bd663          	bge	s7,s5,e81c <_svfiprintf_r+0x4e4>
    e7d4:	01078793          	addi	a5,a5,16
    e7d8:	00170713          	addi	a4,a4,1
    e7dc:	01b62023          	sw	s11,0(a2)
    e7e0:	01762223          	sw	s7,4(a2)
    e7e4:	04f12423          	sw	a5,72(sp)
    e7e8:	04e12223          	sw	a4,68(sp)
    e7ec:	00860613          	addi	a2,a2,8
    e7f0:	fcec5ee3          	bge	s8,a4,e7cc <_svfiprintf_r+0x494>
    e7f4:	04010613          	addi	a2,sp,64
    e7f8:	00090593          	mv	a1,s2
    e7fc:	000a0513          	mv	a0,s4
    e800:	97dff0ef          	jal	ra,e17c <__ssprint_r>
    e804:	de0514e3          	bnez	a0,e5ec <_svfiprintf_r+0x2b4>
    e808:	ff0a8a93          	addi	s5,s5,-16
    e80c:	04812783          	lw	a5,72(sp)
    e810:	04412703          	lw	a4,68(sp)
    e814:	00098613          	mv	a2,s3
    e818:	fb5bcee3          	blt	s7,s5,e7d4 <_svfiprintf_r+0x49c>
    e81c:	015787b3          	add	a5,a5,s5
    e820:	00170713          	addi	a4,a4,1
    e824:	01b62023          	sw	s11,0(a2)
    e828:	01562223          	sw	s5,4(a2)
    e82c:	04f12423          	sw	a5,72(sp)
    e830:	04e12223          	sw	a4,68(sp)
    e834:	00700693          	li	a3,7
    e838:	d8e6d2e3          	bge	a3,a4,e5bc <_svfiprintf_r+0x284>
    e83c:	04010613          	addi	a2,sp,64
    e840:	00090593          	mv	a1,s2
    e844:	000a0513          	mv	a0,s4
    e848:	935ff0ef          	jal	ra,e17c <__ssprint_r>
    e84c:	da0510e3          	bnez	a0,e5ec <_svfiprintf_r+0x2b4>
    e850:	04812783          	lw	a5,72(sp)
    e854:	d69ff06f          	j	e5bc <_svfiprintf_r+0x284>
    e858:	01012683          	lw	a3,16(sp)
    e85c:	010cf793          	andi	a5,s9,16
    e860:	00468713          	addi	a4,a3,4
    e864:	7e079263          	bnez	a5,f048 <_svfiprintf_r+0xd10>
    e868:	040cf793          	andi	a5,s9,64
    e86c:	1c0788e3          	beqz	a5,f23c <_svfiprintf_r+0xf04>
    e870:	01012783          	lw	a5,16(sp)
    e874:	00000b93          	li	s7,0
    e878:	00e12823          	sw	a4,16(sp)
    e87c:	0007d483          	lhu	s1,0(a5)
    e880:	e9dff06f          	j	e71c <_svfiprintf_r+0x3e4>
    e884:	01012683          	lw	a3,16(sp)
    e888:	010cf793          	andi	a5,s9,16
    e88c:	00468713          	addi	a4,a3,4
    e890:	7a079263          	bnez	a5,f034 <_svfiprintf_r+0xcfc>
    e894:	040cf793          	andi	a5,s9,64
    e898:	1c0780e3          	beqz	a5,f258 <_svfiprintf_r+0xf20>
    e89c:	01012783          	lw	a5,16(sp)
    e8a0:	00e12823          	sw	a4,16(sp)
    e8a4:	00079483          	lh	s1,0(a5)
    e8a8:	41f4db93          	srai	s7,s1,0x1f
    e8ac:	000b8793          	mv	a5,s7
    e8b0:	e007d2e3          	bgez	a5,e6b4 <_svfiprintf_r+0x37c>
    e8b4:	009037b3          	snez	a5,s1
    e8b8:	41700bb3          	neg	s7,s7
    e8bc:	40fb8bb3          	sub	s7,s7,a5
    e8c0:	02d00793          	li	a5,45
    e8c4:	02f10da3          	sb	a5,59(sp)
    e8c8:	fff00693          	li	a3,-1
    e8cc:	409004b3          	neg	s1,s1
    e8d0:	000c8d93          	mv	s11,s9
    e8d4:	00100793          	li	a5,1
    e8d8:	e4db1ce3          	bne	s6,a3,e730 <_svfiprintf_r+0x3f8>
    e8dc:	00100693          	li	a3,1
    e8e0:	ded786e3          	beq	a5,a3,e6cc <_svfiprintf_r+0x394>
    e8e4:	00200693          	li	a3,2
    e8e8:	26d78463          	beq	a5,a3,eb50 <_svfiprintf_r+0x818>
    e8ec:	0f010a93          	addi	s5,sp,240
    e8f0:	01db9713          	slli	a4,s7,0x1d
    e8f4:	0074f793          	andi	a5,s1,7
    e8f8:	0034d493          	srli	s1,s1,0x3
    e8fc:	03078793          	addi	a5,a5,48
    e900:	009764b3          	or	s1,a4,s1
    e904:	003bdb93          	srli	s7,s7,0x3
    e908:	fefa8fa3          	sb	a5,-1(s5)
    e90c:	0174e733          	or	a4,s1,s7
    e910:	000a8613          	mv	a2,s5
    e914:	fffa8a93          	addi	s5,s5,-1
    e918:	fc071ce3          	bnez	a4,e8f0 <_svfiprintf_r+0x5b8>
    e91c:	001df693          	andi	a3,s11,1
    e920:	26068263          	beqz	a3,eb84 <_svfiprintf_r+0x84c>
    e924:	03000693          	li	a3,48
    e928:	24d78e63          	beq	a5,a3,eb84 <_svfiprintf_r+0x84c>
    e92c:	ffe60613          	addi	a2,a2,-2
    e930:	0f010793          	addi	a5,sp,240
    e934:	40c787b3          	sub	a5,a5,a2
    e938:	feda8fa3          	sb	a3,-1(s5)
    e93c:	00f12423          	sw	a5,8(sp)
    e940:	000d8c93          	mv	s9,s11
    e944:	00060a93          	mv	s5,a2
    e948:	e19ff06f          	j	e760 <_svfiprintf_r+0x428>
    e94c:	01012783          	lw	a5,16(sp)
    e950:	02010da3          	sb	zero,59(sp)
    e954:	0007aa83          	lw	s5,0(a5)
    e958:	00478b93          	addi	s7,a5,4
    e95c:	080a8ee3          	beqz	s5,f1f8 <_svfiprintf_r+0xec0>
    e960:	fff00793          	li	a5,-1
    e964:	7afb0063          	beq	s6,a5,f104 <_svfiprintf_r+0xdcc>
    e968:	000b0613          	mv	a2,s6
    e96c:	00000593          	li	a1,0
    e970:	000a8513          	mv	a0,s5
    e974:	91df80ef          	jal	ra,7290 <memchr>
    e978:	1a0508e3          	beqz	a0,f328 <_svfiprintf_r+0xff0>
    e97c:	415507b3          	sub	a5,a0,s5
    e980:	00f12423          	sw	a5,8(sp)
    e984:	01712823          	sw	s7,16(sp)
    e988:	00000b13          	li	s6,0
    e98c:	dd5ff06f          	j	e760 <_svfiprintf_r+0x428>
    e990:	01012703          	lw	a4,16(sp)
    e994:	02010da3          	sb	zero,59(sp)
    e998:	00100493          	li	s1,1
    e99c:	00072783          	lw	a5,0(a4)
    e9a0:	00470713          	addi	a4,a4,4
    e9a4:	00e12823          	sw	a4,16(sp)
    e9a8:	08f10623          	sb	a5,140(sp)
    e9ac:	00100793          	li	a5,1
    e9b0:	00f12423          	sw	a5,8(sp)
    e9b4:	08c10a93          	addi	s5,sp,140
    e9b8:	b15ff06f          	j	e4cc <_svfiprintf_r+0x194>
    e9bc:	01012783          	lw	a5,16(sp)
    e9c0:	02412703          	lw	a4,36(sp)
    e9c4:	00000b93          	li	s7,0
    e9c8:	0007a483          	lw	s1,0(a5)
    e9cc:	00478793          	addi	a5,a5,4
    e9d0:	00f12823          	sw	a5,16(sp)
    e9d4:	00011797          	auipc	a5,0x11
    e9d8:	6bc78793          	addi	a5,a5,1724 # 20090 <__malloc_trim_threshold+0x58>
    e9dc:	00f12a23          	sw	a5,20(sp)
    e9e0:	002ced93          	ori	s11,s9,2
    e9e4:	02e11e23          	sh	a4,60(sp)
    e9e8:	00200793          	li	a5,2
    e9ec:	d39ff06f          	j	e724 <_svfiprintf_r+0x3ec>
    e9f0:	01012683          	lw	a3,16(sp)
    e9f4:	020cf793          	andi	a5,s9,32
    e9f8:	0006a703          	lw	a4,0(a3)
    e9fc:	00468693          	addi	a3,a3,4
    ea00:	00d12823          	sw	a3,16(sp)
    ea04:	60079e63          	bnez	a5,f020 <_svfiprintf_r+0xce8>
    ea08:	010cf793          	andi	a5,s9,16
    ea0c:	7e079063          	bnez	a5,f1ec <_svfiprintf_r+0xeb4>
    ea10:	040cf793          	andi	a5,s9,64
    ea14:	0e079ae3          	bnez	a5,f308 <_svfiprintf_r+0xfd0>
    ea18:	200cf693          	andi	a3,s9,512
    ea1c:	7c068863          	beqz	a3,f1ec <_svfiprintf_r+0xeb4>
    ea20:	00c12783          	lw	a5,12(sp)
    ea24:	00f70023          	sb	a5,0(a4)
    ea28:	9a5ff06f          	j	e3cc <_svfiprintf_r+0x94>
    ea2c:	000d4703          	lbu	a4,0(s10)
    ea30:	080cec93          	ori	s9,s9,128
    ea34:	a1dff06f          	j	e450 <_svfiprintf_r+0x118>
    ea38:	000d4703          	lbu	a4,0(s10)
    ea3c:	001d0693          	addi	a3,s10,1
    ea40:	129700e3          	beq	a4,s1,f360 <_svfiprintf_r+0x1028>
    ea44:	00068d13          	mv	s10,a3
    ea48:	fd070793          	addi	a5,a4,-48
    ea4c:	00900693          	li	a3,9
    ea50:	00000b13          	li	s6,0
    ea54:	a0f6e2e3          	bltu	a3,a5,e458 <_svfiprintf_r+0x120>
    ea58:	000d4703          	lbu	a4,0(s10)
    ea5c:	002b1693          	slli	a3,s6,0x2
    ea60:	01668b33          	add	s6,a3,s6
    ea64:	001b1b13          	slli	s6,s6,0x1
    ea68:	00fb0b33          	add	s6,s6,a5
    ea6c:	00900693          	li	a3,9
    ea70:	fd070793          	addi	a5,a4,-48
    ea74:	001d0d13          	addi	s10,s10,1
    ea78:	fef6f0e3          	bgeu	a3,a5,ea58 <_svfiprintf_r+0x720>
    ea7c:	9ddff06f          	j	e458 <_svfiprintf_r+0x120>
    ea80:	000d4703          	lbu	a4,0(s10)
    ea84:	004cec93          	ori	s9,s9,4
    ea88:	9c9ff06f          	j	e450 <_svfiprintf_r+0x118>
    ea8c:	02b00793          	li	a5,43
    ea90:	000d4703          	lbu	a4,0(s10)
    ea94:	02f10da3          	sb	a5,59(sp)
    ea98:	9b9ff06f          	j	e450 <_svfiprintf_r+0x118>
    ea9c:	01012783          	lw	a5,16(sp)
    eaa0:	000d4703          	lbu	a4,0(s10)
    eaa4:	0007a403          	lw	s0,0(a5)
    eaa8:	00478793          	addi	a5,a5,4
    eaac:	00f12823          	sw	a5,16(sp)
    eab0:	9a0450e3          	bgez	s0,e450 <_svfiprintf_r+0x118>
    eab4:	40800433          	neg	s0,s0
    eab8:	004cec93          	ori	s9,s9,4
    eabc:	995ff06f          	j	e450 <_svfiprintf_r+0x118>
    eac0:	000d4703          	lbu	a4,0(s10)
    eac4:	001cec93          	ori	s9,s9,1
    eac8:	989ff06f          	j	e450 <_svfiprintf_r+0x118>
    eacc:	03b14783          	lbu	a5,59(sp)
    ead0:	000d4703          	lbu	a4,0(s10)
    ead4:	96079ee3          	bnez	a5,e450 <_svfiprintf_r+0x118>
    ead8:	02000793          	li	a5,32
    eadc:	02f10da3          	sb	a5,59(sp)
    eae0:	971ff06f          	j	e450 <_svfiprintf_r+0x118>
    eae4:	000d4703          	lbu	a4,0(s10)
    eae8:	06c00793          	li	a5,108
    eaec:	6ef70863          	beq	a4,a5,f1dc <_svfiprintf_r+0xea4>
    eaf0:	010cec93          	ori	s9,s9,16
    eaf4:	95dff06f          	j	e450 <_svfiprintf_r+0x118>
    eaf8:	000d4703          	lbu	a4,0(s10)
    eafc:	06800793          	li	a5,104
    eb00:	6cf70663          	beq	a4,a5,f1cc <_svfiprintf_r+0xe94>
    eb04:	040cec93          	ori	s9,s9,64
    eb08:	949ff06f          	j	e450 <_svfiprintf_r+0x118>
    eb0c:	010ced93          	ori	s11,s9,16
    eb10:	020df793          	andi	a5,s11,32
    eb14:	3e078463          	beqz	a5,eefc <_svfiprintf_r+0xbc4>
    eb18:	01012783          	lw	a5,16(sp)
    eb1c:	00778793          	addi	a5,a5,7
    eb20:	ff87f793          	andi	a5,a5,-8
    eb24:	0007a483          	lw	s1,0(a5)
    eb28:	0047ab83          	lw	s7,4(a5)
    eb2c:	00878793          	addi	a5,a5,8
    eb30:	00f12823          	sw	a5,16(sp)
    eb34:	00100793          	li	a5,1
    eb38:	bedff06f          	j	e724 <_svfiprintf_r+0x3ec>
    eb3c:	00100713          	li	a4,1
    eb40:	7ee78c63          	beq	a5,a4,f338 <_svfiprintf_r+0x1000>
    eb44:	00200713          	li	a4,2
    eb48:	000c8d93          	mv	s11,s9
    eb4c:	dae790e3          	bne	a5,a4,e8ec <_svfiprintf_r+0x5b4>
    eb50:	01412683          	lw	a3,20(sp)
    eb54:	0f010a93          	addi	s5,sp,240
    eb58:	00f4f793          	andi	a5,s1,15
    eb5c:	00f687b3          	add	a5,a3,a5
    eb60:	0007c703          	lbu	a4,0(a5)
    eb64:	0044d493          	srli	s1,s1,0x4
    eb68:	01cb9793          	slli	a5,s7,0x1c
    eb6c:	0097e4b3          	or	s1,a5,s1
    eb70:	004bdb93          	srli	s7,s7,0x4
    eb74:	feea8fa3          	sb	a4,-1(s5)
    eb78:	0174e7b3          	or	a5,s1,s7
    eb7c:	fffa8a93          	addi	s5,s5,-1
    eb80:	fc079ce3          	bnez	a5,eb58 <_svfiprintf_r+0x820>
    eb84:	0f010793          	addi	a5,sp,240
    eb88:	415787b3          	sub	a5,a5,s5
    eb8c:	00f12423          	sw	a5,8(sp)
    eb90:	000d8c93          	mv	s9,s11
    eb94:	bcdff06f          	j	e760 <_svfiprintf_r+0x428>
    eb98:	40940bb3          	sub	s7,s0,s1
    eb9c:	9f7052e3          	blez	s7,e580 <_svfiprintf_r+0x248>
    eba0:	01000513          	li	a0,16
    eba4:	79755e63          	bge	a0,s7,f340 <_svfiprintf_r+0x1008>
    eba8:	00012d97          	auipc	s11,0x12
    ebac:	16cd8d93          	addi	s11,s11,364 # 20d14 <zeroes.0>
    ebb0:	01000693          	li	a3,16
    ebb4:	00700e93          	li	t4,7
    ebb8:	00c0006f          	j	ebc4 <_svfiprintf_r+0x88c>
    ebbc:	ff0b8b93          	addi	s7,s7,-16
    ebc0:	0576da63          	bge	a3,s7,ec14 <_svfiprintf_r+0x8dc>
    ebc4:	01078793          	addi	a5,a5,16
    ebc8:	00170713          	addi	a4,a4,1
    ebcc:	01bc2023          	sw	s11,0(s8)
    ebd0:	00dc2223          	sw	a3,4(s8)
    ebd4:	04f12423          	sw	a5,72(sp)
    ebd8:	04e12223          	sw	a4,68(sp)
    ebdc:	008c0c13          	addi	s8,s8,8
    ebe0:	fceedee3          	bge	t4,a4,ebbc <_svfiprintf_r+0x884>
    ebe4:	04010613          	addi	a2,sp,64
    ebe8:	00090593          	mv	a1,s2
    ebec:	000a0513          	mv	a0,s4
    ebf0:	d8cff0ef          	jal	ra,e17c <__ssprint_r>
    ebf4:	9e051ce3          	bnez	a0,e5ec <_svfiprintf_r+0x2b4>
    ebf8:	01000693          	li	a3,16
    ebfc:	ff0b8b93          	addi	s7,s7,-16
    ec00:	04812783          	lw	a5,72(sp)
    ec04:	04412703          	lw	a4,68(sp)
    ec08:	00098c13          	mv	s8,s3
    ec0c:	00700e93          	li	t4,7
    ec10:	fb76cae3          	blt	a3,s7,ebc4 <_svfiprintf_r+0x88c>
    ec14:	00170713          	addi	a4,a4,1
    ec18:	008c0513          	addi	a0,s8,8
    ec1c:	017787b3          	add	a5,a5,s7
    ec20:	01bc2023          	sw	s11,0(s8)
    ec24:	017c2223          	sw	s7,4(s8)
    ec28:	04f12423          	sw	a5,72(sp)
    ec2c:	04e12223          	sw	a4,68(sp)
    ec30:	00700613          	li	a2,7
    ec34:	56e64663          	blt	a2,a4,f1a0 <_svfiprintf_r+0xe68>
    ec38:	00812683          	lw	a3,8(sp)
    ec3c:	00170593          	addi	a1,a4,1
    ec40:	00850613          	addi	a2,a0,8
    ec44:	40db0b33          	sub	s6,s6,a3
    ec48:	00050c13          	mv	s8,a0
    ec4c:	956050e3          	blez	s6,e58c <_svfiprintf_r+0x254>
    ec50:	01000513          	li	a0,16
    ec54:	65655063          	bge	a0,s6,f294 <_svfiprintf_r+0xf5c>
    ec58:	00012d97          	auipc	s11,0x12
    ec5c:	0bcd8d93          	addi	s11,s11,188 # 20d14 <zeroes.0>
    ec60:	01000b93          	li	s7,16
    ec64:	00700313          	li	t1,7
    ec68:	00c0006f          	j	ec74 <_svfiprintf_r+0x93c>
    ec6c:	ff0b0b13          	addi	s6,s6,-16
    ec70:	056bd863          	bge	s7,s6,ecc0 <_svfiprintf_r+0x988>
    ec74:	01078793          	addi	a5,a5,16
    ec78:	00170713          	addi	a4,a4,1
    ec7c:	01bc2023          	sw	s11,0(s8)
    ec80:	017c2223          	sw	s7,4(s8)
    ec84:	04f12423          	sw	a5,72(sp)
    ec88:	04e12223          	sw	a4,68(sp)
    ec8c:	008c0c13          	addi	s8,s8,8
    ec90:	fce35ee3          	bge	t1,a4,ec6c <_svfiprintf_r+0x934>
    ec94:	04010613          	addi	a2,sp,64
    ec98:	00090593          	mv	a1,s2
    ec9c:	000a0513          	mv	a0,s4
    eca0:	cdcff0ef          	jal	ra,e17c <__ssprint_r>
    eca4:	940514e3          	bnez	a0,e5ec <_svfiprintf_r+0x2b4>
    eca8:	ff0b0b13          	addi	s6,s6,-16
    ecac:	04812783          	lw	a5,72(sp)
    ecb0:	04412703          	lw	a4,68(sp)
    ecb4:	00098c13          	mv	s8,s3
    ecb8:	00700313          	li	t1,7
    ecbc:	fb6bcce3          	blt	s7,s6,ec74 <_svfiprintf_r+0x93c>
    ecc0:	00170593          	addi	a1,a4,1
    ecc4:	008c0713          	addi	a4,s8,8
    ecc8:	016787b3          	add	a5,a5,s6
    eccc:	01bc2023          	sw	s11,0(s8)
    ecd0:	016c2223          	sw	s6,4(s8)
    ecd4:	04f12423          	sw	a5,72(sp)
    ecd8:	04b12223          	sw	a1,68(sp)
    ecdc:	00700613          	li	a2,7
    ece0:	24b64663          	blt	a2,a1,ef2c <_svfiprintf_r+0xbf4>
    ece4:	00070c13          	mv	s8,a4
    ece8:	00870613          	addi	a2,a4,8
    ecec:	00812703          	lw	a4,8(sp)
    ecf0:	00158593          	addi	a1,a1,1
    ecf4:	015c2023          	sw	s5,0(s8)
    ecf8:	00f707b3          	add	a5,a4,a5
    ecfc:	00ec2223          	sw	a4,4(s8)
    ed00:	04f12423          	sw	a5,72(sp)
    ed04:	04b12223          	sw	a1,68(sp)
    ed08:	00700713          	li	a4,7
    ed0c:	8ab750e3          	bge	a4,a1,e5ac <_svfiprintf_r+0x274>
    ed10:	04010613          	addi	a2,sp,64
    ed14:	00090593          	mv	a1,s2
    ed18:	000a0513          	mv	a0,s4
    ed1c:	c60ff0ef          	jal	ra,e17c <__ssprint_r>
    ed20:	8c0516e3          	bnez	a0,e5ec <_svfiprintf_r+0x2b4>
    ed24:	04812783          	lw	a5,72(sp)
    ed28:	00098613          	mv	a2,s3
    ed2c:	881ff06f          	j	e5ac <_svfiprintf_r+0x274>
    ed30:	04010613          	addi	a2,sp,64
    ed34:	00090593          	mv	a1,s2
    ed38:	000a0513          	mv	a0,s4
    ed3c:	c40ff0ef          	jal	ra,e17c <__ssprint_r>
    ed40:	88050ae3          	beqz	a0,e5d4 <_svfiprintf_r+0x29c>
    ed44:	8a9ff06f          	j	e5ec <_svfiprintf_r+0x2b4>
    ed48:	000c8d93          	mv	s11,s9
    ed4c:	b91ff06f          	j	e8dc <_svfiprintf_r+0x5a4>
    ed50:	01000613          	li	a2,16
    ed54:	00012d97          	auipc	s11,0x12
    ed58:	fb0d8d93          	addi	s11,s11,-80 # 20d04 <blanks.1>
    ed5c:	0d765063          	bge	a2,s7,ee1c <_svfiprintf_r+0xae4>
    ed60:	00090613          	mv	a2,s2
    ed64:	000d8693          	mv	a3,s11
    ed68:	000b8913          	mv	s2,s7
    ed6c:	000d0d93          	mv	s11,s10
    ed70:	000b0b93          	mv	s7,s6
    ed74:	00048d13          	mv	s10,s1
    ed78:	00040b13          	mv	s6,s0
    ed7c:	01000e13          	li	t3,16
    ed80:	00700f93          	li	t6,7
    ed84:	03e12423          	sw	t5,40(sp)
    ed88:	03d12623          	sw	t4,44(sp)
    ed8c:	00068493          	mv	s1,a3
    ed90:	00060413          	mv	s0,a2
    ed94:	00c0006f          	j	eda0 <_svfiprintf_r+0xa68>
    ed98:	ff090913          	addi	s2,s2,-16
    ed9c:	052e5a63          	bge	t3,s2,edf0 <_svfiprintf_r+0xab8>
    eda0:	01078793          	addi	a5,a5,16
    eda4:	00170713          	addi	a4,a4,1
    eda8:	009c2023          	sw	s1,0(s8)
    edac:	01cc2223          	sw	t3,4(s8)
    edb0:	04f12423          	sw	a5,72(sp)
    edb4:	04e12223          	sw	a4,68(sp)
    edb8:	008c0c13          	addi	s8,s8,8
    edbc:	fcefdee3          	bge	t6,a4,ed98 <_svfiprintf_r+0xa60>
    edc0:	04010613          	addi	a2,sp,64
    edc4:	00040593          	mv	a1,s0
    edc8:	000a0513          	mv	a0,s4
    edcc:	bb0ff0ef          	jal	ra,e17c <__ssprint_r>
    edd0:	3a051663          	bnez	a0,f17c <_svfiprintf_r+0xe44>
    edd4:	01000e13          	li	t3,16
    edd8:	ff090913          	addi	s2,s2,-16
    eddc:	04812783          	lw	a5,72(sp)
    ede0:	04412703          	lw	a4,68(sp)
    ede4:	00098c13          	mv	s8,s3
    ede8:	00700f93          	li	t6,7
    edec:	fb2e4ae3          	blt	t3,s2,eda0 <_svfiprintf_r+0xa68>
    edf0:	02812f03          	lw	t5,40(sp)
    edf4:	02c12e83          	lw	t4,44(sp)
    edf8:	00040613          	mv	a2,s0
    edfc:	00048693          	mv	a3,s1
    ee00:	000b0413          	mv	s0,s6
    ee04:	000d0493          	mv	s1,s10
    ee08:	000b8b13          	mv	s6,s7
    ee0c:	000d8d13          	mv	s10,s11
    ee10:	00090b93          	mv	s7,s2
    ee14:	00068d93          	mv	s11,a3
    ee18:	00060913          	mv	s2,a2
    ee1c:	017787b3          	add	a5,a5,s7
    ee20:	00170713          	addi	a4,a4,1
    ee24:	01bc2023          	sw	s11,0(s8)
    ee28:	017c2223          	sw	s7,4(s8)
    ee2c:	04f12423          	sw	a5,72(sp)
    ee30:	04e12223          	sw	a4,68(sp)
    ee34:	00700613          	li	a2,7
    ee38:	008c0c13          	addi	s8,s8,8
    ee3c:	eae65c63          	bge	a2,a4,e4f4 <_svfiprintf_r+0x1bc>
    ee40:	04010613          	addi	a2,sp,64
    ee44:	00090593          	mv	a1,s2
    ee48:	000a0513          	mv	a0,s4
    ee4c:	03d12623          	sw	t4,44(sp)
    ee50:	03e12423          	sw	t5,40(sp)
    ee54:	b28ff0ef          	jal	ra,e17c <__ssprint_r>
    ee58:	f8051a63          	bnez	a0,e5ec <_svfiprintf_r+0x2b4>
    ee5c:	04812783          	lw	a5,72(sp)
    ee60:	04412703          	lw	a4,68(sp)
    ee64:	02c12e83          	lw	t4,44(sp)
    ee68:	02812f03          	lw	t5,40(sp)
    ee6c:	00098c13          	mv	s8,s3
    ee70:	e84ff06f          	j	e4f4 <_svfiprintf_r+0x1bc>
    ee74:	04010613          	addi	a2,sp,64
    ee78:	00090593          	mv	a1,s2
    ee7c:	000a0513          	mv	a0,s4
    ee80:	03d12623          	sw	t4,44(sp)
    ee84:	03e12423          	sw	t5,40(sp)
    ee88:	af4ff0ef          	jal	ra,e17c <__ssprint_r>
    ee8c:	f6051063          	bnez	a0,e5ec <_svfiprintf_r+0x2b4>
    ee90:	04412703          	lw	a4,68(sp)
    ee94:	04812783          	lw	a5,72(sp)
    ee98:	02c12e83          	lw	t4,44(sp)
    ee9c:	02812f03          	lw	t5,40(sp)
    eea0:	05410613          	addi	a2,sp,84
    eea4:	00170593          	addi	a1,a4,1
    eea8:	00098c13          	mv	s8,s3
    eeac:	e94ff06f          	j	e540 <_svfiprintf_r+0x208>
    eeb0:	04010613          	addi	a2,sp,64
    eeb4:	00090593          	mv	a1,s2
    eeb8:	000a0513          	mv	a0,s4
    eebc:	03d12423          	sw	t4,40(sp)
    eec0:	abcff0ef          	jal	ra,e17c <__ssprint_r>
    eec4:	f2051463          	bnez	a0,e5ec <_svfiprintf_r+0x2b4>
    eec8:	04412703          	lw	a4,68(sp)
    eecc:	04812783          	lw	a5,72(sp)
    eed0:	02812e83          	lw	t4,40(sp)
    eed4:	05410613          	addi	a2,sp,84
    eed8:	00170593          	addi	a1,a4,1
    eedc:	00098c13          	mv	s8,s3
    eee0:	e98ff06f          	j	e578 <_svfiprintf_r+0x240>
    eee4:	fe0b1a63          	bnez	s6,e6d8 <_svfiprintf_r+0x3a0>
    eee8:	000d8c93          	mv	s9,s11
    eeec:	00000b13          	li	s6,0
    eef0:	00012423          	sw	zero,8(sp)
    eef4:	0f010a93          	addi	s5,sp,240
    eef8:	869ff06f          	j	e760 <_svfiprintf_r+0x428>
    eefc:	01012703          	lw	a4,16(sp)
    ef00:	010df793          	andi	a5,s11,16
    ef04:	00470693          	addi	a3,a4,4
    ef08:	14079863          	bnez	a5,f058 <_svfiprintf_r+0xd20>
    ef0c:	040df793          	andi	a5,s11,64
    ef10:	30078663          	beqz	a5,f21c <_svfiprintf_r+0xee4>
    ef14:	01012783          	lw	a5,16(sp)
    ef18:	00000b93          	li	s7,0
    ef1c:	00d12823          	sw	a3,16(sp)
    ef20:	0007d483          	lhu	s1,0(a5)
    ef24:	00100793          	li	a5,1
    ef28:	ffcff06f          	j	e724 <_svfiprintf_r+0x3ec>
    ef2c:	04010613          	addi	a2,sp,64
    ef30:	00090593          	mv	a1,s2
    ef34:	000a0513          	mv	a0,s4
    ef38:	a44ff0ef          	jal	ra,e17c <__ssprint_r>
    ef3c:	ea051863          	bnez	a0,e5ec <_svfiprintf_r+0x2b4>
    ef40:	04412583          	lw	a1,68(sp)
    ef44:	04812783          	lw	a5,72(sp)
    ef48:	05410613          	addi	a2,sp,84
    ef4c:	00158593          	addi	a1,a1,1
    ef50:	00098c13          	mv	s8,s3
    ef54:	e38ff06f          	j	e58c <_svfiprintf_r+0x254>
    ef58:	400df793          	andi	a5,s11,1024
    ef5c:	00812423          	sw	s0,8(sp)
    ef60:	03212423          	sw	s2,40(sp)
    ef64:	00048413          	mv	s0,s1
    ef68:	000b8913          	mv	s2,s7
    ef6c:	00000c93          	li	s9,0
    ef70:	01812b83          	lw	s7,24(sp)
    ef74:	0f010a93          	addi	s5,sp,240
    ef78:	00078493          	mv	s1,a5
    ef7c:	0240006f          	j	efa0 <_svfiprintf_r+0xc68>
    ef80:	00a00613          	li	a2,10
    ef84:	00000693          	li	a3,0
    ef88:	00040513          	mv	a0,s0
    ef8c:	00090593          	mv	a1,s2
    ef90:	4bd000ef          	jal	ra,fc4c <__udivdi3>
    ef94:	30090863          	beqz	s2,f2a4 <_svfiprintf_r+0xf6c>
    ef98:	00050413          	mv	s0,a0
    ef9c:	00058913          	mv	s2,a1
    efa0:	00a00613          	li	a2,10
    efa4:	00000693          	li	a3,0
    efa8:	00040513          	mv	a0,s0
    efac:	00090593          	mv	a1,s2
    efb0:	13c010ef          	jal	ra,100ec <__umoddi3>
    efb4:	03050513          	addi	a0,a0,48
    efb8:	feaa8fa3          	sb	a0,-1(s5)
    efbc:	001c8c93          	addi	s9,s9,1
    efc0:	fffa8a93          	addi	s5,s5,-1
    efc4:	fa048ee3          	beqz	s1,ef80 <_svfiprintf_r+0xc48>
    efc8:	000bc683          	lbu	a3,0(s7)
    efcc:	fb969ae3          	bne	a3,s9,ef80 <_svfiprintf_r+0xc48>
    efd0:	0ff00793          	li	a5,255
    efd4:	fafc86e3          	beq	s9,a5,ef80 <_svfiprintf_r+0xc48>
    efd8:	16091263          	bnez	s2,f13c <_svfiprintf_r+0xe04>
    efdc:	00900793          	li	a5,9
    efe0:	1487ee63          	bltu	a5,s0,f13c <_svfiprintf_r+0xe04>
    efe4:	0f010793          	addi	a5,sp,240
    efe8:	415787b3          	sub	a5,a5,s5
    efec:	00812403          	lw	s0,8(sp)
    eff0:	02812903          	lw	s2,40(sp)
    eff4:	01712c23          	sw	s7,24(sp)
    eff8:	00f12423          	sw	a5,8(sp)
    effc:	000d8c93          	mv	s9,s11
    f000:	f60ff06f          	j	e760 <_svfiprintf_r+0x428>
    f004:	01812783          	lw	a5,24(sp)
    f008:	000d4703          	lbu	a4,0(s10)
    f00c:	c4078263          	beqz	a5,e450 <_svfiprintf_r+0x118>
    f010:	0007c783          	lbu	a5,0(a5)
    f014:	c2078e63          	beqz	a5,e450 <_svfiprintf_r+0x118>
    f018:	400cec93          	ori	s9,s9,1024
    f01c:	c34ff06f          	j	e450 <_svfiprintf_r+0x118>
    f020:	00c12683          	lw	a3,12(sp)
    f024:	41f6d793          	srai	a5,a3,0x1f
    f028:	00d72023          	sw	a3,0(a4)
    f02c:	00f72223          	sw	a5,4(a4)
    f030:	b9cff06f          	j	e3cc <_svfiprintf_r+0x94>
    f034:	0006a483          	lw	s1,0(a3)
    f038:	00e12823          	sw	a4,16(sp)
    f03c:	41f4db93          	srai	s7,s1,0x1f
    f040:	000b8793          	mv	a5,s7
    f044:	e6cff06f          	j	e6b0 <_svfiprintf_r+0x378>
    f048:	0006a483          	lw	s1,0(a3)
    f04c:	00000b93          	li	s7,0
    f050:	00e12823          	sw	a4,16(sp)
    f054:	ec8ff06f          	j	e71c <_svfiprintf_r+0x3e4>
    f058:	00072483          	lw	s1,0(a4)
    f05c:	00000b93          	li	s7,0
    f060:	00d12823          	sw	a3,16(sp)
    f064:	00100793          	li	a5,1
    f068:	ebcff06f          	j	e724 <_svfiprintf_r+0x3ec>
    f06c:	000c8d93          	mv	s11,s9
    f070:	aa1ff06f          	j	eb10 <_svfiprintf_r+0x7d8>
    f074:	00011797          	auipc	a5,0x11
    f078:	03078793          	addi	a5,a5,48 # 200a4 <__malloc_trim_threshold+0x6c>
    f07c:	00f12a23          	sw	a5,20(sp)
    f080:	020cf793          	andi	a5,s9,32
    f084:	06078063          	beqz	a5,f0e4 <_svfiprintf_r+0xdac>
    f088:	01012783          	lw	a5,16(sp)
    f08c:	00778793          	addi	a5,a5,7
    f090:	ff87f793          	andi	a5,a5,-8
    f094:	0007a483          	lw	s1,0(a5)
    f098:	0047ab83          	lw	s7,4(a5)
    f09c:	00878793          	addi	a5,a5,8
    f0a0:	00f12823          	sw	a5,16(sp)
    f0a4:	001cf793          	andi	a5,s9,1
    f0a8:	00078e63          	beqz	a5,f0c4 <_svfiprintf_r+0xd8c>
    f0ac:	0174e7b3          	or	a5,s1,s7
    f0b0:	00078a63          	beqz	a5,f0c4 <_svfiprintf_r+0xd8c>
    f0b4:	03000793          	li	a5,48
    f0b8:	02f10e23          	sb	a5,60(sp)
    f0bc:	02e10ea3          	sb	a4,61(sp)
    f0c0:	002cec93          	ori	s9,s9,2
    f0c4:	bffcfd93          	andi	s11,s9,-1025
    f0c8:	00200793          	li	a5,2
    f0cc:	e58ff06f          	j	e724 <_svfiprintf_r+0x3ec>
    f0d0:	00011797          	auipc	a5,0x11
    f0d4:	fc078793          	addi	a5,a5,-64 # 20090 <__malloc_trim_threshold+0x58>
    f0d8:	00f12a23          	sw	a5,20(sp)
    f0dc:	020cf793          	andi	a5,s9,32
    f0e0:	fa0794e3          	bnez	a5,f088 <_svfiprintf_r+0xd50>
    f0e4:	01012683          	lw	a3,16(sp)
    f0e8:	010cf793          	andi	a5,s9,16
    f0ec:	00468613          	addi	a2,a3,4
    f0f0:	08078a63          	beqz	a5,f184 <_svfiprintf_r+0xe4c>
    f0f4:	0006a483          	lw	s1,0(a3)
    f0f8:	00000b93          	li	s7,0
    f0fc:	00c12823          	sw	a2,16(sp)
    f100:	fa5ff06f          	j	f0a4 <_svfiprintf_r+0xd6c>
    f104:	000a8513          	mv	a0,s5
    f108:	ab5f90ef          	jal	ra,8bbc <strlen>
    f10c:	00a12423          	sw	a0,8(sp)
    f110:	01712823          	sw	s7,16(sp)
    f114:	00000b13          	li	s6,0
    f118:	e48ff06f          	j	e760 <_svfiprintf_r+0x428>
    f11c:	04000593          	li	a1,64
    f120:	931f70ef          	jal	ra,6a50 <_malloc_r>
    f124:	00a92023          	sw	a0,0(s2)
    f128:	00a92823          	sw	a0,16(s2)
    f12c:	24050c63          	beqz	a0,f384 <_svfiprintf_r+0x104c>
    f130:	04000793          	li	a5,64
    f134:	00f92a23          	sw	a5,20(s2)
    f138:	a5cff06f          	j	e394 <_svfiprintf_r+0x5c>
    f13c:	02012783          	lw	a5,32(sp)
    f140:	01c12583          	lw	a1,28(sp)
    f144:	00000c93          	li	s9,0
    f148:	40fa8ab3          	sub	s5,s5,a5
    f14c:	00078613          	mv	a2,a5
    f150:	000a8513          	mv	a0,s5
    f154:	af5f90ef          	jal	ra,8c48 <strncpy>
    f158:	001bc583          	lbu	a1,1(s7)
    f15c:	00a00613          	li	a2,10
    f160:	00000693          	li	a3,0
    f164:	00b03733          	snez	a4,a1
    f168:	00040513          	mv	a0,s0
    f16c:	00090593          	mv	a1,s2
    f170:	00eb8bb3          	add	s7,s7,a4
    f174:	2d9000ef          	jal	ra,fc4c <__udivdi3>
    f178:	e21ff06f          	j	ef98 <_svfiprintf_r+0xc60>
    f17c:	00040913          	mv	s2,s0
    f180:	c6cff06f          	j	e5ec <_svfiprintf_r+0x2b4>
    f184:	040cf793          	andi	a5,s9,64
    f188:	0e078863          	beqz	a5,f278 <_svfiprintf_r+0xf40>
    f18c:	01012783          	lw	a5,16(sp)
    f190:	00000b93          	li	s7,0
    f194:	00c12823          	sw	a2,16(sp)
    f198:	0007d483          	lhu	s1,0(a5)
    f19c:	f09ff06f          	j	f0a4 <_svfiprintf_r+0xd6c>
    f1a0:	04010613          	addi	a2,sp,64
    f1a4:	00090593          	mv	a1,s2
    f1a8:	000a0513          	mv	a0,s4
    f1ac:	fd1fe0ef          	jal	ra,e17c <__ssprint_r>
    f1b0:	c2051e63          	bnez	a0,e5ec <_svfiprintf_r+0x2b4>
    f1b4:	04412703          	lw	a4,68(sp)
    f1b8:	04812783          	lw	a5,72(sp)
    f1bc:	05410613          	addi	a2,sp,84
    f1c0:	00170593          	addi	a1,a4,1
    f1c4:	00098c13          	mv	s8,s3
    f1c8:	bb8ff06f          	j	e580 <_svfiprintf_r+0x248>
    f1cc:	001d4703          	lbu	a4,1(s10)
    f1d0:	200cec93          	ori	s9,s9,512
    f1d4:	001d0d13          	addi	s10,s10,1
    f1d8:	a78ff06f          	j	e450 <_svfiprintf_r+0x118>
    f1dc:	001d4703          	lbu	a4,1(s10)
    f1e0:	020cec93          	ori	s9,s9,32
    f1e4:	001d0d13          	addi	s10,s10,1
    f1e8:	a68ff06f          	j	e450 <_svfiprintf_r+0x118>
    f1ec:	00c12783          	lw	a5,12(sp)
    f1f0:	00f72023          	sw	a5,0(a4)
    f1f4:	9d8ff06f          	j	e3cc <_svfiprintf_r+0x94>
    f1f8:	01612423          	sw	s6,8(sp)
    f1fc:	00600793          	li	a5,6
    f200:	0167f463          	bgeu	a5,s6,f208 <_svfiprintf_r+0xed0>
    f204:	00f12423          	sw	a5,8(sp)
    f208:	00812483          	lw	s1,8(sp)
    f20c:	01712823          	sw	s7,16(sp)
    f210:	00011a97          	auipc	s5,0x11
    f214:	ea8a8a93          	addi	s5,s5,-344 # 200b8 <__malloc_trim_threshold+0x80>
    f218:	ab4ff06f          	j	e4cc <_svfiprintf_r+0x194>
    f21c:	200df793          	andi	a5,s11,512
    f220:	0c078863          	beqz	a5,f2f0 <_svfiprintf_r+0xfb8>
    f224:	01012783          	lw	a5,16(sp)
    f228:	00000b93          	li	s7,0
    f22c:	00d12823          	sw	a3,16(sp)
    f230:	0007c483          	lbu	s1,0(a5)
    f234:	00100793          	li	a5,1
    f238:	cecff06f          	j	e724 <_svfiprintf_r+0x3ec>
    f23c:	200cf793          	andi	a5,s9,512
    f240:	08078e63          	beqz	a5,f2dc <_svfiprintf_r+0xfa4>
    f244:	01012783          	lw	a5,16(sp)
    f248:	00000b93          	li	s7,0
    f24c:	00e12823          	sw	a4,16(sp)
    f250:	0007c483          	lbu	s1,0(a5)
    f254:	cc8ff06f          	j	e71c <_svfiprintf_r+0x3e4>
    f258:	200cf793          	andi	a5,s9,512
    f25c:	06078463          	beqz	a5,f2c4 <_svfiprintf_r+0xf8c>
    f260:	01012783          	lw	a5,16(sp)
    f264:	00e12823          	sw	a4,16(sp)
    f268:	00078483          	lb	s1,0(a5)
    f26c:	41f4db93          	srai	s7,s1,0x1f
    f270:	000b8793          	mv	a5,s7
    f274:	c3cff06f          	j	e6b0 <_svfiprintf_r+0x378>
    f278:	200cf793          	andi	a5,s9,512
    f27c:	02078a63          	beqz	a5,f2b0 <_svfiprintf_r+0xf78>
    f280:	01012783          	lw	a5,16(sp)
    f284:	00000b93          	li	s7,0
    f288:	00c12823          	sw	a2,16(sp)
    f28c:	0007c483          	lbu	s1,0(a5)
    f290:	e15ff06f          	j	f0a4 <_svfiprintf_r+0xd6c>
    f294:	00060713          	mv	a4,a2
    f298:	00012d97          	auipc	s11,0x12
    f29c:	a7cd8d93          	addi	s11,s11,-1412 # 20d14 <zeroes.0>
    f2a0:	a29ff06f          	j	ecc8 <_svfiprintf_r+0x990>
    f2a4:	00900793          	li	a5,9
    f2a8:	ce87e8e3          	bltu	a5,s0,ef98 <_svfiprintf_r+0xc60>
    f2ac:	d39ff06f          	j	efe4 <_svfiprintf_r+0xcac>
    f2b0:	01012783          	lw	a5,16(sp)
    f2b4:	00000b93          	li	s7,0
    f2b8:	00c12823          	sw	a2,16(sp)
    f2bc:	0007a483          	lw	s1,0(a5)
    f2c0:	de5ff06f          	j	f0a4 <_svfiprintf_r+0xd6c>
    f2c4:	01012783          	lw	a5,16(sp)
    f2c8:	00e12823          	sw	a4,16(sp)
    f2cc:	0007a483          	lw	s1,0(a5)
    f2d0:	41f4db93          	srai	s7,s1,0x1f
    f2d4:	000b8793          	mv	a5,s7
    f2d8:	bd8ff06f          	j	e6b0 <_svfiprintf_r+0x378>
    f2dc:	01012783          	lw	a5,16(sp)
    f2e0:	00000b93          	li	s7,0
    f2e4:	00e12823          	sw	a4,16(sp)
    f2e8:	0007a483          	lw	s1,0(a5)
    f2ec:	c30ff06f          	j	e71c <_svfiprintf_r+0x3e4>
    f2f0:	01012783          	lw	a5,16(sp)
    f2f4:	00000b93          	li	s7,0
    f2f8:	00d12823          	sw	a3,16(sp)
    f2fc:	0007a483          	lw	s1,0(a5)
    f300:	00100793          	li	a5,1
    f304:	c20ff06f          	j	e724 <_svfiprintf_r+0x3ec>
    f308:	00c12783          	lw	a5,12(sp)
    f30c:	00f71023          	sh	a5,0(a4)
    f310:	8bcff06f          	j	e3cc <_svfiprintf_r+0x94>
    f314:	04010613          	addi	a2,sp,64
    f318:	00090593          	mv	a1,s2
    f31c:	000a0513          	mv	a0,s4
    f320:	e5dfe0ef          	jal	ra,e17c <__ssprint_r>
    f324:	ac8ff06f          	j	e5ec <_svfiprintf_r+0x2b4>
    f328:	01612423          	sw	s6,8(sp)
    f32c:	01712823          	sw	s7,16(sp)
    f330:	00000b13          	li	s6,0
    f334:	c2cff06f          	j	e760 <_svfiprintf_r+0x428>
    f338:	000c8d93          	mv	s11,s9
    f33c:	b9cff06f          	j	e6d8 <_svfiprintf_r+0x3a0>
    f340:	00060513          	mv	a0,a2
    f344:	00058713          	mv	a4,a1
    f348:	00012d97          	auipc	s11,0x12
    f34c:	9ccd8d93          	addi	s11,s11,-1588 # 20d14 <zeroes.0>
    f350:	8cdff06f          	j	ec1c <_svfiprintf_r+0x8e4>
    f354:	fff00793          	li	a5,-1
    f358:	00f12623          	sw	a5,12(sp)
    f35c:	a9cff06f          	j	e5f8 <_svfiprintf_r+0x2c0>
    f360:	01012783          	lw	a5,16(sp)
    f364:	0007ab03          	lw	s6,0(a5)
    f368:	00478793          	addi	a5,a5,4
    f36c:	000b5463          	bgez	s6,f374 <_svfiprintf_r+0x103c>
    f370:	fff00b13          	li	s6,-1
    f374:	001d4703          	lbu	a4,1(s10)
    f378:	00f12823          	sw	a5,16(sp)
    f37c:	00068d13          	mv	s10,a3
    f380:	8d0ff06f          	j	e450 <_svfiprintf_r+0x118>
    f384:	00c00793          	li	a5,12
    f388:	00fa2023          	sw	a5,0(s4)
    f38c:	fff00793          	li	a5,-1
    f390:	00f12623          	sw	a5,12(sp)
    f394:	a64ff06f          	j	e5f8 <_svfiprintf_r+0x2c0>

0000f398 <__swbuf_r>:
    f398:	fe010113          	addi	sp,sp,-32
    f39c:	00812c23          	sw	s0,24(sp)
    f3a0:	00912a23          	sw	s1,20(sp)
    f3a4:	01212823          	sw	s2,16(sp)
    f3a8:	00112e23          	sw	ra,28(sp)
    f3ac:	01312623          	sw	s3,12(sp)
    f3b0:	00050913          	mv	s2,a0
    f3b4:	00058493          	mv	s1,a1
    f3b8:	00060413          	mv	s0,a2
    f3bc:	00050663          	beqz	a0,f3c8 <__swbuf_r+0x30>
    f3c0:	03852783          	lw	a5,56(a0)
    f3c4:	14078a63          	beqz	a5,f518 <__swbuf_r+0x180>
    f3c8:	00c41703          	lh	a4,12(s0)
    f3cc:	01842683          	lw	a3,24(s0)
    f3d0:	00877793          	andi	a5,a4,8
    f3d4:	00d42423          	sw	a3,8(s0)
    f3d8:	01071693          	slli	a3,a4,0x10
    f3dc:	0106d693          	srli	a3,a3,0x10
    f3e0:	08078463          	beqz	a5,f468 <__swbuf_r+0xd0>
    f3e4:	01042783          	lw	a5,16(s0)
    f3e8:	08078063          	beqz	a5,f468 <__swbuf_r+0xd0>
    f3ec:	00002637          	lui	a2,0x2
    f3f0:	00c6f6b3          	and	a3,a3,a2
    f3f4:	0ff4f993          	zext.b	s3,s1
    f3f8:	0ff4f493          	zext.b	s1,s1
    f3fc:	0a068063          	beqz	a3,f49c <__swbuf_r+0x104>
    f400:	00042703          	lw	a4,0(s0)
    f404:	01442683          	lw	a3,20(s0)
    f408:	40f707b3          	sub	a5,a4,a5
    f40c:	0ad7de63          	bge	a5,a3,f4c8 <__swbuf_r+0x130>
    f410:	00842683          	lw	a3,8(s0)
    f414:	00170613          	addi	a2,a4,1
    f418:	00c42023          	sw	a2,0(s0)
    f41c:	fff68693          	addi	a3,a3,-1
    f420:	00d42423          	sw	a3,8(s0)
    f424:	01370023          	sb	s3,0(a4)
    f428:	01442703          	lw	a4,20(s0)
    f42c:	00178793          	addi	a5,a5,1
    f430:	0cf70863          	beq	a4,a5,f500 <__swbuf_r+0x168>
    f434:	00c45783          	lhu	a5,12(s0)
    f438:	0017f793          	andi	a5,a5,1
    f43c:	00078663          	beqz	a5,f448 <__swbuf_r+0xb0>
    f440:	00a00793          	li	a5,10
    f444:	0af48e63          	beq	s1,a5,f500 <__swbuf_r+0x168>
    f448:	01c12083          	lw	ra,28(sp)
    f44c:	01812403          	lw	s0,24(sp)
    f450:	01012903          	lw	s2,16(sp)
    f454:	00c12983          	lw	s3,12(sp)
    f458:	00048513          	mv	a0,s1
    f45c:	01412483          	lw	s1,20(sp)
    f460:	02010113          	addi	sp,sp,32
    f464:	00008067          	ret
    f468:	00040593          	mv	a1,s0
    f46c:	00090513          	mv	a0,s2
    f470:	87df30ef          	jal	ra,2cec <__swsetup_r>
    f474:	08051e63          	bnez	a0,f510 <__swbuf_r+0x178>
    f478:	00c41703          	lh	a4,12(s0)
    f47c:	00002637          	lui	a2,0x2
    f480:	0ff4f993          	zext.b	s3,s1
    f484:	01071693          	slli	a3,a4,0x10
    f488:	0106d693          	srli	a3,a3,0x10
    f48c:	00c6f6b3          	and	a3,a3,a2
    f490:	01042783          	lw	a5,16(s0)
    f494:	0ff4f493          	zext.b	s1,s1
    f498:	f60694e3          	bnez	a3,f400 <__swbuf_r+0x68>
    f49c:	06442683          	lw	a3,100(s0)
    f4a0:	00c76733          	or	a4,a4,a2
    f4a4:	ffffe637          	lui	a2,0xffffe
    f4a8:	fff60613          	addi	a2,a2,-1 # ffffdfff <_stack+0xfffbdfff>
    f4ac:	00c6f6b3          	and	a3,a3,a2
    f4b0:	00e41623          	sh	a4,12(s0)
    f4b4:	00042703          	lw	a4,0(s0)
    f4b8:	06d42223          	sw	a3,100(s0)
    f4bc:	01442683          	lw	a3,20(s0)
    f4c0:	40f707b3          	sub	a5,a4,a5
    f4c4:	f4d7c6e3          	blt	a5,a3,f410 <__swbuf_r+0x78>
    f4c8:	00040593          	mv	a1,s0
    f4cc:	00090513          	mv	a0,s2
    f4d0:	bedf30ef          	jal	ra,30bc <_fflush_r>
    f4d4:	02051e63          	bnez	a0,f510 <__swbuf_r+0x178>
    f4d8:	00042703          	lw	a4,0(s0)
    f4dc:	00842683          	lw	a3,8(s0)
    f4e0:	00100793          	li	a5,1
    f4e4:	00170613          	addi	a2,a4,1
    f4e8:	fff68693          	addi	a3,a3,-1
    f4ec:	00c42023          	sw	a2,0(s0)
    f4f0:	00d42423          	sw	a3,8(s0)
    f4f4:	01370023          	sb	s3,0(a4)
    f4f8:	01442703          	lw	a4,20(s0)
    f4fc:	f2f71ce3          	bne	a4,a5,f434 <__swbuf_r+0x9c>
    f500:	00040593          	mv	a1,s0
    f504:	00090513          	mv	a0,s2
    f508:	bb5f30ef          	jal	ra,30bc <_fflush_r>
    f50c:	f2050ee3          	beqz	a0,f448 <__swbuf_r+0xb0>
    f510:	fff00493          	li	s1,-1
    f514:	f35ff06f          	j	f448 <__swbuf_r+0xb0>
    f518:	fe1f30ef          	jal	ra,34f8 <__sinit>
    f51c:	eadff06f          	j	f3c8 <__swbuf_r+0x30>

0000f520 <__swbuf>:
    f520:	00058613          	mv	a2,a1
    f524:	00050593          	mv	a1,a0
    f528:	00011517          	auipc	a0,0x11
    f52c:	b0852503          	lw	a0,-1272(a0) # 20030 <_impure_ptr>
    f530:	e69ff06f          	j	f398 <__swbuf_r>

0000f534 <_wcrtomb_r>:
    f534:	fe010113          	addi	sp,sp,-32
    f538:	00812c23          	sw	s0,24(sp)
    f53c:	00912a23          	sw	s1,20(sp)
    f540:	00112e23          	sw	ra,28(sp)
    f544:	00050413          	mv	s0,a0
    f548:	00068493          	mv	s1,a3
    f54c:	00012797          	auipc	a5,0x12
    f550:	ea47a783          	lw	a5,-348(a5) # 213f0 <__global_locale+0xe0>
    f554:	02058263          	beqz	a1,f578 <_wcrtomb_r+0x44>
    f558:	000780e7          	jalr	a5
    f55c:	fff00793          	li	a5,-1
    f560:	02f50663          	beq	a0,a5,f58c <_wcrtomb_r+0x58>
    f564:	01c12083          	lw	ra,28(sp)
    f568:	01812403          	lw	s0,24(sp)
    f56c:	01412483          	lw	s1,20(sp)
    f570:	02010113          	addi	sp,sp,32
    f574:	00008067          	ret
    f578:	00000613          	li	a2,0
    f57c:	00410593          	addi	a1,sp,4
    f580:	000780e7          	jalr	a5
    f584:	fff00793          	li	a5,-1
    f588:	fcf51ee3          	bne	a0,a5,f564 <_wcrtomb_r+0x30>
    f58c:	0004a023          	sw	zero,0(s1)
    f590:	08a00793          	li	a5,138
    f594:	01c12083          	lw	ra,28(sp)
    f598:	00f42023          	sw	a5,0(s0)
    f59c:	01812403          	lw	s0,24(sp)
    f5a0:	01412483          	lw	s1,20(sp)
    f5a4:	02010113          	addi	sp,sp,32
    f5a8:	00008067          	ret

0000f5ac <wcrtomb>:
    f5ac:	fe010113          	addi	sp,sp,-32
    f5b0:	00812c23          	sw	s0,24(sp)
    f5b4:	00912a23          	sw	s1,20(sp)
    f5b8:	00112e23          	sw	ra,28(sp)
    f5bc:	00060413          	mv	s0,a2
    f5c0:	00011497          	auipc	s1,0x11
    f5c4:	a704a483          	lw	s1,-1424(s1) # 20030 <_impure_ptr>
    f5c8:	00012797          	auipc	a5,0x12
    f5cc:	e287a783          	lw	a5,-472(a5) # 213f0 <__global_locale+0xe0>
    f5d0:	02050a63          	beqz	a0,f604 <wcrtomb+0x58>
    f5d4:	00058613          	mv	a2,a1
    f5d8:	00040693          	mv	a3,s0
    f5dc:	00050593          	mv	a1,a0
    f5e0:	00048513          	mv	a0,s1
    f5e4:	000780e7          	jalr	a5
    f5e8:	fff00793          	li	a5,-1
    f5ec:	02f50a63          	beq	a0,a5,f620 <wcrtomb+0x74>
    f5f0:	01c12083          	lw	ra,28(sp)
    f5f4:	01812403          	lw	s0,24(sp)
    f5f8:	01412483          	lw	s1,20(sp)
    f5fc:	02010113          	addi	sp,sp,32
    f600:	00008067          	ret
    f604:	00060693          	mv	a3,a2
    f608:	00410593          	addi	a1,sp,4
    f60c:	00000613          	li	a2,0
    f610:	00048513          	mv	a0,s1
    f614:	000780e7          	jalr	a5
    f618:	fff00793          	li	a5,-1
    f61c:	fcf51ae3          	bne	a0,a5,f5f0 <wcrtomb+0x44>
    f620:	00042023          	sw	zero,0(s0)
    f624:	01c12083          	lw	ra,28(sp)
    f628:	01812403          	lw	s0,24(sp)
    f62c:	08a00793          	li	a5,138
    f630:	00f4a023          	sw	a5,0(s1)
    f634:	01412483          	lw	s1,20(sp)
    f638:	02010113          	addi	sp,sp,32
    f63c:	00008067          	ret

0000f640 <abort>:
    f640:	ff010113          	addi	sp,sp,-16
    f644:	00600513          	li	a0,6
    f648:	00112623          	sw	ra,12(sp)
    f64c:	2cc000ef          	jal	ra,f918 <raise>
    f650:	00100513          	li	a0,1
    f654:	23c050ef          	jal	ra,14890 <_exit>

0000f658 <_init_signal_r>:
    f658:	2dc52783          	lw	a5,732(a0)
    f65c:	00078663          	beqz	a5,f668 <_init_signal_r+0x10>
    f660:	00000513          	li	a0,0
    f664:	00008067          	ret
    f668:	ff010113          	addi	sp,sp,-16
    f66c:	08000593          	li	a1,128
    f670:	00812423          	sw	s0,8(sp)
    f674:	00112623          	sw	ra,12(sp)
    f678:	00050413          	mv	s0,a0
    f67c:	bd4f70ef          	jal	ra,6a50 <_malloc_r>
    f680:	2ca42e23          	sw	a0,732(s0)
    f684:	02050463          	beqz	a0,f6ac <_init_signal_r+0x54>
    f688:	08050793          	addi	a5,a0,128
    f68c:	00052023          	sw	zero,0(a0)
    f690:	00450513          	addi	a0,a0,4
    f694:	fef51ce3          	bne	a0,a5,f68c <_init_signal_r+0x34>
    f698:	00000513          	li	a0,0
    f69c:	00c12083          	lw	ra,12(sp)
    f6a0:	00812403          	lw	s0,8(sp)
    f6a4:	01010113          	addi	sp,sp,16
    f6a8:	00008067          	ret
    f6ac:	fff00513          	li	a0,-1
    f6b0:	fedff06f          	j	f69c <_init_signal_r+0x44>

0000f6b4 <_signal_r>:
    f6b4:	fe010113          	addi	sp,sp,-32
    f6b8:	00912a23          	sw	s1,20(sp)
    f6bc:	00112e23          	sw	ra,28(sp)
    f6c0:	00812c23          	sw	s0,24(sp)
    f6c4:	01f00793          	li	a5,31
    f6c8:	00050493          	mv	s1,a0
    f6cc:	02b7ea63          	bltu	a5,a1,f700 <_signal_r+0x4c>
    f6d0:	2dc52703          	lw	a4,732(a0)
    f6d4:	00058413          	mv	s0,a1
    f6d8:	04070463          	beqz	a4,f720 <_signal_r+0x6c>
    f6dc:	00241413          	slli	s0,s0,0x2
    f6e0:	00870433          	add	s0,a4,s0
    f6e4:	00042503          	lw	a0,0(s0)
    f6e8:	00c42023          	sw	a2,0(s0)
    f6ec:	01c12083          	lw	ra,28(sp)
    f6f0:	01812403          	lw	s0,24(sp)
    f6f4:	01412483          	lw	s1,20(sp)
    f6f8:	02010113          	addi	sp,sp,32
    f6fc:	00008067          	ret
    f700:	01c12083          	lw	ra,28(sp)
    f704:	01812403          	lw	s0,24(sp)
    f708:	01600793          	li	a5,22
    f70c:	00f52023          	sw	a5,0(a0)
    f710:	01412483          	lw	s1,20(sp)
    f714:	fff00513          	li	a0,-1
    f718:	02010113          	addi	sp,sp,32
    f71c:	00008067          	ret
    f720:	08000593          	li	a1,128
    f724:	00c12623          	sw	a2,12(sp)
    f728:	b28f70ef          	jal	ra,6a50 <_malloc_r>
    f72c:	2ca4ae23          	sw	a0,732(s1)
    f730:	00050713          	mv	a4,a0
    f734:	02050063          	beqz	a0,f754 <_signal_r+0xa0>
    f738:	00c12603          	lw	a2,12(sp)
    f73c:	00050793          	mv	a5,a0
    f740:	08050693          	addi	a3,a0,128
    f744:	0007a023          	sw	zero,0(a5)
    f748:	00478793          	addi	a5,a5,4
    f74c:	fed79ce3          	bne	a5,a3,f744 <_signal_r+0x90>
    f750:	f8dff06f          	j	f6dc <_signal_r+0x28>
    f754:	fff00513          	li	a0,-1
    f758:	f95ff06f          	j	f6ec <_signal_r+0x38>

0000f75c <_raise_r>:
    f75c:	ff010113          	addi	sp,sp,-16
    f760:	00912223          	sw	s1,4(sp)
    f764:	00112623          	sw	ra,12(sp)
    f768:	00812423          	sw	s0,8(sp)
    f76c:	01f00793          	li	a5,31
    f770:	00050493          	mv	s1,a0
    f774:	0ab7ea63          	bltu	a5,a1,f828 <_raise_r+0xcc>
    f778:	2dc52783          	lw	a5,732(a0)
    f77c:	00058413          	mv	s0,a1
    f780:	04078463          	beqz	a5,f7c8 <_raise_r+0x6c>
    f784:	00259713          	slli	a4,a1,0x2
    f788:	00e787b3          	add	a5,a5,a4
    f78c:	0007a703          	lw	a4,0(a5)
    f790:	02070c63          	beqz	a4,f7c8 <_raise_r+0x6c>
    f794:	00100693          	li	a3,1
    f798:	06d70c63          	beq	a4,a3,f810 <_raise_r+0xb4>
    f79c:	fff00693          	li	a3,-1
    f7a0:	04d70863          	beq	a4,a3,f7f0 <_raise_r+0x94>
    f7a4:	00058513          	mv	a0,a1
    f7a8:	0007a023          	sw	zero,0(a5)
    f7ac:	000700e7          	jalr	a4
    f7b0:	00000513          	li	a0,0
    f7b4:	00c12083          	lw	ra,12(sp)
    f7b8:	00812403          	lw	s0,8(sp)
    f7bc:	00412483          	lw	s1,4(sp)
    f7c0:	01010113          	addi	sp,sp,16
    f7c4:	00008067          	ret
    f7c8:	00048513          	mv	a0,s1
    f7cc:	47c000ef          	jal	ra,fc48 <_getpid_r>
    f7d0:	00040613          	mv	a2,s0
    f7d4:	00812403          	lw	s0,8(sp)
    f7d8:	00c12083          	lw	ra,12(sp)
    f7dc:	00050593          	mv	a1,a0
    f7e0:	00048513          	mv	a0,s1
    f7e4:	00412483          	lw	s1,4(sp)
    f7e8:	01010113          	addi	sp,sp,16
    f7ec:	3fc0006f          	j	fbe8 <_kill_r>
    f7f0:	00c12083          	lw	ra,12(sp)
    f7f4:	00812403          	lw	s0,8(sp)
    f7f8:	01600793          	li	a5,22
    f7fc:	00f52023          	sw	a5,0(a0)
    f800:	00412483          	lw	s1,4(sp)
    f804:	00100513          	li	a0,1
    f808:	01010113          	addi	sp,sp,16
    f80c:	00008067          	ret
    f810:	00c12083          	lw	ra,12(sp)
    f814:	00812403          	lw	s0,8(sp)
    f818:	00412483          	lw	s1,4(sp)
    f81c:	00000513          	li	a0,0
    f820:	01010113          	addi	sp,sp,16
    f824:	00008067          	ret
    f828:	01600793          	li	a5,22
    f82c:	00f52023          	sw	a5,0(a0)
    f830:	fff00513          	li	a0,-1
    f834:	f81ff06f          	j	f7b4 <_raise_r+0x58>

0000f838 <__sigtramp_r>:
    f838:	01f00793          	li	a5,31
    f83c:	0cb7ea63          	bltu	a5,a1,f910 <__sigtramp_r+0xd8>
    f840:	2dc52703          	lw	a4,732(a0)
    f844:	ff010113          	addi	sp,sp,-16
    f848:	00812423          	sw	s0,8(sp)
    f84c:	00912223          	sw	s1,4(sp)
    f850:	00112623          	sw	ra,12(sp)
    f854:	00058413          	mv	s0,a1
    f858:	00050493          	mv	s1,a0
    f85c:	06070063          	beqz	a4,f8bc <__sigtramp_r+0x84>
    f860:	00241513          	slli	a0,s0,0x2
    f864:	00a70733          	add	a4,a4,a0
    f868:	00072783          	lw	a5,0(a4)
    f86c:	02078c63          	beqz	a5,f8a4 <__sigtramp_r+0x6c>
    f870:	fff00693          	li	a3,-1
    f874:	08d78663          	beq	a5,a3,f900 <__sigtramp_r+0xc8>
    f878:	00100693          	li	a3,1
    f87c:	06d78663          	beq	a5,a3,f8e8 <__sigtramp_r+0xb0>
    f880:	00040513          	mv	a0,s0
    f884:	00072023          	sw	zero,0(a4)
    f888:	000780e7          	jalr	a5
    f88c:	00000513          	li	a0,0
    f890:	00c12083          	lw	ra,12(sp)
    f894:	00812403          	lw	s0,8(sp)
    f898:	00412483          	lw	s1,4(sp)
    f89c:	01010113          	addi	sp,sp,16
    f8a0:	00008067          	ret
    f8a4:	00c12083          	lw	ra,12(sp)
    f8a8:	00812403          	lw	s0,8(sp)
    f8ac:	00412483          	lw	s1,4(sp)
    f8b0:	00100513          	li	a0,1
    f8b4:	01010113          	addi	sp,sp,16
    f8b8:	00008067          	ret
    f8bc:	08000593          	li	a1,128
    f8c0:	990f70ef          	jal	ra,6a50 <_malloc_r>
    f8c4:	2ca4ae23          	sw	a0,732(s1)
    f8c8:	00050713          	mv	a4,a0
    f8cc:	02050e63          	beqz	a0,f908 <__sigtramp_r+0xd0>
    f8d0:	00050793          	mv	a5,a0
    f8d4:	08050693          	addi	a3,a0,128
    f8d8:	0007a023          	sw	zero,0(a5)
    f8dc:	00478793          	addi	a5,a5,4
    f8e0:	fed79ce3          	bne	a5,a3,f8d8 <__sigtramp_r+0xa0>
    f8e4:	f7dff06f          	j	f860 <__sigtramp_r+0x28>
    f8e8:	00c12083          	lw	ra,12(sp)
    f8ec:	00812403          	lw	s0,8(sp)
    f8f0:	00412483          	lw	s1,4(sp)
    f8f4:	00300513          	li	a0,3
    f8f8:	01010113          	addi	sp,sp,16
    f8fc:	00008067          	ret
    f900:	00200513          	li	a0,2
    f904:	f8dff06f          	j	f890 <__sigtramp_r+0x58>
    f908:	fff00513          	li	a0,-1
    f90c:	f85ff06f          	j	f890 <__sigtramp_r+0x58>
    f910:	fff00513          	li	a0,-1
    f914:	00008067          	ret

0000f918 <raise>:
    f918:	ff010113          	addi	sp,sp,-16
    f91c:	00912223          	sw	s1,4(sp)
    f920:	00112623          	sw	ra,12(sp)
    f924:	00812423          	sw	s0,8(sp)
    f928:	01f00793          	li	a5,31
    f92c:	00010497          	auipc	s1,0x10
    f930:	7044a483          	lw	s1,1796(s1) # 20030 <_impure_ptr>
    f934:	0aa7e863          	bltu	a5,a0,f9e4 <raise+0xcc>
    f938:	2dc4a783          	lw	a5,732(s1)
    f93c:	00050413          	mv	s0,a0
    f940:	04078263          	beqz	a5,f984 <raise+0x6c>
    f944:	00251713          	slli	a4,a0,0x2
    f948:	00e787b3          	add	a5,a5,a4
    f94c:	0007a703          	lw	a4,0(a5)
    f950:	02070a63          	beqz	a4,f984 <raise+0x6c>
    f954:	00100693          	li	a3,1
    f958:	06d70a63          	beq	a4,a3,f9cc <raise+0xb4>
    f95c:	fff00693          	li	a3,-1
    f960:	04d70663          	beq	a4,a3,f9ac <raise+0x94>
    f964:	0007a023          	sw	zero,0(a5)
    f968:	000700e7          	jalr	a4
    f96c:	00000513          	li	a0,0
    f970:	00c12083          	lw	ra,12(sp)
    f974:	00812403          	lw	s0,8(sp)
    f978:	00412483          	lw	s1,4(sp)
    f97c:	01010113          	addi	sp,sp,16
    f980:	00008067          	ret
    f984:	00048513          	mv	a0,s1
    f988:	2c0000ef          	jal	ra,fc48 <_getpid_r>
    f98c:	00040613          	mv	a2,s0
    f990:	00812403          	lw	s0,8(sp)
    f994:	00c12083          	lw	ra,12(sp)
    f998:	00050593          	mv	a1,a0
    f99c:	00048513          	mv	a0,s1
    f9a0:	00412483          	lw	s1,4(sp)
    f9a4:	01010113          	addi	sp,sp,16
    f9a8:	2400006f          	j	fbe8 <_kill_r>
    f9ac:	00c12083          	lw	ra,12(sp)
    f9b0:	00812403          	lw	s0,8(sp)
    f9b4:	01600793          	li	a5,22
    f9b8:	00f4a023          	sw	a5,0(s1)
    f9bc:	00100513          	li	a0,1
    f9c0:	00412483          	lw	s1,4(sp)
    f9c4:	01010113          	addi	sp,sp,16
    f9c8:	00008067          	ret
    f9cc:	00c12083          	lw	ra,12(sp)
    f9d0:	00812403          	lw	s0,8(sp)
    f9d4:	00412483          	lw	s1,4(sp)
    f9d8:	00000513          	li	a0,0
    f9dc:	01010113          	addi	sp,sp,16
    f9e0:	00008067          	ret
    f9e4:	01600793          	li	a5,22
    f9e8:	00f4a023          	sw	a5,0(s1)
    f9ec:	fff00513          	li	a0,-1
    f9f0:	f81ff06f          	j	f970 <raise+0x58>

0000f9f4 <signal>:
    f9f4:	ff010113          	addi	sp,sp,-16
    f9f8:	01212023          	sw	s2,0(sp)
    f9fc:	00112623          	sw	ra,12(sp)
    fa00:	00812423          	sw	s0,8(sp)
    fa04:	00912223          	sw	s1,4(sp)
    fa08:	01f00793          	li	a5,31
    fa0c:	00010917          	auipc	s2,0x10
    fa10:	62492903          	lw	s2,1572(s2) # 20030 <_impure_ptr>
    fa14:	02a7ee63          	bltu	a5,a0,fa50 <signal+0x5c>
    fa18:	00050413          	mv	s0,a0
    fa1c:	2dc92503          	lw	a0,732(s2)
    fa20:	00058493          	mv	s1,a1
    fa24:	04050863          	beqz	a0,fa74 <signal+0x80>
    fa28:	00241413          	slli	s0,s0,0x2
    fa2c:	00850433          	add	s0,a0,s0
    fa30:	00042503          	lw	a0,0(s0)
    fa34:	00942023          	sw	s1,0(s0)
    fa38:	00c12083          	lw	ra,12(sp)
    fa3c:	00812403          	lw	s0,8(sp)
    fa40:	00412483          	lw	s1,4(sp)
    fa44:	00012903          	lw	s2,0(sp)
    fa48:	01010113          	addi	sp,sp,16
    fa4c:	00008067          	ret
    fa50:	00c12083          	lw	ra,12(sp)
    fa54:	00812403          	lw	s0,8(sp)
    fa58:	01600793          	li	a5,22
    fa5c:	00f92023          	sw	a5,0(s2)
    fa60:	00412483          	lw	s1,4(sp)
    fa64:	00012903          	lw	s2,0(sp)
    fa68:	fff00513          	li	a0,-1
    fa6c:	01010113          	addi	sp,sp,16
    fa70:	00008067          	ret
    fa74:	08000593          	li	a1,128
    fa78:	00090513          	mv	a0,s2
    fa7c:	fd5f60ef          	jal	ra,6a50 <_malloc_r>
    fa80:	2ca92e23          	sw	a0,732(s2)
    fa84:	00050e63          	beqz	a0,faa0 <signal+0xac>
    fa88:	00050793          	mv	a5,a0
    fa8c:	08050713          	addi	a4,a0,128
    fa90:	0007a023          	sw	zero,0(a5)
    fa94:	00478793          	addi	a5,a5,4
    fa98:	fef71ce3          	bne	a4,a5,fa90 <signal+0x9c>
    fa9c:	f8dff06f          	j	fa28 <signal+0x34>
    faa0:	fff00513          	li	a0,-1
    faa4:	f95ff06f          	j	fa38 <signal+0x44>

0000faa8 <_init_signal>:
    faa8:	ff010113          	addi	sp,sp,-16
    faac:	00812423          	sw	s0,8(sp)
    fab0:	00010417          	auipc	s0,0x10
    fab4:	58042403          	lw	s0,1408(s0) # 20030 <_impure_ptr>
    fab8:	2dc42783          	lw	a5,732(s0)
    fabc:	00112623          	sw	ra,12(sp)
    fac0:	00078c63          	beqz	a5,fad8 <_init_signal+0x30>
    fac4:	00000513          	li	a0,0
    fac8:	00c12083          	lw	ra,12(sp)
    facc:	00812403          	lw	s0,8(sp)
    fad0:	01010113          	addi	sp,sp,16
    fad4:	00008067          	ret
    fad8:	08000593          	li	a1,128
    fadc:	00040513          	mv	a0,s0
    fae0:	f71f60ef          	jal	ra,6a50 <_malloc_r>
    fae4:	2ca42e23          	sw	a0,732(s0)
    fae8:	00050c63          	beqz	a0,fb00 <_init_signal+0x58>
    faec:	08050793          	addi	a5,a0,128
    faf0:	00052023          	sw	zero,0(a0)
    faf4:	00450513          	addi	a0,a0,4
    faf8:	fef51ce3          	bne	a0,a5,faf0 <_init_signal+0x48>
    fafc:	fc9ff06f          	j	fac4 <_init_signal+0x1c>
    fb00:	fff00513          	li	a0,-1
    fb04:	fc5ff06f          	j	fac8 <_init_signal+0x20>

0000fb08 <__sigtramp>:
    fb08:	ff010113          	addi	sp,sp,-16
    fb0c:	00912223          	sw	s1,4(sp)
    fb10:	00112623          	sw	ra,12(sp)
    fb14:	00812423          	sw	s0,8(sp)
    fb18:	01f00793          	li	a5,31
    fb1c:	00010497          	auipc	s1,0x10
    fb20:	5144a483          	lw	s1,1300(s1) # 20030 <_impure_ptr>
    fb24:	0aa7ee63          	bltu	a5,a0,fbe0 <__sigtramp+0xd8>
    fb28:	2dc4a703          	lw	a4,732(s1)
    fb2c:	00050413          	mv	s0,a0
    fb30:	06070063          	beqz	a4,fb90 <__sigtramp+0x88>
    fb34:	00241513          	slli	a0,s0,0x2
    fb38:	00a70733          	add	a4,a4,a0
    fb3c:	00072783          	lw	a5,0(a4)
    fb40:	02078c63          	beqz	a5,fb78 <__sigtramp+0x70>
    fb44:	fff00693          	li	a3,-1
    fb48:	08d78863          	beq	a5,a3,fbd8 <__sigtramp+0xd0>
    fb4c:	00100693          	li	a3,1
    fb50:	06d78863          	beq	a5,a3,fbc0 <__sigtramp+0xb8>
    fb54:	00040513          	mv	a0,s0
    fb58:	00072023          	sw	zero,0(a4)
    fb5c:	000780e7          	jalr	a5
    fb60:	00000513          	li	a0,0
    fb64:	00c12083          	lw	ra,12(sp)
    fb68:	00812403          	lw	s0,8(sp)
    fb6c:	00412483          	lw	s1,4(sp)
    fb70:	01010113          	addi	sp,sp,16
    fb74:	00008067          	ret
    fb78:	00c12083          	lw	ra,12(sp)
    fb7c:	00812403          	lw	s0,8(sp)
    fb80:	00412483          	lw	s1,4(sp)
    fb84:	00100513          	li	a0,1
    fb88:	01010113          	addi	sp,sp,16
    fb8c:	00008067          	ret
    fb90:	08000593          	li	a1,128
    fb94:	00048513          	mv	a0,s1
    fb98:	eb9f60ef          	jal	ra,6a50 <_malloc_r>
    fb9c:	2ca4ae23          	sw	a0,732(s1)
    fba0:	00050713          	mv	a4,a0
    fba4:	02050e63          	beqz	a0,fbe0 <__sigtramp+0xd8>
    fba8:	00050793          	mv	a5,a0
    fbac:	08050693          	addi	a3,a0,128
    fbb0:	0007a023          	sw	zero,0(a5)
    fbb4:	00478793          	addi	a5,a5,4
    fbb8:	fed79ce3          	bne	a5,a3,fbb0 <__sigtramp+0xa8>
    fbbc:	f79ff06f          	j	fb34 <__sigtramp+0x2c>
    fbc0:	00c12083          	lw	ra,12(sp)
    fbc4:	00812403          	lw	s0,8(sp)
    fbc8:	00412483          	lw	s1,4(sp)
    fbcc:	00300513          	li	a0,3
    fbd0:	01010113          	addi	sp,sp,16
    fbd4:	00008067          	ret
    fbd8:	00200513          	li	a0,2
    fbdc:	f89ff06f          	j	fb64 <__sigtramp+0x5c>
    fbe0:	fff00513          	li	a0,-1
    fbe4:	f81ff06f          	j	fb64 <__sigtramp+0x5c>

0000fbe8 <_kill_r>:
    fbe8:	ff010113          	addi	sp,sp,-16
    fbec:	00058713          	mv	a4,a1
    fbf0:	00812423          	sw	s0,8(sp)
    fbf4:	00060593          	mv	a1,a2
    fbf8:	00050413          	mv	s0,a0
    fbfc:	00070513          	mv	a0,a4
    fc00:	00012797          	auipc	a5,0x12
    fc04:	c807aa23          	sw	zero,-876(a5) # 21894 <errno>
    fc08:	00112623          	sw	ra,12(sp)
    fc0c:	4fd040ef          	jal	ra,14908 <_kill>
    fc10:	fff00793          	li	a5,-1
    fc14:	00f50a63          	beq	a0,a5,fc28 <_kill_r+0x40>
    fc18:	00c12083          	lw	ra,12(sp)
    fc1c:	00812403          	lw	s0,8(sp)
    fc20:	01010113          	addi	sp,sp,16
    fc24:	00008067          	ret
    fc28:	00012797          	auipc	a5,0x12
    fc2c:	c6c7a783          	lw	a5,-916(a5) # 21894 <errno>
    fc30:	fe0784e3          	beqz	a5,fc18 <_kill_r+0x30>
    fc34:	00c12083          	lw	ra,12(sp)
    fc38:	00f42023          	sw	a5,0(s0)
    fc3c:	00812403          	lw	s0,8(sp)
    fc40:	01010113          	addi	sp,sp,16
    fc44:	00008067          	ret

0000fc48 <_getpid_r>:
    fc48:	4c90406f          	j	14910 <_getpid>

0000fc4c <__udivdi3>:
    fc4c:	00068e13          	mv	t3,a3
    fc50:	00060893          	mv	a7,a2
    fc54:	00050313          	mv	t1,a0
    fc58:	00058813          	mv	a6,a1
    fc5c:	0c069e63          	bnez	a3,fd38 <__udivdi3+0xec>
    fc60:	12c5fa63          	bgeu	a1,a2,fd94 <__udivdi3+0x148>
    fc64:	000107b7          	lui	a5,0x10
    fc68:	20f66a63          	bltu	a2,a5,fe7c <__udivdi3+0x230>
    fc6c:	010007b7          	lui	a5,0x1000
    fc70:	42f66663          	bltu	a2,a5,1009c <__udivdi3+0x450>
    fc74:	01865713          	srli	a4,a2,0x18
    fc78:	01800e13          	li	t3,24
    fc7c:	00011797          	auipc	a5,0x11
    fc80:	16878793          	addi	a5,a5,360 # 20de4 <__clz_tab>
    fc84:	00e787b3          	add	a5,a5,a4
    fc88:	0007c783          	lbu	a5,0(a5)
    fc8c:	02000713          	li	a4,32
    fc90:	01c78e33          	add	t3,a5,t3
    fc94:	41c707b3          	sub	a5,a4,t3
    fc98:	01c70c63          	beq	a4,t3,fcb0 <__udivdi3+0x64>
    fc9c:	00f59833          	sll	a6,a1,a5
    fca0:	01c55e33          	srl	t3,a0,t3
    fca4:	00f618b3          	sll	a7,a2,a5
    fca8:	010e6833          	or	a6,t3,a6
    fcac:	00f51333          	sll	t1,a0,a5
    fcb0:	0108d593          	srli	a1,a7,0x10
    fcb4:	02b85533          	divu	a0,a6,a1
    fcb8:	01089693          	slli	a3,a7,0x10
    fcbc:	0106d693          	srli	a3,a3,0x10
    fcc0:	01035793          	srli	a5,t1,0x10
    fcc4:	02b87733          	remu	a4,a6,a1
    fcc8:	02a68633          	mul	a2,a3,a0
    fccc:	01071713          	slli	a4,a4,0x10
    fcd0:	00f76833          	or	a6,a4,a5
    fcd4:	00c87c63          	bgeu	a6,a2,fcec <__udivdi3+0xa0>
    fcd8:	01180833          	add	a6,a6,a7
    fcdc:	fff50793          	addi	a5,a0,-1
    fce0:	01186463          	bltu	a6,a7,fce8 <__udivdi3+0x9c>
    fce4:	3ec86863          	bltu	a6,a2,100d4 <__udivdi3+0x488>
    fce8:	00078513          	mv	a0,a5
    fcec:	40c80833          	sub	a6,a6,a2
    fcf0:	02b85633          	divu	a2,a6,a1
    fcf4:	01031313          	slli	t1,t1,0x10
    fcf8:	01035313          	srli	t1,t1,0x10
    fcfc:	02b87833          	remu	a6,a6,a1
    fd00:	02c686b3          	mul	a3,a3,a2
    fd04:	01081813          	slli	a6,a6,0x10
    fd08:	00686833          	or	a6,a6,t1
    fd0c:	00d87e63          	bgeu	a6,a3,fd28 <__udivdi3+0xdc>
    fd10:	01088833          	add	a6,a7,a6
    fd14:	fff60793          	addi	a5,a2,-1
    fd18:	01186663          	bltu	a6,a7,fd24 <__udivdi3+0xd8>
    fd1c:	ffe60613          	addi	a2,a2,-2
    fd20:	00d86463          	bltu	a6,a3,fd28 <__udivdi3+0xdc>
    fd24:	00078613          	mv	a2,a5
    fd28:	01051513          	slli	a0,a0,0x10
    fd2c:	00c56533          	or	a0,a0,a2
    fd30:	00000593          	li	a1,0
    fd34:	00008067          	ret
    fd38:	00d5f863          	bgeu	a1,a3,fd48 <__udivdi3+0xfc>
    fd3c:	00000593          	li	a1,0
    fd40:	00000513          	li	a0,0
    fd44:	00008067          	ret
    fd48:	000107b7          	lui	a5,0x10
    fd4c:	14f6e463          	bltu	a3,a5,fe94 <__udivdi3+0x248>
    fd50:	010007b7          	lui	a5,0x1000
    fd54:	32f6e263          	bltu	a3,a5,10078 <__udivdi3+0x42c>
    fd58:	0186d813          	srli	a6,a3,0x18
    fd5c:	01800713          	li	a4,24
    fd60:	00011797          	auipc	a5,0x11
    fd64:	08478793          	addi	a5,a5,132 # 20de4 <__clz_tab>
    fd68:	010787b3          	add	a5,a5,a6
    fd6c:	0007ce03          	lbu	t3,0(a5)
    fd70:	02000793          	li	a5,32
    fd74:	00ee0e33          	add	t3,t3,a4
    fd78:	41c78eb3          	sub	t4,a5,t3
    fd7c:	1dc79863          	bne	a5,t3,ff4c <__udivdi3+0x300>
    fd80:	32b6e463          	bltu	a3,a1,100a8 <__udivdi3+0x45c>
    fd84:	00c53633          	sltu	a2,a0,a2
    fd88:	00164513          	xori	a0,a2,1
    fd8c:	00000593          	li	a1,0
    fd90:	00008067          	ret
    fd94:	00061663          	bnez	a2,fda0 <__udivdi3+0x154>
    fd98:	00100793          	li	a5,1
    fd9c:	02c7d8b3          	divu	a7,a5,a2
    fda0:	000107b7          	lui	a5,0x10
    fda4:	0cf8e063          	bltu	a7,a5,fe64 <__udivdi3+0x218>
    fda8:	010007b7          	lui	a5,0x1000
    fdac:	2ef8e263          	bltu	a7,a5,10090 <__udivdi3+0x444>
    fdb0:	0188d713          	srli	a4,a7,0x18
    fdb4:	01800e13          	li	t3,24
    fdb8:	00011797          	auipc	a5,0x11
    fdbc:	02c78793          	addi	a5,a5,44 # 20de4 <__clz_tab>
    fdc0:	00e787b3          	add	a5,a5,a4
    fdc4:	0007c683          	lbu	a3,0(a5)
    fdc8:	02000793          	li	a5,32
    fdcc:	01c68e33          	add	t3,a3,t3
    fdd0:	41c782b3          	sub	t0,a5,t3
    fdd4:	0dc79a63          	bne	a5,t3,fea8 <__udivdi3+0x25c>
    fdd8:	01089f13          	slli	t5,a7,0x10
    fddc:	41158733          	sub	a4,a1,a7
    fde0:	0108df93          	srli	t6,a7,0x10
    fde4:	010f5f13          	srli	t5,t5,0x10
    fde8:	00100593          	li	a1,1
    fdec:	01035793          	srli	a5,t1,0x10
    fdf0:	03f75533          	divu	a0,a4,t6
    fdf4:	03f77733          	remu	a4,a4,t6
    fdf8:	03e506b3          	mul	a3,a0,t5
    fdfc:	01071713          	slli	a4,a4,0x10
    fe00:	00f767b3          	or	a5,a4,a5
    fe04:	00d7fc63          	bgeu	a5,a3,fe1c <__udivdi3+0x1d0>
    fe08:	011787b3          	add	a5,a5,a7
    fe0c:	fff50713          	addi	a4,a0,-1
    fe10:	0117e463          	bltu	a5,a7,fe18 <__udivdi3+0x1cc>
    fe14:	2cd7e663          	bltu	a5,a3,100e0 <__udivdi3+0x494>
    fe18:	00070513          	mv	a0,a4
    fe1c:	40d787b3          	sub	a5,a5,a3
    fe20:	03f7d633          	divu	a2,a5,t6
    fe24:	01031313          	slli	t1,t1,0x10
    fe28:	01035313          	srli	t1,t1,0x10
    fe2c:	03f7f7b3          	remu	a5,a5,t6
    fe30:	03e60f33          	mul	t5,a2,t5
    fe34:	01079793          	slli	a5,a5,0x10
    fe38:	0067e7b3          	or	a5,a5,t1
    fe3c:	01e7fe63          	bgeu	a5,t5,fe58 <__udivdi3+0x20c>
    fe40:	00f887b3          	add	a5,a7,a5
    fe44:	fff60713          	addi	a4,a2,-1
    fe48:	0117e663          	bltu	a5,a7,fe54 <__udivdi3+0x208>
    fe4c:	ffe60613          	addi	a2,a2,-2
    fe50:	01e7e463          	bltu	a5,t5,fe58 <__udivdi3+0x20c>
    fe54:	00070613          	mv	a2,a4
    fe58:	01051513          	slli	a0,a0,0x10
    fe5c:	00c56533          	or	a0,a0,a2
    fe60:	00008067          	ret
    fe64:	0ff00793          	li	a5,255
    fe68:	00088713          	mv	a4,a7
    fe6c:	f517f6e3          	bgeu	a5,a7,fdb8 <__udivdi3+0x16c>
    fe70:	0088d713          	srli	a4,a7,0x8
    fe74:	00800e13          	li	t3,8
    fe78:	f41ff06f          	j	fdb8 <__udivdi3+0x16c>
    fe7c:	0ff00793          	li	a5,255
    fe80:	00060713          	mv	a4,a2
    fe84:	dec7fce3          	bgeu	a5,a2,fc7c <__udivdi3+0x30>
    fe88:	00865713          	srli	a4,a2,0x8
    fe8c:	00800e13          	li	t3,8
    fe90:	dedff06f          	j	fc7c <__udivdi3+0x30>
    fe94:	0ff00793          	li	a5,255
    fe98:	1ed7f663          	bgeu	a5,a3,10084 <__udivdi3+0x438>
    fe9c:	0086d813          	srli	a6,a3,0x8
    fea0:	00800713          	li	a4,8
    fea4:	ebdff06f          	j	fd60 <__udivdi3+0x114>
    fea8:	005898b3          	sll	a7,a7,t0
    feac:	01c5d633          	srl	a2,a1,t3
    feb0:	0108df93          	srli	t6,a7,0x10
    feb4:	03f65eb3          	divu	t4,a2,t6
    feb8:	01089f13          	slli	t5,a7,0x10
    febc:	010f5f13          	srli	t5,t5,0x10
    fec0:	00559733          	sll	a4,a1,t0
    fec4:	01c55e33          	srl	t3,a0,t3
    fec8:	00ee6733          	or	a4,t3,a4
    fecc:	01075593          	srli	a1,a4,0x10
    fed0:	00551333          	sll	t1,a0,t0
    fed4:	03f676b3          	remu	a3,a2,t6
    fed8:	03df07b3          	mul	a5,t5,t4
    fedc:	01069693          	slli	a3,a3,0x10
    fee0:	00b6e6b3          	or	a3,a3,a1
    fee4:	00f6fe63          	bgeu	a3,a5,ff00 <__udivdi3+0x2b4>
    fee8:	011686b3          	add	a3,a3,a7
    feec:	fffe8613          	addi	a2,t4,-1
    fef0:	1d16ee63          	bltu	a3,a7,100cc <__udivdi3+0x480>
    fef4:	1cf6fc63          	bgeu	a3,a5,100cc <__udivdi3+0x480>
    fef8:	ffee8e93          	addi	t4,t4,-2
    fefc:	011686b3          	add	a3,a3,a7
    ff00:	40f686b3          	sub	a3,a3,a5
    ff04:	03f6d7b3          	divu	a5,a3,t6
    ff08:	01071e13          	slli	t3,a4,0x10
    ff0c:	010e5e13          	srli	t3,t3,0x10
    ff10:	03f6f6b3          	remu	a3,a3,t6
    ff14:	02ff0633          	mul	a2,t5,a5
    ff18:	01069713          	slli	a4,a3,0x10
    ff1c:	01c76733          	or	a4,a4,t3
    ff20:	00c77e63          	bgeu	a4,a2,ff3c <__udivdi3+0x2f0>
    ff24:	01170733          	add	a4,a4,a7
    ff28:	fff78693          	addi	a3,a5,-1
    ff2c:	19176863          	bltu	a4,a7,100bc <__udivdi3+0x470>
    ff30:	18c77663          	bgeu	a4,a2,100bc <__udivdi3+0x470>
    ff34:	ffe78793          	addi	a5,a5,-2
    ff38:	01170733          	add	a4,a4,a7
    ff3c:	010e9593          	slli	a1,t4,0x10
    ff40:	40c70733          	sub	a4,a4,a2
    ff44:	00f5e5b3          	or	a1,a1,a5
    ff48:	ea5ff06f          	j	fdec <__udivdi3+0x1a0>
    ff4c:	01c657b3          	srl	a5,a2,t3
    ff50:	01d696b3          	sll	a3,a3,t4
    ff54:	00d7e6b3          	or	a3,a5,a3
    ff58:	01c5d333          	srl	t1,a1,t3
    ff5c:	0106df13          	srli	t5,a3,0x10
    ff60:	03e358b3          	divu	a7,t1,t5
    ff64:	01069713          	slli	a4,a3,0x10
    ff68:	01075713          	srli	a4,a4,0x10
    ff6c:	01d59833          	sll	a6,a1,t4
    ff70:	01c55e33          	srl	t3,a0,t3
    ff74:	010e6833          	or	a6,t3,a6
    ff78:	01085793          	srli	a5,a6,0x10
    ff7c:	01d61633          	sll	a2,a2,t4
    ff80:	03e37333          	remu	t1,t1,t5
    ff84:	031705b3          	mul	a1,a4,a7
    ff88:	01031313          	slli	t1,t1,0x10
    ff8c:	00f367b3          	or	a5,t1,a5
    ff90:	00b7fe63          	bgeu	a5,a1,ffac <__udivdi3+0x360>
    ff94:	00d787b3          	add	a5,a5,a3
    ff98:	fff88313          	addi	t1,a7,-1
    ff9c:	12d7e463          	bltu	a5,a3,100c4 <__udivdi3+0x478>
    ffa0:	12b7f263          	bgeu	a5,a1,100c4 <__udivdi3+0x478>
    ffa4:	ffe88893          	addi	a7,a7,-2
    ffa8:	00d787b3          	add	a5,a5,a3
    ffac:	40b787b3          	sub	a5,a5,a1
    ffb0:	03e7d333          	divu	t1,a5,t5
    ffb4:	01081813          	slli	a6,a6,0x10
    ffb8:	01085813          	srli	a6,a6,0x10
    ffbc:	03e7f7b3          	remu	a5,a5,t5
    ffc0:	026705b3          	mul	a1,a4,t1
    ffc4:	01079793          	slli	a5,a5,0x10
    ffc8:	0107e833          	or	a6,a5,a6
    ffcc:	00b87e63          	bgeu	a6,a1,ffe8 <__udivdi3+0x39c>
    ffd0:	00d80833          	add	a6,a6,a3
    ffd4:	fff30793          	addi	a5,t1,-1
    ffd8:	0cd86e63          	bltu	a6,a3,100b4 <__udivdi3+0x468>
    ffdc:	0cb87c63          	bgeu	a6,a1,100b4 <__udivdi3+0x468>
    ffe0:	ffe30313          	addi	t1,t1,-2
    ffe4:	00d80833          	add	a6,a6,a3
    ffe8:	01089893          	slli	a7,a7,0x10
    ffec:	00010f37          	lui	t5,0x10
    fff0:	0068e8b3          	or	a7,a7,t1
    fff4:	ffff0793          	addi	a5,t5,-1 # ffff <__udivdi3+0x3b3>
    fff8:	00f8f733          	and	a4,a7,a5
    fffc:	0108d313          	srli	t1,a7,0x10
   10000:	00f677b3          	and	a5,a2,a5
   10004:	01065613          	srli	a2,a2,0x10
   10008:	02f70e33          	mul	t3,a4,a5
   1000c:	40b80833          	sub	a6,a6,a1
   10010:	02c70733          	mul	a4,a4,a2
   10014:	010e5693          	srli	a3,t3,0x10
   10018:	02f307b3          	mul	a5,t1,a5
   1001c:	00f70733          	add	a4,a4,a5
   10020:	00e68733          	add	a4,a3,a4
   10024:	02c30633          	mul	a2,t1,a2
   10028:	00f77463          	bgeu	a4,a5,10030 <__udivdi3+0x3e4>
   1002c:	01e60633          	add	a2,a2,t5
   10030:	01075313          	srli	t1,a4,0x10
   10034:	00c30633          	add	a2,t1,a2
   10038:	02c86a63          	bltu	a6,a2,1006c <__udivdi3+0x420>
   1003c:	00c80863          	beq	a6,a2,1004c <__udivdi3+0x400>
   10040:	00088513          	mv	a0,a7
   10044:	00000593          	li	a1,0
   10048:	00008067          	ret
   1004c:	000106b7          	lui	a3,0x10
   10050:	fff68693          	addi	a3,a3,-1 # ffff <__udivdi3+0x3b3>
   10054:	00d77733          	and	a4,a4,a3
   10058:	01071793          	slli	a5,a4,0x10
   1005c:	00de7e33          	and	t3,t3,a3
   10060:	01d51533          	sll	a0,a0,t4
   10064:	01c787b3          	add	a5,a5,t3
   10068:	fcf57ce3          	bgeu	a0,a5,10040 <__udivdi3+0x3f4>
   1006c:	fff88513          	addi	a0,a7,-1
   10070:	00000593          	li	a1,0
   10074:	00008067          	ret
   10078:	0106d813          	srli	a6,a3,0x10
   1007c:	01000713          	li	a4,16
   10080:	ce1ff06f          	j	fd60 <__udivdi3+0x114>
   10084:	00068813          	mv	a6,a3
   10088:	00000713          	li	a4,0
   1008c:	cd5ff06f          	j	fd60 <__udivdi3+0x114>
   10090:	0108d713          	srli	a4,a7,0x10
   10094:	01000e13          	li	t3,16
   10098:	d21ff06f          	j	fdb8 <__udivdi3+0x16c>
   1009c:	01065713          	srli	a4,a2,0x10
   100a0:	01000e13          	li	t3,16
   100a4:	bd9ff06f          	j	fc7c <__udivdi3+0x30>
   100a8:	00000593          	li	a1,0
   100ac:	00100513          	li	a0,1
   100b0:	00008067          	ret
   100b4:	00078313          	mv	t1,a5
   100b8:	f31ff06f          	j	ffe8 <__udivdi3+0x39c>
   100bc:	00068793          	mv	a5,a3
   100c0:	e7dff06f          	j	ff3c <__udivdi3+0x2f0>
   100c4:	00030893          	mv	a7,t1
   100c8:	ee5ff06f          	j	ffac <__udivdi3+0x360>
   100cc:	00060e93          	mv	t4,a2
   100d0:	e31ff06f          	j	ff00 <__udivdi3+0x2b4>
   100d4:	ffe50513          	addi	a0,a0,-2
   100d8:	01180833          	add	a6,a6,a7
   100dc:	c11ff06f          	j	fcec <__udivdi3+0xa0>
   100e0:	ffe50513          	addi	a0,a0,-2
   100e4:	011787b3          	add	a5,a5,a7
   100e8:	d35ff06f          	j	fe1c <__udivdi3+0x1d0>

000100ec <__umoddi3>:
   100ec:	00068793          	mv	a5,a3
   100f0:	00060813          	mv	a6,a2
   100f4:	00050893          	mv	a7,a0
   100f8:	00058713          	mv	a4,a1
   100fc:	00058e13          	mv	t3,a1
   10100:	0c069063          	bnez	a3,101c0 <__umoddi3+0xd4>
   10104:	12c5f063          	bgeu	a1,a2,10224 <__umoddi3+0x138>
   10108:	00010737          	lui	a4,0x10
   1010c:	1ee66863          	bltu	a2,a4,102fc <__umoddi3+0x210>
   10110:	010007b7          	lui	a5,0x1000
   10114:	40f66463          	bltu	a2,a5,1051c <__umoddi3+0x430>
   10118:	01865693          	srli	a3,a2,0x18
   1011c:	01800793          	li	a5,24
   10120:	00011717          	auipc	a4,0x11
   10124:	cc470713          	addi	a4,a4,-828 # 20de4 <__clz_tab>
   10128:	00d70733          	add	a4,a4,a3
   1012c:	00074703          	lbu	a4,0(a4)
   10130:	02000693          	li	a3,32
   10134:	00f707b3          	add	a5,a4,a5
   10138:	40f68333          	sub	t1,a3,a5
   1013c:	00f68c63          	beq	a3,a5,10154 <__umoddi3+0x68>
   10140:	006595b3          	sll	a1,a1,t1
   10144:	00f557b3          	srl	a5,a0,a5
   10148:	00661833          	sll	a6,a2,t1
   1014c:	00b7ee33          	or	t3,a5,a1
   10150:	006518b3          	sll	a7,a0,t1
   10154:	01085613          	srli	a2,a6,0x10
   10158:	02ce57b3          	divu	a5,t3,a2
   1015c:	01081513          	slli	a0,a6,0x10
   10160:	01055513          	srli	a0,a0,0x10
   10164:	0108d693          	srli	a3,a7,0x10
   10168:	02ce7e33          	remu	t3,t3,a2
   1016c:	02f507b3          	mul	a5,a0,a5
   10170:	010e1e13          	slli	t3,t3,0x10
   10174:	00de6733          	or	a4,t3,a3
   10178:	00f77a63          	bgeu	a4,a5,1018c <__umoddi3+0xa0>
   1017c:	01070733          	add	a4,a4,a6
   10180:	01076663          	bltu	a4,a6,1018c <__umoddi3+0xa0>
   10184:	00f77463          	bgeu	a4,a5,1018c <__umoddi3+0xa0>
   10188:	01070733          	add	a4,a4,a6
   1018c:	40f70733          	sub	a4,a4,a5
   10190:	02c756b3          	divu	a3,a4,a2
   10194:	01089793          	slli	a5,a7,0x10
   10198:	0107d793          	srli	a5,a5,0x10
   1019c:	02c77733          	remu	a4,a4,a2
   101a0:	02d50533          	mul	a0,a0,a3
   101a4:	01071713          	slli	a4,a4,0x10
   101a8:	00f767b3          	or	a5,a4,a5
   101ac:	10a7ec63          	bltu	a5,a0,102c4 <__umoddi3+0x1d8>
   101b0:	40a78533          	sub	a0,a5,a0
   101b4:	00655533          	srl	a0,a0,t1
   101b8:	00000593          	li	a1,0
   101bc:	00008067          	ret
   101c0:	00050813          	mv	a6,a0
   101c4:	fed5ece3          	bltu	a1,a3,101bc <__umoddi3+0xd0>
   101c8:	000107b7          	lui	a5,0x10
   101cc:	14f6e463          	bltu	a3,a5,10314 <__umoddi3+0x228>
   101d0:	010007b7          	lui	a5,0x1000
   101d4:	32f6ee63          	bltu	a3,a5,10510 <__umoddi3+0x424>
   101d8:	0186d313          	srli	t1,a3,0x18
   101dc:	01800893          	li	a7,24
   101e0:	00011797          	auipc	a5,0x11
   101e4:	c0478793          	addi	a5,a5,-1020 # 20de4 <__clz_tab>
   101e8:	006787b3          	add	a5,a5,t1
   101ec:	0007ce03          	lbu	t3,0(a5)
   101f0:	02000793          	li	a5,32
   101f4:	011e0e33          	add	t3,t3,a7
   101f8:	41c78333          	sub	t1,a5,t3
   101fc:	1bc79c63          	bne	a5,t3,103b4 <__umoddi3+0x2c8>
   10200:	00b6e463          	bltu	a3,a1,10208 <__umoddi3+0x11c>
   10204:	00c56a63          	bltu	a0,a2,10218 <__umoddi3+0x12c>
   10208:	40c50833          	sub	a6,a0,a2
   1020c:	40d585b3          	sub	a1,a1,a3
   10210:	01053733          	sltu	a4,a0,a6
   10214:	40e58733          	sub	a4,a1,a4
   10218:	00080513          	mv	a0,a6
   1021c:	00070593          	mv	a1,a4
   10220:	00008067          	ret
   10224:	00061663          	bnez	a2,10230 <__umoddi3+0x144>
   10228:	00100713          	li	a4,1
   1022c:	02c75833          	divu	a6,a4,a2
   10230:	00010737          	lui	a4,0x10
   10234:	0ae86863          	bltu	a6,a4,102e4 <__umoddi3+0x1f8>
   10238:	010007b7          	lui	a5,0x1000
   1023c:	2cf86463          	bltu	a6,a5,10504 <__umoddi3+0x418>
   10240:	01885693          	srli	a3,a6,0x18
   10244:	01800793          	li	a5,24
   10248:	00011717          	auipc	a4,0x11
   1024c:	b9c70713          	addi	a4,a4,-1124 # 20de4 <__clz_tab>
   10250:	00d70733          	add	a4,a4,a3
   10254:	00074703          	lbu	a4,0(a4)
   10258:	02000693          	li	a3,32
   1025c:	00f707b3          	add	a5,a4,a5
   10260:	40f68333          	sub	t1,a3,a5
   10264:	0cf69263          	bne	a3,a5,10328 <__umoddi3+0x23c>
   10268:	01081e13          	slli	t3,a6,0x10
   1026c:	410585b3          	sub	a1,a1,a6
   10270:	01085613          	srli	a2,a6,0x10
   10274:	010e5e13          	srli	t3,t3,0x10
   10278:	0108d713          	srli	a4,a7,0x10
   1027c:	02c5d6b3          	divu	a3,a1,a2
   10280:	02c5f5b3          	remu	a1,a1,a2
   10284:	03c686b3          	mul	a3,a3,t3
   10288:	01059593          	slli	a1,a1,0x10
   1028c:	00e5e733          	or	a4,a1,a4
   10290:	00d77863          	bgeu	a4,a3,102a0 <__umoddi3+0x1b4>
   10294:	01070733          	add	a4,a4,a6
   10298:	01076463          	bltu	a4,a6,102a0 <__umoddi3+0x1b4>
   1029c:	2ad76463          	bltu	a4,a3,10544 <__umoddi3+0x458>
   102a0:	40d70733          	sub	a4,a4,a3
   102a4:	02c75533          	divu	a0,a4,a2
   102a8:	01089893          	slli	a7,a7,0x10
   102ac:	0108d893          	srli	a7,a7,0x10
   102b0:	02c77733          	remu	a4,a4,a2
   102b4:	03c50533          	mul	a0,a0,t3
   102b8:	01071713          	slli	a4,a4,0x10
   102bc:	011767b3          	or	a5,a4,a7
   102c0:	00a7fa63          	bgeu	a5,a0,102d4 <__umoddi3+0x1e8>
   102c4:	010787b3          	add	a5,a5,a6
   102c8:	0107e663          	bltu	a5,a6,102d4 <__umoddi3+0x1e8>
   102cc:	00a7f463          	bgeu	a5,a0,102d4 <__umoddi3+0x1e8>
   102d0:	010787b3          	add	a5,a5,a6
   102d4:	40a78533          	sub	a0,a5,a0
   102d8:	00655533          	srl	a0,a0,t1
   102dc:	00000593          	li	a1,0
   102e0:	00008067          	ret
   102e4:	0ff00713          	li	a4,255
   102e8:	00080693          	mv	a3,a6
   102ec:	f5077ee3          	bgeu	a4,a6,10248 <__umoddi3+0x15c>
   102f0:	00885693          	srli	a3,a6,0x8
   102f4:	00800793          	li	a5,8
   102f8:	f51ff06f          	j	10248 <__umoddi3+0x15c>
   102fc:	0ff00713          	li	a4,255
   10300:	00060693          	mv	a3,a2
   10304:	e0c77ee3          	bgeu	a4,a2,10120 <__umoddi3+0x34>
   10308:	00865693          	srli	a3,a2,0x8
   1030c:	00800793          	li	a5,8
   10310:	e11ff06f          	j	10120 <__umoddi3+0x34>
   10314:	0ff00793          	li	a5,255
   10318:	20d7f863          	bgeu	a5,a3,10528 <__umoddi3+0x43c>
   1031c:	0086d313          	srli	t1,a3,0x8
   10320:	00800893          	li	a7,8
   10324:	ebdff06f          	j	101e0 <__umoddi3+0xf4>
   10328:	00681833          	sll	a6,a6,t1
   1032c:	00f5d733          	srl	a4,a1,a5
   10330:	01085613          	srli	a2,a6,0x10
   10334:	02c756b3          	divu	a3,a4,a2
   10338:	01081e13          	slli	t3,a6,0x10
   1033c:	00f557b3          	srl	a5,a0,a5
   10340:	010e5e13          	srli	t3,t3,0x10
   10344:	006595b3          	sll	a1,a1,t1
   10348:	00b7e5b3          	or	a1,a5,a1
   1034c:	0105de93          	srli	t4,a1,0x10
   10350:	006518b3          	sll	a7,a0,t1
   10354:	02c77733          	remu	a4,a4,a2
   10358:	02de07b3          	mul	a5,t3,a3
   1035c:	01071693          	slli	a3,a4,0x10
   10360:	01d6e6b3          	or	a3,a3,t4
   10364:	00f6fa63          	bgeu	a3,a5,10378 <__umoddi3+0x28c>
   10368:	010686b3          	add	a3,a3,a6
   1036c:	0106e663          	bltu	a3,a6,10378 <__umoddi3+0x28c>
   10370:	00f6f463          	bgeu	a3,a5,10378 <__umoddi3+0x28c>
   10374:	010686b3          	add	a3,a3,a6
   10378:	40f686b3          	sub	a3,a3,a5
   1037c:	02c6d733          	divu	a4,a3,a2
   10380:	01059793          	slli	a5,a1,0x10
   10384:	0107d793          	srli	a5,a5,0x10
   10388:	02c6f6b3          	remu	a3,a3,a2
   1038c:	02ee0733          	mul	a4,t3,a4
   10390:	01069593          	slli	a1,a3,0x10
   10394:	00f5e5b3          	or	a1,a1,a5
   10398:	00e5fa63          	bgeu	a1,a4,103ac <__umoddi3+0x2c0>
   1039c:	010585b3          	add	a1,a1,a6
   103a0:	0105e663          	bltu	a1,a6,103ac <__umoddi3+0x2c0>
   103a4:	00e5f463          	bgeu	a1,a4,103ac <__umoddi3+0x2c0>
   103a8:	010585b3          	add	a1,a1,a6
   103ac:	40e585b3          	sub	a1,a1,a4
   103b0:	ec9ff06f          	j	10278 <__umoddi3+0x18c>
   103b4:	01c657b3          	srl	a5,a2,t3
   103b8:	006696b3          	sll	a3,a3,t1
   103bc:	00d7e6b3          	or	a3,a5,a3
   103c0:	01c5d8b3          	srl	a7,a1,t3
   103c4:	0106d713          	srli	a4,a3,0x10
   103c8:	02e8deb3          	divu	t4,a7,a4
   103cc:	01069f13          	slli	t5,a3,0x10
   103d0:	01c557b3          	srl	a5,a0,t3
   103d4:	010f5f13          	srli	t5,t5,0x10
   103d8:	006595b3          	sll	a1,a1,t1
   103dc:	00b7e5b3          	or	a1,a5,a1
   103e0:	0105d813          	srli	a6,a1,0x10
   103e4:	00661633          	sll	a2,a2,t1
   103e8:	00651533          	sll	a0,a0,t1
   103ec:	02e8f8b3          	remu	a7,a7,a4
   103f0:	03df07b3          	mul	a5,t5,t4
   103f4:	01089893          	slli	a7,a7,0x10
   103f8:	0108e833          	or	a6,a7,a6
   103fc:	00f87e63          	bgeu	a6,a5,10418 <__umoddi3+0x32c>
   10400:	00d80833          	add	a6,a6,a3
   10404:	fffe8893          	addi	a7,t4,-1
   10408:	12d86a63          	bltu	a6,a3,1053c <__umoddi3+0x450>
   1040c:	12f87863          	bgeu	a6,a5,1053c <__umoddi3+0x450>
   10410:	ffee8e93          	addi	t4,t4,-2
   10414:	00d80833          	add	a6,a6,a3
   10418:	40f80833          	sub	a6,a6,a5
   1041c:	02e857b3          	divu	a5,a6,a4
   10420:	01059593          	slli	a1,a1,0x10
   10424:	0105d593          	srli	a1,a1,0x10
   10428:	02e87833          	remu	a6,a6,a4
   1042c:	02ff0f33          	mul	t5,t5,a5
   10430:	01081713          	slli	a4,a6,0x10
   10434:	00b76733          	or	a4,a4,a1
   10438:	01e77e63          	bgeu	a4,t5,10454 <__umoddi3+0x368>
   1043c:	00d70733          	add	a4,a4,a3
   10440:	fff78593          	addi	a1,a5,-1 # ffffff <_stack+0xfbffff>
   10444:	0ed76863          	bltu	a4,a3,10534 <__umoddi3+0x448>
   10448:	0fe77663          	bgeu	a4,t5,10534 <__umoddi3+0x448>
   1044c:	ffe78793          	addi	a5,a5,-2
   10450:	00d70733          	add	a4,a4,a3
   10454:	010e9e93          	slli	t4,t4,0x10
   10458:	000102b7          	lui	t0,0x10
   1045c:	00feeeb3          	or	t4,t4,a5
   10460:	fff28813          	addi	a6,t0,-1 # ffff <__udivdi3+0x3b3>
   10464:	010ef8b3          	and	a7,t4,a6
   10468:	01065593          	srli	a1,a2,0x10
   1046c:	010ede93          	srli	t4,t4,0x10
   10470:	01067833          	and	a6,a2,a6
   10474:	03088fb3          	mul	t6,a7,a6
   10478:	41e70733          	sub	a4,a4,t5
   1047c:	030e8833          	mul	a6,t4,a6
   10480:	010fd793          	srli	a5,t6,0x10
   10484:	02b888b3          	mul	a7,a7,a1
   10488:	010888b3          	add	a7,a7,a6
   1048c:	011787b3          	add	a5,a5,a7
   10490:	02be8eb3          	mul	t4,t4,a1
   10494:	0107f463          	bgeu	a5,a6,1049c <__umoddi3+0x3b0>
   10498:	005e8eb3          	add	t4,t4,t0
   1049c:	00010837          	lui	a6,0x10
   104a0:	fff80813          	addi	a6,a6,-1 # ffff <__udivdi3+0x3b3>
   104a4:	0107d593          	srli	a1,a5,0x10
   104a8:	0107f7b3          	and	a5,a5,a6
   104ac:	01079793          	slli	a5,a5,0x10
   104b0:	010fffb3          	and	t6,t6,a6
   104b4:	01d585b3          	add	a1,a1,t4
   104b8:	01f787b3          	add	a5,a5,t6
   104bc:	02b76863          	bltu	a4,a1,104ec <__umoddi3+0x400>
   104c0:	02b70463          	beq	a4,a1,104e8 <__umoddi3+0x3fc>
   104c4:	40f507b3          	sub	a5,a0,a5
   104c8:	00f53533          	sltu	a0,a0,a5
   104cc:	40b705b3          	sub	a1,a4,a1
   104d0:	40a585b3          	sub	a1,a1,a0
   104d4:	01c59e33          	sll	t3,a1,t3
   104d8:	0067d533          	srl	a0,a5,t1
   104dc:	00ae6533          	or	a0,t3,a0
   104e0:	0065d5b3          	srl	a1,a1,t1
   104e4:	00008067          	ret
   104e8:	fcf57ee3          	bgeu	a0,a5,104c4 <__umoddi3+0x3d8>
   104ec:	40c78633          	sub	a2,a5,a2
   104f0:	00c7b7b3          	sltu	a5,a5,a2
   104f4:	00d787b3          	add	a5,a5,a3
   104f8:	40f585b3          	sub	a1,a1,a5
   104fc:	00060793          	mv	a5,a2
   10500:	fc5ff06f          	j	104c4 <__umoddi3+0x3d8>
   10504:	01085693          	srli	a3,a6,0x10
   10508:	01000793          	li	a5,16
   1050c:	d3dff06f          	j	10248 <__umoddi3+0x15c>
   10510:	0106d313          	srli	t1,a3,0x10
   10514:	01000893          	li	a7,16
   10518:	cc9ff06f          	j	101e0 <__umoddi3+0xf4>
   1051c:	01065693          	srli	a3,a2,0x10
   10520:	01000793          	li	a5,16
   10524:	bfdff06f          	j	10120 <__umoddi3+0x34>
   10528:	00068313          	mv	t1,a3
   1052c:	00000893          	li	a7,0
   10530:	cb1ff06f          	j	101e0 <__umoddi3+0xf4>
   10534:	00058793          	mv	a5,a1
   10538:	f1dff06f          	j	10454 <__umoddi3+0x368>
   1053c:	00088e93          	mv	t4,a7
   10540:	ed9ff06f          	j	10418 <__umoddi3+0x32c>
   10544:	01070733          	add	a4,a4,a6
   10548:	d59ff06f          	j	102a0 <__umoddi3+0x1b4>

0001054c <__divdf3>:
   1054c:	fc010113          	addi	sp,sp,-64
   10550:	0145d793          	srli	a5,a1,0x14
   10554:	02812c23          	sw	s0,56(sp)
   10558:	02912a23          	sw	s1,52(sp)
   1055c:	03512223          	sw	s5,36(sp)
   10560:	01712e23          	sw	s7,28(sp)
   10564:	00c59493          	slli	s1,a1,0xc
   10568:	02112e23          	sw	ra,60(sp)
   1056c:	03212823          	sw	s2,48(sp)
   10570:	03312623          	sw	s3,44(sp)
   10574:	03412423          	sw	s4,40(sp)
   10578:	03612023          	sw	s6,32(sp)
   1057c:	01812c23          	sw	s8,24(sp)
   10580:	7ff7f793          	andi	a5,a5,2047
   10584:	00050413          	mv	s0,a0
   10588:	00060b93          	mv	s7,a2
   1058c:	00c4d493          	srli	s1,s1,0xc
   10590:	01f5da93          	srli	s5,a1,0x1f
   10594:	1a078a63          	beqz	a5,10748 <__divdf3+0x1fc>
   10598:	7ff00713          	li	a4,2047
   1059c:	1ee78e63          	beq	a5,a4,10798 <__divdf3+0x24c>
   105a0:	01d55b13          	srli	s6,a0,0x1d
   105a4:	00349493          	slli	s1,s1,0x3
   105a8:	009b64b3          	or	s1,s6,s1
   105ac:	00800b37          	lui	s6,0x800
   105b0:	0164eb33          	or	s6,s1,s6
   105b4:	00351a13          	slli	s4,a0,0x3
   105b8:	c0178993          	addi	s3,a5,-1023
   105bc:	00000493          	li	s1,0
   105c0:	00000c13          	li	s8,0
   105c4:	0146d793          	srli	a5,a3,0x14
   105c8:	00c69413          	slli	s0,a3,0xc
   105cc:	7ff7f793          	andi	a5,a5,2047
   105d0:	00c45413          	srli	s0,s0,0xc
   105d4:	01f6d913          	srli	s2,a3,0x1f
   105d8:	12078663          	beqz	a5,10704 <__divdf3+0x1b8>
   105dc:	7ff00713          	li	a4,2047
   105e0:	10e78463          	beq	a5,a4,106e8 <__divdf3+0x19c>
   105e4:	00341713          	slli	a4,s0,0x3
   105e8:	01dbd413          	srli	s0,s7,0x1d
   105ec:	00e46433          	or	s0,s0,a4
   105f0:	c0178793          	addi	a5,a5,-1023
   105f4:	00800737          	lui	a4,0x800
   105f8:	00e46433          	or	s0,s0,a4
   105fc:	003b9593          	slli	a1,s7,0x3
   10600:	40f989b3          	sub	s3,s3,a5
   10604:	00000513          	li	a0,0
   10608:	00f00713          	li	a4,15
   1060c:	012ac6b3          	xor	a3,s5,s2
   10610:	24976c63          	bltu	a4,s1,10868 <__divdf3+0x31c>
   10614:	00010617          	auipc	a2,0x10
   10618:	71060613          	addi	a2,a2,1808 # 20d24 <zeroes.0+0x10>
   1061c:	00249493          	slli	s1,s1,0x2
   10620:	00c484b3          	add	s1,s1,a2
   10624:	0004a703          	lw	a4,0(s1)
   10628:	00c70733          	add	a4,a4,a2
   1062c:	00070067          	jr	a4 # 800000 <_stack+0x7c0000>
   10630:	000a8913          	mv	s2,s5
   10634:	000b0413          	mv	s0,s6
   10638:	000a0593          	mv	a1,s4
   1063c:	000c0513          	mv	a0,s8
   10640:	00100793          	li	a5,1
   10644:	20f50863          	beq	a0,a5,10854 <__divdf3+0x308>
   10648:	1a050c63          	beqz	a0,10800 <__divdf3+0x2b4>
   1064c:	00200793          	li	a5,2
   10650:	52f50663          	beq	a0,a5,10b7c <__divdf3+0x630>
   10654:	00300793          	li	a5,3
   10658:	1af51463          	bne	a0,a5,10800 <__divdf3+0x2b4>
   1065c:	00000693          	li	a3,0
   10660:	7ff00793          	li	a5,2047
   10664:	00080637          	lui	a2,0x80
   10668:	00000413          	li	s0,0
   1066c:	03c12083          	lw	ra,60(sp)
   10670:	00040513          	mv	a0,s0
   10674:	01479793          	slli	a5,a5,0x14
   10678:	03812403          	lw	s0,56(sp)
   1067c:	01f69913          	slli	s2,a3,0x1f
   10680:	00c7e7b3          	or	a5,a5,a2
   10684:	0127e7b3          	or	a5,a5,s2
   10688:	03412483          	lw	s1,52(sp)
   1068c:	03012903          	lw	s2,48(sp)
   10690:	02c12983          	lw	s3,44(sp)
   10694:	02812a03          	lw	s4,40(sp)
   10698:	02412a83          	lw	s5,36(sp)
   1069c:	02012b03          	lw	s6,32(sp)
   106a0:	01c12b83          	lw	s7,28(sp)
   106a4:	01812c03          	lw	s8,24(sp)
   106a8:	00078593          	mv	a1,a5
   106ac:	04010113          	addi	sp,sp,64
   106b0:	00008067          	ret
   106b4:	7ff00793          	li	a5,2047
   106b8:	00000613          	li	a2,0
   106bc:	00000413          	li	s0,0
   106c0:	fadff06f          	j	1066c <__divdf3+0x120>
   106c4:	3c070e63          	beqz	a4,10aa0 <__divdf3+0x554>
   106c8:	00100613          	li	a2,1
   106cc:	40e60633          	sub	a2,a2,a4
   106d0:	03800793          	li	a5,56
   106d4:	50c7d663          	bge	a5,a2,10be0 <__divdf3+0x694>
   106d8:	00000793          	li	a5,0
   106dc:	00000613          	li	a2,0
   106e0:	00000413          	li	s0,0
   106e4:	f89ff06f          	j	1066c <__divdf3+0x120>
   106e8:	017465b3          	or	a1,s0,s7
   106ec:	80198993          	addi	s3,s3,-2047
   106f0:	10059063          	bnez	a1,107f0 <__divdf3+0x2a4>
   106f4:	0024e493          	ori	s1,s1,2
   106f8:	00000413          	li	s0,0
   106fc:	00200513          	li	a0,2
   10700:	f09ff06f          	j	10608 <__divdf3+0xbc>
   10704:	017465b3          	or	a1,s0,s7
   10708:	0c058c63          	beqz	a1,107e0 <__divdf3+0x294>
   1070c:	3e040e63          	beqz	s0,10b08 <__divdf3+0x5bc>
   10710:	00040513          	mv	a0,s0
   10714:	5e5030ef          	jal	ra,144f8 <__clzsi2>
   10718:	ff550713          	addi	a4,a0,-11
   1071c:	01d00793          	li	a5,29
   10720:	ff850593          	addi	a1,a0,-8
   10724:	40e787b3          	sub	a5,a5,a4
   10728:	00b41433          	sll	s0,s0,a1
   1072c:	00fbd7b3          	srl	a5,s7,a5
   10730:	0087e433          	or	s0,a5,s0
   10734:	00bb95b3          	sll	a1,s7,a1
   10738:	013507b3          	add	a5,a0,s3
   1073c:	3f378993          	addi	s3,a5,1011
   10740:	00000513          	li	a0,0
   10744:	ec5ff06f          	j	10608 <__divdf3+0xbc>
   10748:	00a4eb33          	or	s6,s1,a0
   1074c:	080b0063          	beqz	s6,107cc <__divdf3+0x280>
   10750:	00d12623          	sw	a3,12(sp)
   10754:	38048463          	beqz	s1,10adc <__divdf3+0x590>
   10758:	00048513          	mv	a0,s1
   1075c:	59d030ef          	jal	ra,144f8 <__clzsi2>
   10760:	00c12683          	lw	a3,12(sp)
   10764:	ff550793          	addi	a5,a0,-11
   10768:	01d00b13          	li	s6,29
   1076c:	ff850a13          	addi	s4,a0,-8
   10770:	40fb0b33          	sub	s6,s6,a5
   10774:	014494b3          	sll	s1,s1,s4
   10778:	01645b33          	srl	s6,s0,s6
   1077c:	009b6b33          	or	s6,s6,s1
   10780:	01441a33          	sll	s4,s0,s4
   10784:	c0d00793          	li	a5,-1011
   10788:	40a789b3          	sub	s3,a5,a0
   1078c:	00000493          	li	s1,0
   10790:	00000c13          	li	s8,0
   10794:	e31ff06f          	j	105c4 <__divdf3+0x78>
   10798:	00a4eb33          	or	s6,s1,a0
   1079c:	000b1c63          	bnez	s6,107b4 <__divdf3+0x268>
   107a0:	00000a13          	li	s4,0
   107a4:	00800493          	li	s1,8
   107a8:	7ff00993          	li	s3,2047
   107ac:	00200c13          	li	s8,2
   107b0:	e15ff06f          	j	105c4 <__divdf3+0x78>
   107b4:	00048b13          	mv	s6,s1
   107b8:	00050a13          	mv	s4,a0
   107bc:	00c00493          	li	s1,12
   107c0:	7ff00993          	li	s3,2047
   107c4:	00300c13          	li	s8,3
   107c8:	dfdff06f          	j	105c4 <__divdf3+0x78>
   107cc:	00000a13          	li	s4,0
   107d0:	00400493          	li	s1,4
   107d4:	00000993          	li	s3,0
   107d8:	00100c13          	li	s8,1
   107dc:	de9ff06f          	j	105c4 <__divdf3+0x78>
   107e0:	0014e493          	ori	s1,s1,1
   107e4:	00000413          	li	s0,0
   107e8:	00100513          	li	a0,1
   107ec:	e1dff06f          	j	10608 <__divdf3+0xbc>
   107f0:	0034e493          	ori	s1,s1,3
   107f4:	000b8593          	mv	a1,s7
   107f8:	00300513          	li	a0,3
   107fc:	e0dff06f          	j	10608 <__divdf3+0xbc>
   10800:	3ff98713          	addi	a4,s3,1023
   10804:	00090693          	mv	a3,s2
   10808:	eae05ee3          	blez	a4,106c4 <__divdf3+0x178>
   1080c:	0075f793          	andi	a5,a1,7
   10810:	38079063          	bnez	a5,10b90 <__divdf3+0x644>
   10814:	0035d593          	srli	a1,a1,0x3
   10818:	010007b7          	lui	a5,0x1000
   1081c:	00f477b3          	and	a5,s0,a5
   10820:	00078a63          	beqz	a5,10834 <__divdf3+0x2e8>
   10824:	ff0007b7          	lui	a5,0xff000
   10828:	fff78793          	addi	a5,a5,-1 # feffffff <_stack+0xfefbffff>
   1082c:	00f47433          	and	s0,s0,a5
   10830:	40098713          	addi	a4,s3,1024
   10834:	7fe00793          	li	a5,2046
   10838:	e6e7cee3          	blt	a5,a4,106b4 <__divdf3+0x168>
   1083c:	00941793          	slli	a5,s0,0x9
   10840:	01d41613          	slli	a2,s0,0x1d
   10844:	00b66433          	or	s0,a2,a1
   10848:	00c7d613          	srli	a2,a5,0xc
   1084c:	7ff77793          	andi	a5,a4,2047
   10850:	e1dff06f          	j	1066c <__divdf3+0x120>
   10854:	00090693          	mv	a3,s2
   10858:	00000793          	li	a5,0
   1085c:	00000613          	li	a2,0
   10860:	00000413          	li	s0,0
   10864:	e09ff06f          	j	1066c <__divdf3+0x120>
   10868:	2f646e63          	bltu	s0,s6,10b64 <__divdf3+0x618>
   1086c:	2e8b0a63          	beq	s6,s0,10b60 <__divdf3+0x614>
   10870:	000a0713          	mv	a4,s4
   10874:	fff98993          	addi	s3,s3,-1
   10878:	000b0493          	mv	s1,s6
   1087c:	00000a13          	li	s4,0
   10880:	00841793          	slli	a5,s0,0x8
   10884:	0107d893          	srli	a7,a5,0x10
   10888:	0314d433          	divu	s0,s1,a7
   1088c:	0185d513          	srli	a0,a1,0x18
   10890:	00f56533          	or	a0,a0,a5
   10894:	01051313          	slli	t1,a0,0x10
   10898:	01035313          	srli	t1,t1,0x10
   1089c:	01075613          	srli	a2,a4,0x10
   108a0:	00859813          	slli	a6,a1,0x8
   108a4:	0314f4b3          	remu	s1,s1,a7
   108a8:	028307b3          	mul	a5,t1,s0
   108ac:	01049493          	slli	s1,s1,0x10
   108b0:	009664b3          	or	s1,a2,s1
   108b4:	00f4fe63          	bgeu	s1,a5,108d0 <__divdf3+0x384>
   108b8:	00a484b3          	add	s1,s1,a0
   108bc:	fff40613          	addi	a2,s0,-1
   108c0:	30a4ec63          	bltu	s1,a0,10bd8 <__divdf3+0x68c>
   108c4:	30f4fa63          	bgeu	s1,a5,10bd8 <__divdf3+0x68c>
   108c8:	ffe40413          	addi	s0,s0,-2
   108cc:	00a484b3          	add	s1,s1,a0
   108d0:	40f484b3          	sub	s1,s1,a5
   108d4:	0314d7b3          	divu	a5,s1,a7
   108d8:	01071713          	slli	a4,a4,0x10
   108dc:	01075713          	srli	a4,a4,0x10
   108e0:	0314f4b3          	remu	s1,s1,a7
   108e4:	02f30633          	mul	a2,t1,a5
   108e8:	01049493          	slli	s1,s1,0x10
   108ec:	009764b3          	or	s1,a4,s1
   108f0:	00c4fe63          	bgeu	s1,a2,1090c <__divdf3+0x3c0>
   108f4:	00a484b3          	add	s1,s1,a0
   108f8:	fff78713          	addi	a4,a5,-1
   108fc:	2ca4ea63          	bltu	s1,a0,10bd0 <__divdf3+0x684>
   10900:	2cc4f863          	bgeu	s1,a2,10bd0 <__divdf3+0x684>
   10904:	ffe78793          	addi	a5,a5,-2
   10908:	00a484b3          	add	s1,s1,a0
   1090c:	01041413          	slli	s0,s0,0x10
   10910:	000103b7          	lui	t2,0x10
   10914:	00f46433          	or	s0,s0,a5
   10918:	fff38e13          	addi	t3,t2,-1 # ffff <__udivdi3+0x3b3>
   1091c:	01c475b3          	and	a1,s0,t3
   10920:	01045f13          	srli	t5,s0,0x10
   10924:	01085e93          	srli	t4,a6,0x10
   10928:	01c87e33          	and	t3,a6,t3
   1092c:	03cf02b3          	mul	t0,t5,t3
   10930:	40c48733          	sub	a4,s1,a2
   10934:	02be0fb3          	mul	t6,t3,a1
   10938:	02be87b3          	mul	a5,t4,a1
   1093c:	010fd613          	srli	a2,t6,0x10
   10940:	005787b3          	add	a5,a5,t0
   10944:	00f607b3          	add	a5,a2,a5
   10948:	03df0f33          	mul	t5,t5,t4
   1094c:	0057f463          	bgeu	a5,t0,10954 <__divdf3+0x408>
   10950:	007f0f33          	add	t5,t5,t2
   10954:	000105b7          	lui	a1,0x10
   10958:	fff58593          	addi	a1,a1,-1 # ffff <__udivdi3+0x3b3>
   1095c:	0107d613          	srli	a2,a5,0x10
   10960:	00b7f7b3          	and	a5,a5,a1
   10964:	01079793          	slli	a5,a5,0x10
   10968:	00bff5b3          	and	a1,t6,a1
   1096c:	01e60633          	add	a2,a2,t5
   10970:	00b787b3          	add	a5,a5,a1
   10974:	1cc76263          	bltu	a4,a2,10b38 <__divdf3+0x5ec>
   10978:	1ac70e63          	beq	a4,a2,10b34 <__divdf3+0x5e8>
   1097c:	40fa07b3          	sub	a5,s4,a5
   10980:	40c70733          	sub	a4,a4,a2
   10984:	00fa3a33          	sltu	s4,s4,a5
   10988:	41470a33          	sub	s4,a4,s4
   1098c:	3ff98713          	addi	a4,s3,1023
   10990:	0f450c63          	beq	a0,s4,10a88 <__divdf3+0x53c>
   10994:	031a55b3          	divu	a1,s4,a7
   10998:	0107d613          	srli	a2,a5,0x10
   1099c:	031a7a33          	remu	s4,s4,a7
   109a0:	02b30f33          	mul	t5,t1,a1
   109a4:	010a1a13          	slli	s4,s4,0x10
   109a8:	01466a33          	or	s4,a2,s4
   109ac:	01ea7e63          	bgeu	s4,t5,109c8 <__divdf3+0x47c>
   109b0:	00aa0a33          	add	s4,s4,a0
   109b4:	fff58613          	addi	a2,a1,-1
   109b8:	2caa6263          	bltu	s4,a0,10c7c <__divdf3+0x730>
   109bc:	2dea7063          	bgeu	s4,t5,10c7c <__divdf3+0x730>
   109c0:	ffe58593          	addi	a1,a1,-2
   109c4:	00aa0a33          	add	s4,s4,a0
   109c8:	41ea0a33          	sub	s4,s4,t5
   109cc:	031a5633          	divu	a2,s4,a7
   109d0:	01079793          	slli	a5,a5,0x10
   109d4:	0107d793          	srli	a5,a5,0x10
   109d8:	031a7a33          	remu	s4,s4,a7
   109dc:	02c30333          	mul	t1,t1,a2
   109e0:	010a1a13          	slli	s4,s4,0x10
   109e4:	0147e7b3          	or	a5,a5,s4
   109e8:	0067fe63          	bgeu	a5,t1,10a04 <__divdf3+0x4b8>
   109ec:	00a787b3          	add	a5,a5,a0
   109f0:	fff60893          	addi	a7,a2,-1 # 7ffff <_stack+0x3ffff>
   109f4:	28a7e063          	bltu	a5,a0,10c74 <__divdf3+0x728>
   109f8:	2667fe63          	bgeu	a5,t1,10c74 <__divdf3+0x728>
   109fc:	ffe60613          	addi	a2,a2,-2
   10a00:	00a787b3          	add	a5,a5,a0
   10a04:	01059593          	slli	a1,a1,0x10
   10a08:	00c5e5b3          	or	a1,a1,a2
   10a0c:	01059893          	slli	a7,a1,0x10
   10a10:	0105df93          	srli	t6,a1,0x10
   10a14:	0108d893          	srli	a7,a7,0x10
   10a18:	03c88f33          	mul	t5,a7,t3
   10a1c:	406787b3          	sub	a5,a5,t1
   10a20:	031e88b3          	mul	a7,t4,a7
   10a24:	010f5613          	srli	a2,t5,0x10
   10a28:	03cf8e33          	mul	t3,t6,t3
   10a2c:	01c888b3          	add	a7,a7,t3
   10a30:	01160633          	add	a2,a2,a7
   10a34:	03fe8eb3          	mul	t4,t4,t6
   10a38:	01c67663          	bgeu	a2,t3,10a44 <__divdf3+0x4f8>
   10a3c:	000108b7          	lui	a7,0x10
   10a40:	011e8eb3          	add	t4,t4,a7
   10a44:	00010337          	lui	t1,0x10
   10a48:	fff30313          	addi	t1,t1,-1 # ffff <__udivdi3+0x3b3>
   10a4c:	01065893          	srli	a7,a2,0x10
   10a50:	00667633          	and	a2,a2,t1
   10a54:	01061613          	slli	a2,a2,0x10
   10a58:	006f7f33          	and	t5,t5,t1
   10a5c:	01d88eb3          	add	t4,a7,t4
   10a60:	01e60633          	add	a2,a2,t5
   10a64:	15d7f863          	bgeu	a5,t4,10bb4 <__divdf3+0x668>
   10a68:	00f507b3          	add	a5,a0,a5
   10a6c:	fff58893          	addi	a7,a1,-1
   10a70:	24a7ec63          	bltu	a5,a0,10cc8 <__divdf3+0x77c>
   10a74:	23d7e663          	bltu	a5,t4,10ca0 <__divdf3+0x754>
   10a78:	25d78e63          	beq	a5,t4,10cd4 <__divdf3+0x788>
   10a7c:	00088593          	mv	a1,a7
   10a80:	0015e593          	ori	a1,a1,1
   10a84:	d85ff06f          	j	10808 <__divdf3+0x2bc>
   10a88:	00000593          	li	a1,0
   10a8c:	00100793          	li	a5,1
   10a90:	10e04e63          	bgtz	a4,10bac <__divdf3+0x660>
   10a94:	fff00593          	li	a1,-1
   10a98:	c20718e3          	bnez	a4,106c8 <__divdf3+0x17c>
   10a9c:	c0100993          	li	s3,-1023
   10aa0:	00100613          	li	a2,1
   10aa4:	41e98793          	addi	a5,s3,1054
   10aa8:	00f41733          	sll	a4,s0,a5
   10aac:	00c5d533          	srl	a0,a1,a2
   10ab0:	00f597b3          	sll	a5,a1,a5
   10ab4:	00f037b3          	snez	a5,a5
   10ab8:	00a765b3          	or	a1,a4,a0
   10abc:	00f5e5b3          	or	a1,a1,a5
   10ac0:	0075f793          	andi	a5,a1,7
   10ac4:	00c45433          	srl	s0,s0,a2
   10ac8:	16078a63          	beqz	a5,10c3c <__divdf3+0x6f0>
   10acc:	00f5f793          	andi	a5,a1,15
   10ad0:	00400713          	li	a4,4
   10ad4:	14e79c63          	bne	a5,a4,10c2c <__divdf3+0x6e0>
   10ad8:	1640006f          	j	10c3c <__divdf3+0x6f0>
   10adc:	21d030ef          	jal	ra,144f8 <__clzsi2>
   10ae0:	01550793          	addi	a5,a0,21
   10ae4:	01c00713          	li	a4,28
   10ae8:	00050b13          	mv	s6,a0
   10aec:	00c12683          	lw	a3,12(sp)
   10af0:	02050513          	addi	a0,a0,32
   10af4:	c6f75ae3          	bge	a4,a5,10768 <__divdf3+0x21c>
   10af8:	ff8b0493          	addi	s1,s6,-8 # 7ffff8 <_stack+0x7bfff8>
   10afc:	00941b33          	sll	s6,s0,s1
   10b00:	00000a13          	li	s4,0
   10b04:	c81ff06f          	j	10784 <__divdf3+0x238>
   10b08:	000b8513          	mv	a0,s7
   10b0c:	1ed030ef          	jal	ra,144f8 <__clzsi2>
   10b10:	01550713          	addi	a4,a0,21
   10b14:	01c00693          	li	a3,28
   10b18:	00050793          	mv	a5,a0
   10b1c:	02050513          	addi	a0,a0,32
   10b20:	bee6dee3          	bge	a3,a4,1071c <__divdf3+0x1d0>
   10b24:	ff878793          	addi	a5,a5,-8
   10b28:	00000593          	li	a1,0
   10b2c:	00fb9433          	sll	s0,s7,a5
   10b30:	c09ff06f          	j	10738 <__divdf3+0x1ec>
   10b34:	e4fa74e3          	bgeu	s4,a5,1097c <__divdf3+0x430>
   10b38:	010a0a33          	add	s4,s4,a6
   10b3c:	010a35b3          	sltu	a1,s4,a6
   10b40:	00a585b3          	add	a1,a1,a0
   10b44:	00b70733          	add	a4,a4,a1
   10b48:	fff40593          	addi	a1,s0,-1
   10b4c:	06e57a63          	bgeu	a0,a4,10bc0 <__divdf3+0x674>
   10b50:	10c76663          	bltu	a4,a2,10c5c <__divdf3+0x710>
   10b54:	10e60263          	beq	a2,a4,10c58 <__divdf3+0x70c>
   10b58:	00058413          	mv	s0,a1
   10b5c:	e21ff06f          	j	1097c <__divdf3+0x430>
   10b60:	d0ba68e3          	bltu	s4,a1,10870 <__divdf3+0x324>
   10b64:	001a5793          	srli	a5,s4,0x1
   10b68:	01fb1713          	slli	a4,s6,0x1f
   10b6c:	001b5493          	srli	s1,s6,0x1
   10b70:	00f76733          	or	a4,a4,a5
   10b74:	01fa1a13          	slli	s4,s4,0x1f
   10b78:	d09ff06f          	j	10880 <__divdf3+0x334>
   10b7c:	00090693          	mv	a3,s2
   10b80:	7ff00793          	li	a5,2047
   10b84:	00000613          	li	a2,0
   10b88:	00000413          	li	s0,0
   10b8c:	ae1ff06f          	j	1066c <__divdf3+0x120>
   10b90:	00f5f793          	andi	a5,a1,15
   10b94:	00400613          	li	a2,4
   10b98:	c6c78ee3          	beq	a5,a2,10814 <__divdf3+0x2c8>
   10b9c:	ffc5b793          	sltiu	a5,a1,-4
   10ba0:	00458593          	addi	a1,a1,4
   10ba4:	0017c793          	xori	a5,a5,1
   10ba8:	0035d593          	srli	a1,a1,0x3
   10bac:	00f40433          	add	s0,s0,a5
   10bb0:	c69ff06f          	j	10818 <__divdf3+0x2cc>
   10bb4:	edd796e3          	bne	a5,t4,10a80 <__divdf3+0x534>
   10bb8:	c40608e3          	beqz	a2,10808 <__divdf3+0x2bc>
   10bbc:	eadff06f          	j	10a68 <__divdf3+0x51c>
   10bc0:	f8e51ce3          	bne	a0,a4,10b58 <__divdf3+0x60c>
   10bc4:	f90a76e3          	bgeu	s4,a6,10b50 <__divdf3+0x604>
   10bc8:	00058413          	mv	s0,a1
   10bcc:	db1ff06f          	j	1097c <__divdf3+0x430>
   10bd0:	00070793          	mv	a5,a4
   10bd4:	d39ff06f          	j	1090c <__divdf3+0x3c0>
   10bd8:	00060413          	mv	s0,a2
   10bdc:	cf5ff06f          	j	108d0 <__divdf3+0x384>
   10be0:	01f00793          	li	a5,31
   10be4:	ecc7d0e3          	bge	a5,a2,10aa4 <__divdf3+0x558>
   10be8:	fe100793          	li	a5,-31
   10bec:	40e78733          	sub	a4,a5,a4
   10bf0:	02000793          	li	a5,32
   10bf4:	00e45733          	srl	a4,s0,a4
   10bf8:	00f60863          	beq	a2,a5,10c08 <__divdf3+0x6bc>
   10bfc:	43e98793          	addi	a5,s3,1086
   10c00:	00f41433          	sll	s0,s0,a5
   10c04:	0085e5b3          	or	a1,a1,s0
   10c08:	00b035b3          	snez	a1,a1
   10c0c:	00e5e5b3          	or	a1,a1,a4
   10c10:	0075f413          	andi	s0,a1,7
   10c14:	00000613          	li	a2,0
   10c18:	06040c63          	beqz	s0,10c90 <__divdf3+0x744>
   10c1c:	00f5f793          	andi	a5,a1,15
   10c20:	00400713          	li	a4,4
   10c24:	00000413          	li	s0,0
   10c28:	04e78e63          	beq	a5,a4,10c84 <__divdf3+0x738>
   10c2c:	00458793          	addi	a5,a1,4
   10c30:	00b7b5b3          	sltu	a1,a5,a1
   10c34:	00b40433          	add	s0,s0,a1
   10c38:	00078593          	mv	a1,a5
   10c3c:	008007b7          	lui	a5,0x800
   10c40:	00f477b3          	and	a5,s0,a5
   10c44:	04078063          	beqz	a5,10c84 <__divdf3+0x738>
   10c48:	00100793          	li	a5,1
   10c4c:	00000613          	li	a2,0
   10c50:	00000413          	li	s0,0
   10c54:	a19ff06f          	j	1066c <__divdf3+0x120>
   10c58:	f0fa70e3          	bgeu	s4,a5,10b58 <__divdf3+0x60c>
   10c5c:	010a0a33          	add	s4,s4,a6
   10c60:	010a35b3          	sltu	a1,s4,a6
   10c64:	00a585b3          	add	a1,a1,a0
   10c68:	ffe40413          	addi	s0,s0,-2
   10c6c:	00b70733          	add	a4,a4,a1
   10c70:	d0dff06f          	j	1097c <__divdf3+0x430>
   10c74:	00088613          	mv	a2,a7
   10c78:	d8dff06f          	j	10a04 <__divdf3+0x4b8>
   10c7c:	00060593          	mv	a1,a2
   10c80:	d49ff06f          	j	109c8 <__divdf3+0x47c>
   10c84:	00941793          	slli	a5,s0,0x9
   10c88:	00c7d613          	srli	a2,a5,0xc
   10c8c:	01d41413          	slli	s0,s0,0x1d
   10c90:	0035d593          	srli	a1,a1,0x3
   10c94:	00b46433          	or	s0,s0,a1
   10c98:	00000793          	li	a5,0
   10c9c:	9d1ff06f          	j	1066c <__divdf3+0x120>
   10ca0:	00181893          	slli	a7,a6,0x1
   10ca4:	0108b833          	sltu	a6,a7,a6
   10ca8:	00a80533          	add	a0,a6,a0
   10cac:	00a787b3          	add	a5,a5,a0
   10cb0:	ffe58593          	addi	a1,a1,-2
   10cb4:	00088813          	mv	a6,a7
   10cb8:	ddd794e3          	bne	a5,t4,10a80 <__divdf3+0x534>
   10cbc:	b50606e3          	beq	a2,a6,10808 <__divdf3+0x2bc>
   10cc0:	0015e593          	ori	a1,a1,1
   10cc4:	b45ff06f          	j	10808 <__divdf3+0x2bc>
   10cc8:	00088593          	mv	a1,a7
   10ccc:	ffd788e3          	beq	a5,t4,10cbc <__divdf3+0x770>
   10cd0:	db1ff06f          	j	10a80 <__divdf3+0x534>
   10cd4:	fcc866e3          	bltu	a6,a2,10ca0 <__divdf3+0x754>
   10cd8:	00088593          	mv	a1,a7
   10cdc:	ff0612e3          	bne	a2,a6,10cc0 <__divdf3+0x774>
   10ce0:	b29ff06f          	j	10808 <__divdf3+0x2bc>

00010ce4 <__muldf3>:
   10ce4:	fd010113          	addi	sp,sp,-48
   10ce8:	0145d793          	srli	a5,a1,0x14
   10cec:	02812423          	sw	s0,40(sp)
   10cf0:	03212023          	sw	s2,32(sp)
   10cf4:	01412c23          	sw	s4,24(sp)
   10cf8:	01612823          	sw	s6,16(sp)
   10cfc:	01712623          	sw	s7,12(sp)
   10d00:	00c59413          	slli	s0,a1,0xc
   10d04:	02112623          	sw	ra,44(sp)
   10d08:	02912223          	sw	s1,36(sp)
   10d0c:	01312e23          	sw	s3,28(sp)
   10d10:	01512a23          	sw	s5,20(sp)
   10d14:	01812423          	sw	s8,8(sp)
   10d18:	7ff7f793          	andi	a5,a5,2047
   10d1c:	00050913          	mv	s2,a0
   10d20:	00060b93          	mv	s7,a2
   10d24:	00068a13          	mv	s4,a3
   10d28:	00c45413          	srli	s0,s0,0xc
   10d2c:	01f5db13          	srli	s6,a1,0x1f
   10d30:	3c078063          	beqz	a5,110f0 <__muldf3+0x40c>
   10d34:	7ff00713          	li	a4,2047
   10d38:	40e78063          	beq	a5,a4,11138 <__muldf3+0x454>
   10d3c:	00341713          	slli	a4,s0,0x3
   10d40:	01d55413          	srli	s0,a0,0x1d
   10d44:	00e46433          	or	s0,s0,a4
   10d48:	00800737          	lui	a4,0x800
   10d4c:	00e46433          	or	s0,s0,a4
   10d50:	00351493          	slli	s1,a0,0x3
   10d54:	c0178a93          	addi	s5,a5,-1023 # 7ffc01 <_stack+0x7bfc01>
   10d58:	00000993          	li	s3,0
   10d5c:	00000c13          	li	s8,0
   10d60:	014a5793          	srli	a5,s4,0x14
   10d64:	00ca1913          	slli	s2,s4,0xc
   10d68:	7ff7f793          	andi	a5,a5,2047
   10d6c:	00c95913          	srli	s2,s2,0xc
   10d70:	01fa5a13          	srli	s4,s4,0x1f
   10d74:	32078c63          	beqz	a5,110ac <__muldf3+0x3c8>
   10d78:	7ff00713          	li	a4,2047
   10d7c:	3ce78c63          	beq	a5,a4,11154 <__muldf3+0x470>
   10d80:	00391713          	slli	a4,s2,0x3
   10d84:	01dbd913          	srli	s2,s7,0x1d
   10d88:	00e96933          	or	s2,s2,a4
   10d8c:	c0178793          	addi	a5,a5,-1023
   10d90:	00800737          	lui	a4,0x800
   10d94:	00e96933          	or	s2,s2,a4
   10d98:	003b9593          	slli	a1,s7,0x3
   10d9c:	00fa8ab3          	add	s5,s5,a5
   10da0:	00000893          	li	a7,0
   10da4:	014b4533          	xor	a0,s6,s4
   10da8:	00f00793          	li	a5,15
   10dac:	00050813          	mv	a6,a0
   10db0:	001a8713          	addi	a4,s5,1
   10db4:	0d37e463          	bltu	a5,s3,10e7c <__muldf3+0x198>
   10db8:	00010617          	auipc	a2,0x10
   10dbc:	fac60613          	addi	a2,a2,-84 # 20d64 <zeroes.0+0x50>
   10dc0:	00299993          	slli	s3,s3,0x2
   10dc4:	00c989b3          	add	s3,s3,a2
   10dc8:	0009a683          	lw	a3,0(s3)
   10dcc:	00c686b3          	add	a3,a3,a2
   10dd0:	00068067          	jr	a3
   10dd4:	000a0813          	mv	a6,s4
   10dd8:	00090413          	mv	s0,s2
   10ddc:	00058493          	mv	s1,a1
   10de0:	00088c13          	mv	s8,a7
   10de4:	00200793          	li	a5,2
   10de8:	06fc0663          	beq	s8,a5,10e54 <__muldf3+0x170>
   10dec:	00300793          	li	a5,3
   10df0:	06fc0c63          	beq	s8,a5,10e68 <__muldf3+0x184>
   10df4:	00100793          	li	a5,1
   10df8:	00080513          	mv	a0,a6
   10dfc:	24fc1263          	bne	s8,a5,11040 <__muldf3+0x35c>
   10e00:	00000413          	li	s0,0
   10e04:	00000713          	li	a4,0
   10e08:	00000493          	li	s1,0
   10e0c:	01441413          	slli	s0,s0,0x14
   10e10:	01f51513          	slli	a0,a0,0x1f
   10e14:	00e46433          	or	s0,s0,a4
   10e18:	00a46433          	or	s0,s0,a0
   10e1c:	02c12083          	lw	ra,44(sp)
   10e20:	00040593          	mv	a1,s0
   10e24:	02812403          	lw	s0,40(sp)
   10e28:	02012903          	lw	s2,32(sp)
   10e2c:	01c12983          	lw	s3,28(sp)
   10e30:	01812a03          	lw	s4,24(sp)
   10e34:	01412a83          	lw	s5,20(sp)
   10e38:	01012b03          	lw	s6,16(sp)
   10e3c:	00c12b83          	lw	s7,12(sp)
   10e40:	00812c03          	lw	s8,8(sp)
   10e44:	00048513          	mv	a0,s1
   10e48:	02412483          	lw	s1,36(sp)
   10e4c:	03010113          	addi	sp,sp,48
   10e50:	00008067          	ret
   10e54:	00080513          	mv	a0,a6
   10e58:	7ff00413          	li	s0,2047
   10e5c:	00000713          	li	a4,0
   10e60:	00000493          	li	s1,0
   10e64:	fa9ff06f          	j	10e0c <__muldf3+0x128>
   10e68:	00000513          	li	a0,0
   10e6c:	7ff00413          	li	s0,2047
   10e70:	00080737          	lui	a4,0x80
   10e74:	00000493          	li	s1,0
   10e78:	f95ff06f          	j	10e0c <__muldf3+0x128>
   10e7c:	00010e37          	lui	t3,0x10
   10e80:	fffe0693          	addi	a3,t3,-1 # ffff <__udivdi3+0x3b3>
   10e84:	0104d793          	srli	a5,s1,0x10
   10e88:	0105d613          	srli	a2,a1,0x10
   10e8c:	00d4f4b3          	and	s1,s1,a3
   10e90:	00d5f5b3          	and	a1,a1,a3
   10e94:	02b486b3          	mul	a3,s1,a1
   10e98:	02b788b3          	mul	a7,a5,a1
   10e9c:	0106d313          	srli	t1,a3,0x10
   10ea0:	02960833          	mul	a6,a2,s1
   10ea4:	01180833          	add	a6,a6,a7
   10ea8:	01030333          	add	t1,t1,a6
   10eac:	02c78f33          	mul	t5,a5,a2
   10eb0:	01137463          	bgeu	t1,a7,10eb8 <__muldf3+0x1d4>
   10eb4:	01cf0f33          	add	t5,t5,t3
   10eb8:	00010eb7          	lui	t4,0x10
   10ebc:	fffe8893          	addi	a7,t4,-1 # ffff <__udivdi3+0x3b3>
   10ec0:	01137833          	and	a6,t1,a7
   10ec4:	01095293          	srli	t0,s2,0x10
   10ec8:	0116f6b3          	and	a3,a3,a7
   10ecc:	01197933          	and	s2,s2,a7
   10ed0:	01081813          	slli	a6,a6,0x10
   10ed4:	032488b3          	mul	a7,s1,s2
   10ed8:	00d80833          	add	a6,a6,a3
   10edc:	01035313          	srli	t1,t1,0x10
   10ee0:	032786b3          	mul	a3,a5,s2
   10ee4:	0108de13          	srli	t3,a7,0x10
   10ee8:	029284b3          	mul	s1,t0,s1
   10eec:	00d484b3          	add	s1,s1,a3
   10ef0:	009e04b3          	add	s1,t3,s1
   10ef4:	025787b3          	mul	a5,a5,t0
   10ef8:	00d4f463          	bgeu	s1,a3,10f00 <__muldf3+0x21c>
   10efc:	01d787b3          	add	a5,a5,t4
   10f00:	000109b7          	lui	s3,0x10
   10f04:	fff98693          	addi	a3,s3,-1 # ffff <__udivdi3+0x3b3>
   10f08:	01045f93          	srli	t6,s0,0x10
   10f0c:	00d4feb3          	and	t4,s1,a3
   10f10:	00d47433          	and	s0,s0,a3
   10f14:	0104d493          	srli	s1,s1,0x10
   10f18:	00f48e33          	add	t3,s1,a5
   10f1c:	028583b3          	mul	t2,a1,s0
   10f20:	00d8f8b3          	and	a7,a7,a3
   10f24:	010e9e93          	slli	t4,t4,0x10
   10f28:	011e8eb3          	add	t4,t4,a7
   10f2c:	01d30333          	add	t1,t1,t4
   10f30:	028607b3          	mul	a5,a2,s0
   10f34:	0103d893          	srli	a7,t2,0x10
   10f38:	02bf85b3          	mul	a1,t6,a1
   10f3c:	00b787b3          	add	a5,a5,a1
   10f40:	00f888b3          	add	a7,a7,a5
   10f44:	03f60633          	mul	a2,a2,t6
   10f48:	00b8f463          	bgeu	a7,a1,10f50 <__muldf3+0x26c>
   10f4c:	01360633          	add	a2,a2,s3
   10f50:	000104b7          	lui	s1,0x10
   10f54:	fff48693          	addi	a3,s1,-1 # ffff <__udivdi3+0x3b3>
   10f58:	00d8f7b3          	and	a5,a7,a3
   10f5c:	00d3f3b3          	and	t2,t2,a3
   10f60:	0108d893          	srli	a7,a7,0x10
   10f64:	01079793          	slli	a5,a5,0x10
   10f68:	00c888b3          	add	a7,a7,a2
   10f6c:	028905b3          	mul	a1,s2,s0
   10f70:	007787b3          	add	a5,a5,t2
   10f74:	032f8933          	mul	s2,t6,s2
   10f78:	0105d693          	srli	a3,a1,0x10
   10f7c:	02828433          	mul	s0,t0,s0
   10f80:	01240433          	add	s0,s0,s2
   10f84:	00868433          	add	s0,a3,s0
   10f88:	03f28fb3          	mul	t6,t0,t6
   10f8c:	01247463          	bgeu	s0,s2,10f94 <__muldf3+0x2b0>
   10f90:	009f8fb3          	add	t6,t6,s1
   10f94:	000106b7          	lui	a3,0x10
   10f98:	fff68693          	addi	a3,a3,-1 # ffff <__udivdi3+0x3b3>
   10f9c:	00d47633          	and	a2,s0,a3
   10fa0:	01061613          	slli	a2,a2,0x10
   10fa4:	00d5f6b3          	and	a3,a1,a3
   10fa8:	00d60633          	add	a2,a2,a3
   10fac:	01e305b3          	add	a1,t1,t5
   10fb0:	01d5beb3          	sltu	t4,a1,t4
   10fb4:	01c606b3          	add	a3,a2,t3
   10fb8:	00f585b3          	add	a1,a1,a5
   10fbc:	01d68f33          	add	t5,a3,t4
   10fc0:	00f5b7b3          	sltu	a5,a1,a5
   10fc4:	011f0633          	add	a2,t5,a7
   10fc8:	00f60333          	add	t1,a2,a5
   10fcc:	01c6b6b3          	sltu	a3,a3,t3
   10fd0:	01df3eb3          	sltu	t4,t5,t4
   10fd4:	01045413          	srli	s0,s0,0x10
   10fd8:	00f337b3          	sltu	a5,t1,a5
   10fdc:	01d6e6b3          	or	a3,a3,t4
   10fe0:	011638b3          	sltu	a7,a2,a7
   10fe4:	008686b3          	add	a3,a3,s0
   10fe8:	00f8e7b3          	or	a5,a7,a5
   10fec:	00f686b3          	add	a3,a3,a5
   10ff0:	00959493          	slli	s1,a1,0x9
   10ff4:	01f686b3          	add	a3,a3,t6
   10ff8:	01735413          	srli	s0,t1,0x17
   10ffc:	00969693          	slli	a3,a3,0x9
   11000:	0104e4b3          	or	s1,s1,a6
   11004:	0086e433          	or	s0,a3,s0
   11008:	009034b3          	snez	s1,s1
   1100c:	0175d593          	srli	a1,a1,0x17
   11010:	010007b7          	lui	a5,0x1000
   11014:	00b4e4b3          	or	s1,s1,a1
   11018:	00931313          	slli	t1,t1,0x9
   1101c:	00f477b3          	and	a5,s0,a5
   11020:	0064e4b3          	or	s1,s1,t1
   11024:	2c078663          	beqz	a5,112f0 <__muldf3+0x60c>
   11028:	0014d793          	srli	a5,s1,0x1
   1102c:	0014f493          	andi	s1,s1,1
   11030:	01f41693          	slli	a3,s0,0x1f
   11034:	0097e4b3          	or	s1,a5,s1
   11038:	00d4e4b3          	or	s1,s1,a3
   1103c:	00145413          	srli	s0,s0,0x1
   11040:	3ff70793          	addi	a5,a4,1023 # 803ff <_stack+0x403ff>
   11044:	18f05263          	blez	a5,111c8 <__muldf3+0x4e4>
   11048:	0074f693          	andi	a3,s1,7
   1104c:	02068063          	beqz	a3,1106c <__muldf3+0x388>
   11050:	00f4f693          	andi	a3,s1,15
   11054:	00400613          	li	a2,4
   11058:	00c68a63          	beq	a3,a2,1106c <__muldf3+0x388>
   1105c:	00448693          	addi	a3,s1,4
   11060:	0096b4b3          	sltu	s1,a3,s1
   11064:	00940433          	add	s0,s0,s1
   11068:	00068493          	mv	s1,a3
   1106c:	010006b7          	lui	a3,0x1000
   11070:	00d476b3          	and	a3,s0,a3
   11074:	00068a63          	beqz	a3,11088 <__muldf3+0x3a4>
   11078:	ff0007b7          	lui	a5,0xff000
   1107c:	fff78793          	addi	a5,a5,-1 # feffffff <_stack+0xfefbffff>
   11080:	00f47433          	and	s0,s0,a5
   11084:	40070793          	addi	a5,a4,1024
   11088:	7fe00713          	li	a4,2046
   1108c:	24f74a63          	blt	a4,a5,112e0 <__muldf3+0x5fc>
   11090:	0034d713          	srli	a4,s1,0x3
   11094:	01d41493          	slli	s1,s0,0x1d
   11098:	00941413          	slli	s0,s0,0x9
   1109c:	00e4e4b3          	or	s1,s1,a4
   110a0:	00c45713          	srli	a4,s0,0xc
   110a4:	7ff7f413          	andi	s0,a5,2047
   110a8:	d65ff06f          	j	10e0c <__muldf3+0x128>
   110ac:	017965b3          	or	a1,s2,s7
   110b0:	0c058863          	beqz	a1,11180 <__muldf3+0x49c>
   110b4:	14090c63          	beqz	s2,1120c <__muldf3+0x528>
   110b8:	00090513          	mv	a0,s2
   110bc:	43c030ef          	jal	ra,144f8 <__clzsi2>
   110c0:	ff550713          	addi	a4,a0,-11
   110c4:	01d00793          	li	a5,29
   110c8:	ff850593          	addi	a1,a0,-8
   110cc:	40e787b3          	sub	a5,a5,a4
   110d0:	00b91933          	sll	s2,s2,a1
   110d4:	00fbd7b3          	srl	a5,s7,a5
   110d8:	0127e933          	or	s2,a5,s2
   110dc:	00bb95b3          	sll	a1,s7,a1
   110e0:	40aa87b3          	sub	a5,s5,a0
   110e4:	c0d78a93          	addi	s5,a5,-1011
   110e8:	00000893          	li	a7,0
   110ec:	cb9ff06f          	j	10da4 <__muldf3+0xc0>
   110f0:	00a464b3          	or	s1,s0,a0
   110f4:	0c048063          	beqz	s1,111b4 <__muldf3+0x4d0>
   110f8:	14040063          	beqz	s0,11238 <__muldf3+0x554>
   110fc:	00040513          	mv	a0,s0
   11100:	3f8030ef          	jal	ra,144f8 <__clzsi2>
   11104:	ff550713          	addi	a4,a0,-11
   11108:	01d00793          	li	a5,29
   1110c:	ff850493          	addi	s1,a0,-8
   11110:	40e787b3          	sub	a5,a5,a4
   11114:	00941433          	sll	s0,s0,s1
   11118:	00f957b3          	srl	a5,s2,a5
   1111c:	0087e433          	or	s0,a5,s0
   11120:	009914b3          	sll	s1,s2,s1
   11124:	c0d00793          	li	a5,-1011
   11128:	40a78ab3          	sub	s5,a5,a0
   1112c:	00000993          	li	s3,0
   11130:	00000c13          	li	s8,0
   11134:	c2dff06f          	j	10d60 <__muldf3+0x7c>
   11138:	00a464b3          	or	s1,s0,a0
   1113c:	06049263          	bnez	s1,111a0 <__muldf3+0x4bc>
   11140:	00000413          	li	s0,0
   11144:	00800993          	li	s3,8
   11148:	7ff00a93          	li	s5,2047
   1114c:	00200c13          	li	s8,2
   11150:	c11ff06f          	j	10d60 <__muldf3+0x7c>
   11154:	017965b3          	or	a1,s2,s7
   11158:	7ffa8a93          	addi	s5,s5,2047
   1115c:	02059a63          	bnez	a1,11190 <__muldf3+0x4ac>
   11160:	0029e993          	ori	s3,s3,2
   11164:	00000913          	li	s2,0
   11168:	00200893          	li	a7,2
   1116c:	c39ff06f          	j	10da4 <__muldf3+0xc0>
   11170:	00200793          	li	a5,2
   11174:	000b0813          	mv	a6,s6
   11178:	c6fc1ae3          	bne	s8,a5,10dec <__muldf3+0x108>
   1117c:	cd9ff06f          	j	10e54 <__muldf3+0x170>
   11180:	0019e993          	ori	s3,s3,1
   11184:	00000913          	li	s2,0
   11188:	00100893          	li	a7,1
   1118c:	c19ff06f          	j	10da4 <__muldf3+0xc0>
   11190:	0039e993          	ori	s3,s3,3
   11194:	000b8593          	mv	a1,s7
   11198:	00300893          	li	a7,3
   1119c:	c09ff06f          	j	10da4 <__muldf3+0xc0>
   111a0:	00050493          	mv	s1,a0
   111a4:	00c00993          	li	s3,12
   111a8:	7ff00a93          	li	s5,2047
   111ac:	00300c13          	li	s8,3
   111b0:	bb1ff06f          	j	10d60 <__muldf3+0x7c>
   111b4:	00000413          	li	s0,0
   111b8:	00400993          	li	s3,4
   111bc:	00000a93          	li	s5,0
   111c0:	00100c13          	li	s8,1
   111c4:	b9dff06f          	j	10d60 <__muldf3+0x7c>
   111c8:	00100693          	li	a3,1
   111cc:	40f686b3          	sub	a3,a3,a5
   111d0:	08079863          	bnez	a5,11260 <__muldf3+0x57c>
   111d4:	41e70713          	addi	a4,a4,1054
   111d8:	00e497b3          	sll	a5,s1,a4
   111dc:	00e41733          	sll	a4,s0,a4
   111e0:	00d4d4b3          	srl	s1,s1,a3
   111e4:	00f037b3          	snez	a5,a5
   111e8:	009764b3          	or	s1,a4,s1
   111ec:	00f4e4b3          	or	s1,s1,a5
   111f0:	0074f713          	andi	a4,s1,7
   111f4:	00d457b3          	srl	a5,s0,a3
   111f8:	0c070663          	beqz	a4,112c4 <__muldf3+0x5e0>
   111fc:	00f4f713          	andi	a4,s1,15
   11200:	00400693          	li	a3,4
   11204:	0ad71863          	bne	a4,a3,112b4 <__muldf3+0x5d0>
   11208:	0bc0006f          	j	112c4 <__muldf3+0x5e0>
   1120c:	000b8513          	mv	a0,s7
   11210:	2e8030ef          	jal	ra,144f8 <__clzsi2>
   11214:	01550713          	addi	a4,a0,21
   11218:	01c00693          	li	a3,28
   1121c:	00050793          	mv	a5,a0
   11220:	02050513          	addi	a0,a0,32
   11224:	eae6d0e3          	bge	a3,a4,110c4 <__muldf3+0x3e0>
   11228:	ff878793          	addi	a5,a5,-8
   1122c:	00000593          	li	a1,0
   11230:	00fb9933          	sll	s2,s7,a5
   11234:	eadff06f          	j	110e0 <__muldf3+0x3fc>
   11238:	2c0030ef          	jal	ra,144f8 <__clzsi2>
   1123c:	01550713          	addi	a4,a0,21
   11240:	01c00693          	li	a3,28
   11244:	00050793          	mv	a5,a0
   11248:	02050513          	addi	a0,a0,32
   1124c:	eae6dee3          	bge	a3,a4,11108 <__muldf3+0x424>
   11250:	ff878793          	addi	a5,a5,-8
   11254:	00000493          	li	s1,0
   11258:	00f91433          	sll	s0,s2,a5
   1125c:	ec9ff06f          	j	11124 <__muldf3+0x440>
   11260:	03800613          	li	a2,56
   11264:	b8d64ee3          	blt	a2,a3,10e00 <__muldf3+0x11c>
   11268:	01f00613          	li	a2,31
   1126c:	f6d654e3          	bge	a2,a3,111d4 <__muldf3+0x4f0>
   11270:	fe100613          	li	a2,-31
   11274:	40f607b3          	sub	a5,a2,a5
   11278:	02000613          	li	a2,32
   1127c:	00f457b3          	srl	a5,s0,a5
   11280:	00c68863          	beq	a3,a2,11290 <__muldf3+0x5ac>
   11284:	43e70713          	addi	a4,a4,1086
   11288:	00e41733          	sll	a4,s0,a4
   1128c:	00e4e4b3          	or	s1,s1,a4
   11290:	009034b3          	snez	s1,s1
   11294:	00f4e4b3          	or	s1,s1,a5
   11298:	0074f793          	andi	a5,s1,7
   1129c:	00000713          	li	a4,0
   112a0:	06078263          	beqz	a5,11304 <__muldf3+0x620>
   112a4:	00f4f713          	andi	a4,s1,15
   112a8:	00400693          	li	a3,4
   112ac:	00000793          	li	a5,0
   112b0:	04d70463          	beq	a4,a3,112f8 <__muldf3+0x614>
   112b4:	00448713          	addi	a4,s1,4
   112b8:	009734b3          	sltu	s1,a4,s1
   112bc:	009787b3          	add	a5,a5,s1
   112c0:	00070493          	mv	s1,a4
   112c4:	00800737          	lui	a4,0x800
   112c8:	00e7f733          	and	a4,a5,a4
   112cc:	02070663          	beqz	a4,112f8 <__muldf3+0x614>
   112d0:	00100413          	li	s0,1
   112d4:	00000713          	li	a4,0
   112d8:	00000493          	li	s1,0
   112dc:	b31ff06f          	j	10e0c <__muldf3+0x128>
   112e0:	7ff00413          	li	s0,2047
   112e4:	00000713          	li	a4,0
   112e8:	00000493          	li	s1,0
   112ec:	b21ff06f          	j	10e0c <__muldf3+0x128>
   112f0:	000a8713          	mv	a4,s5
   112f4:	d4dff06f          	j	11040 <__muldf3+0x35c>
   112f8:	00979713          	slli	a4,a5,0x9
   112fc:	00c75713          	srli	a4,a4,0xc
   11300:	01d79793          	slli	a5,a5,0x1d
   11304:	0034d493          	srli	s1,s1,0x3
   11308:	00f4e4b3          	or	s1,s1,a5
   1130c:	00000413          	li	s0,0
   11310:	afdff06f          	j	10e0c <__muldf3+0x128>

00011314 <__eqtf2>:
   11314:	00c52703          	lw	a4,12(a0)
   11318:	00c5a683          	lw	a3,12(a1)
   1131c:	000087b7          	lui	a5,0x8
   11320:	fff78793          	addi	a5,a5,-1 # 7fff <__mdiff+0xfb>
   11324:	01075613          	srli	a2,a4,0x10
   11328:	0106d813          	srli	a6,a3,0x10
   1132c:	01071e93          	slli	t4,a4,0x10
   11330:	01069393          	slli	t2,a3,0x10
   11334:	00f67633          	and	a2,a2,a5
   11338:	0005af03          	lw	t5,0(a1)
   1133c:	0045af83          	lw	t6,4(a1)
   11340:	0085a283          	lw	t0,8(a1)
   11344:	00052883          	lw	a7,0(a0)
   11348:	00452303          	lw	t1,4(a0)
   1134c:	00852e03          	lw	t3,8(a0)
   11350:	ff010113          	addi	sp,sp,-16
   11354:	010ede93          	srli	t4,t4,0x10
   11358:	01f75713          	srli	a4,a4,0x1f
   1135c:	0103d393          	srli	t2,t2,0x10
   11360:	00f875b3          	and	a1,a6,a5
   11364:	01f6d693          	srli	a3,a3,0x1f
   11368:	02f60063          	beq	a2,a5,11388 <__eqtf2+0x74>
   1136c:	00100513          	li	a0,1
   11370:	00f58863          	beq	a1,a5,11380 <__eqtf2+0x6c>
   11374:	00c59663          	bne	a1,a2,11380 <__eqtf2+0x6c>
   11378:	00100513          	li	a0,1
   1137c:	03e88c63          	beq	a7,t5,113b4 <__eqtf2+0xa0>
   11380:	01010113          	addi	sp,sp,16
   11384:	00008067          	ret
   11388:	0068e7b3          	or	a5,a7,t1
   1138c:	01c7e7b3          	or	a5,a5,t3
   11390:	01d7e7b3          	or	a5,a5,t4
   11394:	00100513          	li	a0,1
   11398:	fe0794e3          	bnez	a5,11380 <__eqtf2+0x6c>
   1139c:	fec592e3          	bne	a1,a2,11380 <__eqtf2+0x6c>
   113a0:	01ff67b3          	or	a5,t5,t6
   113a4:	0057e7b3          	or	a5,a5,t0
   113a8:	0077e7b3          	or	a5,a5,t2
   113ac:	fc079ae3          	bnez	a5,11380 <__eqtf2+0x6c>
   113b0:	fc9ff06f          	j	11378 <__eqtf2+0x64>
   113b4:	fdf316e3          	bne	t1,t6,11380 <__eqtf2+0x6c>
   113b8:	fc5e14e3          	bne	t3,t0,11380 <__eqtf2+0x6c>
   113bc:	fc7e92e3          	bne	t4,t2,11380 <__eqtf2+0x6c>
   113c0:	00000513          	li	a0,0
   113c4:	fad70ee3          	beq	a4,a3,11380 <__eqtf2+0x6c>
   113c8:	00100513          	li	a0,1
   113cc:	fa061ae3          	bnez	a2,11380 <__eqtf2+0x6c>
   113d0:	0068e533          	or	a0,a7,t1
   113d4:	01c56533          	or	a0,a0,t3
   113d8:	01d56533          	or	a0,a0,t4
   113dc:	00a03533          	snez	a0,a0
   113e0:	fa1ff06f          	j	11380 <__eqtf2+0x6c>

000113e4 <__getf2>:
   113e4:	00c52603          	lw	a2,12(a0)
   113e8:	00c5a703          	lw	a4,12(a1)
   113ec:	000087b7          	lui	a5,0x8
   113f0:	fff78793          	addi	a5,a5,-1 # 7fff <__mdiff+0xfb>
   113f4:	01065813          	srli	a6,a2,0x10
   113f8:	0005a283          	lw	t0,0(a1)
   113fc:	0045af83          	lw	t6,4(a1)
   11400:	0085af03          	lw	t5,8(a1)
   11404:	01075693          	srli	a3,a4,0x10
   11408:	01061593          	slli	a1,a2,0x10
   1140c:	01071e93          	slli	t4,a4,0x10
   11410:	00f87833          	and	a6,a6,a5
   11414:	00052e03          	lw	t3,0(a0)
   11418:	00452303          	lw	t1,4(a0)
   1141c:	00852883          	lw	a7,8(a0)
   11420:	ff010113          	addi	sp,sp,-16
   11424:	0105d593          	srli	a1,a1,0x10
   11428:	01f65613          	srli	a2,a2,0x1f
   1142c:	010ede93          	srli	t4,t4,0x10
   11430:	00f6f6b3          	and	a3,a3,a5
   11434:	01f75513          	srli	a0,a4,0x1f
   11438:	02f80c63          	beq	a6,a5,11470 <__getf2+0x8c>
   1143c:	04f68463          	beq	a3,a5,11484 <__getf2+0xa0>
   11440:	08081463          	bnez	a6,114c8 <__getf2+0xe4>
   11444:	01c367b3          	or	a5,t1,t3
   11448:	0117e7b3          	or	a5,a5,a7
   1144c:	00b7e7b3          	or	a5,a5,a1
   11450:	06069463          	bnez	a3,114b8 <__getf2+0xd4>
   11454:	01f2e733          	or	a4,t0,t6
   11458:	01e76733          	or	a4,a4,t5
   1145c:	01d76733          	or	a4,a4,t4
   11460:	04071c63          	bnez	a4,114b8 <__getf2+0xd4>
   11464:	00000513          	li	a0,0
   11468:	04078c63          	beqz	a5,114c0 <__getf2+0xdc>
   1146c:	0300006f          	j	1149c <__getf2+0xb8>
   11470:	01c367b3          	or	a5,t1,t3
   11474:	0117e7b3          	or	a5,a5,a7
   11478:	00b7e7b3          	or	a5,a5,a1
   1147c:	0a079263          	bnez	a5,11520 <__getf2+0x13c>
   11480:	05069463          	bne	a3,a6,114c8 <__getf2+0xe4>
   11484:	01f2e7b3          	or	a5,t0,t6
   11488:	01e7e7b3          	or	a5,a5,t5
   1148c:	01d7e7b3          	or	a5,a5,t4
   11490:	08079863          	bnez	a5,11520 <__getf2+0x13c>
   11494:	00080c63          	beqz	a6,114ac <__getf2+0xc8>
   11498:	04c50463          	beq	a0,a2,114e0 <__getf2+0xfc>
   1149c:	00100513          	li	a0,1
   114a0:	02060063          	beqz	a2,114c0 <__getf2+0xdc>
   114a4:	fff00513          	li	a0,-1
   114a8:	0180006f          	j	114c0 <__getf2+0xdc>
   114ac:	01c367b3          	or	a5,t1,t3
   114b0:	0117e7b3          	or	a5,a5,a7
   114b4:	00b7e7b3          	or	a5,a5,a1
   114b8:	fe0790e3          	bnez	a5,11498 <__getf2+0xb4>
   114bc:	fe0504e3          	beqz	a0,114a4 <__getf2+0xc0>
   114c0:	01010113          	addi	sp,sp,16
   114c4:	00008067          	ret
   114c8:	fc0698e3          	bnez	a3,11498 <__getf2+0xb4>
   114cc:	01f2e7b3          	or	a5,t0,t6
   114d0:	01e7e7b3          	or	a5,a5,t5
   114d4:	01d7e7b3          	or	a5,a5,t4
   114d8:	fc0790e3          	bnez	a5,11498 <__getf2+0xb4>
   114dc:	fc1ff06f          	j	1149c <__getf2+0xb8>
   114e0:	0306c063          	blt	a3,a6,11500 <__getf2+0x11c>
   114e4:	fcd84ce3          	blt	a6,a3,114bc <__getf2+0xd8>
   114e8:	fabeeae3          	bltu	t4,a1,1149c <__getf2+0xb8>
   114ec:	03d58063          	beq	a1,t4,1150c <__getf2+0x128>
   114f0:	03d5f463          	bgeu	a1,t4,11518 <__getf2+0x134>
   114f4:	fa0608e3          	beqz	a2,114a4 <__getf2+0xc0>
   114f8:	00060513          	mv	a0,a2
   114fc:	fc5ff06f          	j	114c0 <__getf2+0xdc>
   11500:	fa0512e3          	bnez	a0,114a4 <__getf2+0xc0>
   11504:	00100513          	li	a0,1
   11508:	fb9ff06f          	j	114c0 <__getf2+0xdc>
   1150c:	f91f68e3          	bltu	t5,a7,1149c <__getf2+0xb8>
   11510:	01e88c63          	beq	a7,t5,11528 <__getf2+0x144>
   11514:	ffe8e0e3          	bltu	a7,t5,114f4 <__getf2+0x110>
   11518:	00000513          	li	a0,0
   1151c:	fa5ff06f          	j	114c0 <__getf2+0xdc>
   11520:	ffe00513          	li	a0,-2
   11524:	f9dff06f          	j	114c0 <__getf2+0xdc>
   11528:	f66feae3          	bltu	t6,t1,1149c <__getf2+0xb8>
   1152c:	01f30c63          	beq	t1,t6,11544 <__getf2+0x160>
   11530:	fdf362e3          	bltu	t1,t6,114f4 <__getf2+0x110>
   11534:	00000513          	li	a0,0
   11538:	f9f314e3          	bne	t1,t6,114c0 <__getf2+0xdc>
   1153c:	f85e72e3          	bgeu	t3,t0,114c0 <__getf2+0xdc>
   11540:	fb5ff06f          	j	114f4 <__getf2+0x110>
   11544:	ffc2f6e3          	bgeu	t0,t3,11530 <__getf2+0x14c>
   11548:	f55ff06f          	j	1149c <__getf2+0xb8>

0001154c <__letf2>:
   1154c:	00c52603          	lw	a2,12(a0)
   11550:	00c5a703          	lw	a4,12(a1)
   11554:	000087b7          	lui	a5,0x8
   11558:	fff78793          	addi	a5,a5,-1 # 7fff <__mdiff+0xfb>
   1155c:	01065813          	srli	a6,a2,0x10
   11560:	0005a283          	lw	t0,0(a1)
   11564:	0045af83          	lw	t6,4(a1)
   11568:	0085af03          	lw	t5,8(a1)
   1156c:	01075693          	srli	a3,a4,0x10
   11570:	01061593          	slli	a1,a2,0x10
   11574:	01071e93          	slli	t4,a4,0x10
   11578:	00f87833          	and	a6,a6,a5
   1157c:	00052e03          	lw	t3,0(a0)
   11580:	00452303          	lw	t1,4(a0)
   11584:	00852883          	lw	a7,8(a0)
   11588:	ff010113          	addi	sp,sp,-16
   1158c:	0105d593          	srli	a1,a1,0x10
   11590:	01f65613          	srli	a2,a2,0x1f
   11594:	010ede93          	srli	t4,t4,0x10
   11598:	00f6f6b3          	and	a3,a3,a5
   1159c:	01f75513          	srli	a0,a4,0x1f
   115a0:	02f80c63          	beq	a6,a5,115d8 <__letf2+0x8c>
   115a4:	04f68463          	beq	a3,a5,115ec <__letf2+0xa0>
   115a8:	08081a63          	bnez	a6,1163c <__letf2+0xf0>
   115ac:	01c367b3          	or	a5,t1,t3
   115b0:	0117e7b3          	or	a5,a5,a7
   115b4:	00b7e7b3          	or	a5,a5,a1
   115b8:	04069a63          	bnez	a3,1160c <__letf2+0xc0>
   115bc:	01f2e733          	or	a4,t0,t6
   115c0:	01e76733          	or	a4,a4,t5
   115c4:	01d76733          	or	a4,a4,t4
   115c8:	04071263          	bnez	a4,1160c <__letf2+0xc0>
   115cc:	00000513          	li	a0,0
   115d0:	04078c63          	beqz	a5,11628 <__letf2+0xdc>
   115d4:	0400006f          	j	11614 <__letf2+0xc8>
   115d8:	01c367b3          	or	a5,t1,t3
   115dc:	0117e7b3          	or	a5,a5,a7
   115e0:	00b7e7b3          	or	a5,a5,a1
   115e4:	04079063          	bnez	a5,11624 <__letf2+0xd8>
   115e8:	05069a63          	bne	a3,a6,1163c <__letf2+0xf0>
   115ec:	01f2e7b3          	or	a5,t0,t6
   115f0:	01e7e7b3          	or	a5,a5,t5
   115f4:	01d7e7b3          	or	a5,a5,t4
   115f8:	02079663          	bnez	a5,11624 <__letf2+0xd8>
   115fc:	00081a63          	bnez	a6,11610 <__letf2+0xc4>
   11600:	01c367b3          	or	a5,t1,t3
   11604:	0117e7b3          	or	a5,a5,a7
   11608:	00b7e7b3          	or	a5,a5,a1
   1160c:	02078263          	beqz	a5,11630 <__letf2+0xe4>
   11610:	04c50263          	beq	a0,a2,11654 <__letf2+0x108>
   11614:	00100513          	li	a0,1
   11618:	00060863          	beqz	a2,11628 <__letf2+0xdc>
   1161c:	fff00513          	li	a0,-1
   11620:	0080006f          	j	11628 <__letf2+0xdc>
   11624:	00200513          	li	a0,2
   11628:	01010113          	addi	sp,sp,16
   1162c:	00008067          	ret
   11630:	fe0506e3          	beqz	a0,1161c <__letf2+0xd0>
   11634:	01010113          	addi	sp,sp,16
   11638:	00008067          	ret
   1163c:	fc069ae3          	bnez	a3,11610 <__letf2+0xc4>
   11640:	01f2e7b3          	or	a5,t0,t6
   11644:	01e7e7b3          	or	a5,a5,t5
   11648:	01d7e7b3          	or	a5,a5,t4
   1164c:	fc0792e3          	bnez	a5,11610 <__letf2+0xc4>
   11650:	fc5ff06f          	j	11614 <__letf2+0xc8>
   11654:	0106d863          	bge	a3,a6,11664 <__letf2+0x118>
   11658:	fc0512e3          	bnez	a0,1161c <__letf2+0xd0>
   1165c:	00100513          	li	a0,1
   11660:	fc9ff06f          	j	11628 <__letf2+0xdc>
   11664:	fcd846e3          	blt	a6,a3,11630 <__letf2+0xe4>
   11668:	fabee6e3          	bltu	t4,a1,11614 <__letf2+0xc8>
   1166c:	01d58a63          	beq	a1,t4,11680 <__letf2+0x134>
   11670:	01d5fe63          	bgeu	a1,t4,1168c <__letf2+0x140>
   11674:	fa0604e3          	beqz	a2,1161c <__letf2+0xd0>
   11678:	00060513          	mv	a0,a2
   1167c:	fadff06f          	j	11628 <__letf2+0xdc>
   11680:	f91f6ae3          	bltu	t5,a7,11614 <__letf2+0xc8>
   11684:	01e88863          	beq	a7,t5,11694 <__letf2+0x148>
   11688:	ffe8e6e3          	bltu	a7,t5,11674 <__letf2+0x128>
   1168c:	00000513          	li	a0,0
   11690:	f99ff06f          	j	11628 <__letf2+0xdc>
   11694:	f86fe0e3          	bltu	t6,t1,11614 <__letf2+0xc8>
   11698:	01f30c63          	beq	t1,t6,116b0 <__letf2+0x164>
   1169c:	fdf36ce3          	bltu	t1,t6,11674 <__letf2+0x128>
   116a0:	00000513          	li	a0,0
   116a4:	f9f312e3          	bne	t1,t6,11628 <__letf2+0xdc>
   116a8:	f85e70e3          	bgeu	t3,t0,11628 <__letf2+0xdc>
   116ac:	fc9ff06f          	j	11674 <__letf2+0x128>
   116b0:	ffc2f6e3          	bgeu	t0,t3,1169c <__letf2+0x150>
   116b4:	f61ff06f          	j	11614 <__letf2+0xc8>

000116b8 <__multf3>:
   116b8:	f4010113          	addi	sp,sp,-192
   116bc:	0b412423          	sw	s4,168(sp)
   116c0:	00c5aa03          	lw	s4,12(a1)
   116c4:	0045a703          	lw	a4,4(a1)
   116c8:	0b212823          	sw	s2,176(sp)
   116cc:	0005a903          	lw	s2,0(a1)
   116d0:	0085a583          	lw	a1,8(a1)
   116d4:	010a1693          	slli	a3,s4,0x10
   116d8:	000087b7          	lui	a5,0x8
   116dc:	0a812c23          	sw	s0,184(sp)
   116e0:	0106d693          	srli	a3,a3,0x10
   116e4:	010a5413          	srli	s0,s4,0x10
   116e8:	fff78793          	addi	a5,a5,-1 # 7fff <__mdiff+0xfb>
   116ec:	0a912a23          	sw	s1,180(sp)
   116f0:	0b512223          	sw	s5,164(sp)
   116f4:	0b612023          	sw	s6,160(sp)
   116f8:	09712e23          	sw	s7,156(sp)
   116fc:	09812c23          	sw	s8,152(sp)
   11700:	07412623          	sw	s4,108(sp)
   11704:	0a112e23          	sw	ra,188(sp)
   11708:	0b312623          	sw	s3,172(sp)
   1170c:	09912a23          	sw	s9,148(sp)
   11710:	09a12823          	sw	s10,144(sp)
   11714:	09b12623          	sw	s11,140(sp)
   11718:	07212023          	sw	s2,96(sp)
   1171c:	06e12223          	sw	a4,100(sp)
   11720:	06b12423          	sw	a1,104(sp)
   11724:	03212823          	sw	s2,48(sp)
   11728:	02e12a23          	sw	a4,52(sp)
   1172c:	02b12c23          	sw	a1,56(sp)
   11730:	02d12e23          	sw	a3,60(sp)
   11734:	00f47433          	and	s0,s0,a5
   11738:	00062b03          	lw	s6,0(a2)
   1173c:	00462c03          	lw	s8,4(a2)
   11740:	00862b83          	lw	s7,8(a2)
   11744:	00c62a83          	lw	s5,12(a2)
   11748:	00050493          	mv	s1,a0
   1174c:	01fa5a13          	srli	s4,s4,0x1f
   11750:	30040063          	beqz	s0,11a50 <__multf3+0x398>
   11754:	3af40863          	beq	s0,a5,11b04 <__multf3+0x44c>
   11758:	000807b7          	lui	a5,0x80
   1175c:	00369693          	slli	a3,a3,0x3
   11760:	00f6e6b3          	or	a3,a3,a5
   11764:	01d5d513          	srli	a0,a1,0x1d
   11768:	01d75793          	srli	a5,a4,0x1d
   1176c:	00359593          	slli	a1,a1,0x3
   11770:	01d95613          	srli	a2,s2,0x1d
   11774:	00b7e5b3          	or	a1,a5,a1
   11778:	00371713          	slli	a4,a4,0x3
   1177c:	ffffc7b7          	lui	a5,0xffffc
   11780:	00a6e6b3          	or	a3,a3,a0
   11784:	00c76733          	or	a4,a4,a2
   11788:	00391913          	slli	s2,s2,0x3
   1178c:	00178793          	addi	a5,a5,1 # ffffc001 <_stack+0xfffbc001>
   11790:	02d12e23          	sw	a3,60(sp)
   11794:	02b12c23          	sw	a1,56(sp)
   11798:	02e12a23          	sw	a4,52(sp)
   1179c:	03212823          	sw	s2,48(sp)
   117a0:	00f40433          	add	s0,s0,a5
   117a4:	00000993          	li	s3,0
   117a8:	00000c93          	li	s9,0
   117ac:	010a9513          	slli	a0,s5,0x10
   117b0:	00008737          	lui	a4,0x8
   117b4:	010ad793          	srli	a5,s5,0x10
   117b8:	01055513          	srli	a0,a0,0x10
   117bc:	fff70713          	addi	a4,a4,-1 # 7fff <__mdiff+0xfb>
   117c0:	07512623          	sw	s5,108(sp)
   117c4:	07612023          	sw	s6,96(sp)
   117c8:	07812223          	sw	s8,100(sp)
   117cc:	07712423          	sw	s7,104(sp)
   117d0:	05612023          	sw	s6,64(sp)
   117d4:	05812223          	sw	s8,68(sp)
   117d8:	05712423          	sw	s7,72(sp)
   117dc:	04a12623          	sw	a0,76(sp)
   117e0:	00e7f633          	and	a2,a5,a4
   117e4:	01fada93          	srli	s5,s5,0x1f
   117e8:	1a060c63          	beqz	a2,119a0 <__multf3+0x2e8>
   117ec:	32e60a63          	beq	a2,a4,11b20 <__multf3+0x468>
   117f0:	01dc5693          	srli	a3,s8,0x1d
   117f4:	01db5713          	srli	a4,s6,0x1d
   117f8:	003c1c13          	slli	s8,s8,0x3
   117fc:	000807b7          	lui	a5,0x80
   11800:	00ec6c33          	or	s8,s8,a4
   11804:	00351513          	slli	a0,a0,0x3
   11808:	ffffc737          	lui	a4,0xffffc
   1180c:	00f56533          	or	a0,a0,a5
   11810:	00170713          	addi	a4,a4,1 # ffffc001 <_stack+0xfffbc001>
   11814:	01dbd793          	srli	a5,s7,0x1d
   11818:	003b9b93          	slli	s7,s7,0x3
   1181c:	00f56533          	or	a0,a0,a5
   11820:	0176ebb3          	or	s7,a3,s7
   11824:	003b1793          	slli	a5,s6,0x3
   11828:	00e60733          	add	a4,a2,a4
   1182c:	04a12623          	sw	a0,76(sp)
   11830:	05712423          	sw	s7,72(sp)
   11834:	05812223          	sw	s8,68(sp)
   11838:	04f12023          	sw	a5,64(sp)
   1183c:	00e40433          	add	s0,s0,a4
   11840:	00000693          	li	a3,0
   11844:	00140713          	addi	a4,s0,1
   11848:	015a4933          	xor	s2,s4,s5
   1184c:	00f00793          	li	a5,15
   11850:	00e12223          	sw	a4,4(sp)
   11854:	00090613          	mv	a2,s2
   11858:	2f37e463          	bltu	a5,s3,11b40 <__multf3+0x488>
   1185c:	0000f717          	auipc	a4,0xf
   11860:	54870713          	addi	a4,a4,1352 # 20da4 <zeroes.0+0x90>
   11864:	00299993          	slli	s3,s3,0x2
   11868:	00e989b3          	add	s3,s3,a4
   1186c:	0009a783          	lw	a5,0(s3)
   11870:	00e787b3          	add	a5,a5,a4
   11874:	00078067          	jr	a5 # 80000 <_stack+0x40000>
   11878:	000a0613          	mv	a2,s4
   1187c:	03012783          	lw	a5,48(sp)
   11880:	000c8693          	mv	a3,s9
   11884:	04f12823          	sw	a5,80(sp)
   11888:	03412783          	lw	a5,52(sp)
   1188c:	04f12a23          	sw	a5,84(sp)
   11890:	03812783          	lw	a5,56(sp)
   11894:	04f12c23          	sw	a5,88(sp)
   11898:	03c12783          	lw	a5,60(sp)
   1189c:	04f12e23          	sw	a5,92(sp)
   118a0:	00200793          	li	a5,2
   118a4:	0cf68e63          	beq	a3,a5,11980 <__multf3+0x2c8>
   118a8:	00300793          	li	a5,3
   118ac:	08f68463          	beq	a3,a5,11934 <__multf3+0x27c>
   118b0:	00100793          	li	a5,1
   118b4:	00060913          	mv	s2,a2
   118b8:	26f692e3          	bne	a3,a5,1231c <__multf3+0xc64>
   118bc:	00000793          	li	a5,0
   118c0:	00000593          	li	a1,0
   118c4:	00000693          	li	a3,0
   118c8:	00000613          	li	a2,0
   118cc:	00000713          	li	a4,0
   118d0:	00f91913          	slli	s2,s2,0xf
   118d4:	0127e7b3          	or	a5,a5,s2
   118d8:	06b11623          	sh	a1,108(sp)
   118dc:	06f11723          	sh	a5,110(sp)
   118e0:	06c12783          	lw	a5,108(sp)
   118e4:	0bc12083          	lw	ra,188(sp)
   118e8:	0b812403          	lw	s0,184(sp)
   118ec:	00e4a023          	sw	a4,0(s1)
   118f0:	00c4a223          	sw	a2,4(s1)
   118f4:	00d4a423          	sw	a3,8(s1)
   118f8:	00f4a623          	sw	a5,12(s1)
   118fc:	0b012903          	lw	s2,176(sp)
   11900:	0ac12983          	lw	s3,172(sp)
   11904:	0a812a03          	lw	s4,168(sp)
   11908:	0a412a83          	lw	s5,164(sp)
   1190c:	0a012b03          	lw	s6,160(sp)
   11910:	09c12b83          	lw	s7,156(sp)
   11914:	09812c03          	lw	s8,152(sp)
   11918:	09412c83          	lw	s9,148(sp)
   1191c:	09012d03          	lw	s10,144(sp)
   11920:	08c12d83          	lw	s11,140(sp)
   11924:	00048513          	mv	a0,s1
   11928:	0b412483          	lw	s1,180(sp)
   1192c:	0c010113          	addi	sp,sp,192
   11930:	00008067          	ret
   11934:	000087b7          	lui	a5,0x8
   11938:	00000913          	li	s2,0
   1193c:	fff78793          	addi	a5,a5,-1 # 7fff <__mdiff+0xfb>
   11940:	000085b7          	lui	a1,0x8
   11944:	00000693          	li	a3,0
   11948:	00000613          	li	a2,0
   1194c:	00000713          	li	a4,0
   11950:	f81ff06f          	j	118d0 <__multf3+0x218>
   11954:	000a8613          	mv	a2,s5
   11958:	04012783          	lw	a5,64(sp)
   1195c:	04f12823          	sw	a5,80(sp)
   11960:	04412783          	lw	a5,68(sp)
   11964:	04f12a23          	sw	a5,84(sp)
   11968:	04812783          	lw	a5,72(sp)
   1196c:	04f12c23          	sw	a5,88(sp)
   11970:	04c12783          	lw	a5,76(sp)
   11974:	04f12e23          	sw	a5,92(sp)
   11978:	00200793          	li	a5,2
   1197c:	f2f696e3          	bne	a3,a5,118a8 <__multf3+0x1f0>
   11980:	000087b7          	lui	a5,0x8
   11984:	00060913          	mv	s2,a2
   11988:	fff78793          	addi	a5,a5,-1 # 7fff <__mdiff+0xfb>
   1198c:	00000593          	li	a1,0
   11990:	00000693          	li	a3,0
   11994:	00000613          	li	a2,0
   11998:	00000713          	li	a4,0
   1199c:	f35ff06f          	j	118d0 <__multf3+0x218>
   119a0:	018b67b3          	or	a5,s6,s8
   119a4:	0177e7b3          	or	a5,a5,s7
   119a8:	00a7e7b3          	or	a5,a5,a0
   119ac:	1c078ae3          	beqz	a5,12380 <__multf3+0xcc8>
   119b0:	38050ee3          	beqz	a0,1254c <__multf3+0xe94>
   119b4:	345020ef          	jal	ra,144f8 <__clzsi2>
   119b8:	ff450893          	addi	a7,a0,-12
   119bc:	02000593          	li	a1,32
   119c0:	00050913          	mv	s2,a0
   119c4:	411585b3          	sub	a1,a1,a7
   119c8:	00000613          	li	a2,0
   119cc:	40c007b3          	neg	a5,a2
   119d0:	00279793          	slli	a5,a5,0x2
   119d4:	04010513          	addi	a0,sp,64
   119d8:	00c78793          	addi	a5,a5,12
   119dc:	00f507b3          	add	a5,a0,a5
   119e0:	00261313          	slli	t1,a2,0x2
   119e4:	0007a703          	lw	a4,0(a5)
   119e8:	ffc7a683          	lw	a3,-4(a5)
   119ec:	00678833          	add	a6,a5,t1
   119f0:	01171733          	sll	a4,a4,a7
   119f4:	00b6d6b3          	srl	a3,a3,a1
   119f8:	00d76733          	or	a4,a4,a3
   119fc:	00e82023          	sw	a4,0(a6)
   11a00:	ffc78793          	addi	a5,a5,-4
   11a04:	fef510e3          	bne	a0,a5,119e4 <__multf3+0x32c>
   11a08:	08010793          	addi	a5,sp,128
   11a0c:	00678333          	add	t1,a5,t1
   11a10:	04012783          	lw	a5,64(sp)
   11a14:	fff60613          	addi	a2,a2,-1
   11a18:	011798b3          	sll	a7,a5,a7
   11a1c:	fd132023          	sw	a7,-64(t1)
   11a20:	fff00793          	li	a5,-1
   11a24:	00f60a63          	beq	a2,a5,11a38 <__multf3+0x380>
   11a28:	00160613          	addi	a2,a2,1
   11a2c:	00261613          	slli	a2,a2,0x2
   11a30:	00000593          	li	a1,0
   11a34:	925f50ef          	jal	ra,7358 <memset>
   11a38:	ffffc7b7          	lui	a5,0xffffc
   11a3c:	01178793          	addi	a5,a5,17 # ffffc011 <_stack+0xfffbc011>
   11a40:	41278533          	sub	a0,a5,s2
   11a44:	00a40433          	add	s0,s0,a0
   11a48:	00000693          	li	a3,0
   11a4c:	df9ff06f          	j	11844 <__multf3+0x18c>
   11a50:	00e967b3          	or	a5,s2,a4
   11a54:	00b7e7b3          	or	a5,a5,a1
   11a58:	00d7e7b3          	or	a5,a5,a3
   11a5c:	120788e3          	beqz	a5,1238c <__multf3+0xcd4>
   11a60:	280688e3          	beqz	a3,124f0 <__multf3+0xe38>
   11a64:	00068513          	mv	a0,a3
   11a68:	291020ef          	jal	ra,144f8 <__clzsi2>
   11a6c:	ff450893          	addi	a7,a0,-12
   11a70:	02000593          	li	a1,32
   11a74:	00050993          	mv	s3,a0
   11a78:	411585b3          	sub	a1,a1,a7
   11a7c:	00000613          	li	a2,0
   11a80:	40c007b3          	neg	a5,a2
   11a84:	00279793          	slli	a5,a5,0x2
   11a88:	03010513          	addi	a0,sp,48
   11a8c:	00c78793          	addi	a5,a5,12
   11a90:	00f507b3          	add	a5,a0,a5
   11a94:	00261313          	slli	t1,a2,0x2
   11a98:	0007a703          	lw	a4,0(a5)
   11a9c:	ffc7a683          	lw	a3,-4(a5)
   11aa0:	00678833          	add	a6,a5,t1
   11aa4:	01171733          	sll	a4,a4,a7
   11aa8:	00b6d6b3          	srl	a3,a3,a1
   11aac:	00d76733          	or	a4,a4,a3
   11ab0:	00e82023          	sw	a4,0(a6)
   11ab4:	ffc78793          	addi	a5,a5,-4
   11ab8:	fef510e3          	bne	a0,a5,11a98 <__multf3+0x3e0>
   11abc:	08010793          	addi	a5,sp,128
   11ac0:	00678333          	add	t1,a5,t1
   11ac4:	03012783          	lw	a5,48(sp)
   11ac8:	fff60613          	addi	a2,a2,-1
   11acc:	011798b3          	sll	a7,a5,a7
   11ad0:	fb132823          	sw	a7,-80(t1)
   11ad4:	fff00793          	li	a5,-1
   11ad8:	00f60a63          	beq	a2,a5,11aec <__multf3+0x434>
   11adc:	00160613          	addi	a2,a2,1
   11ae0:	00261613          	slli	a2,a2,0x2
   11ae4:	00000593          	li	a1,0
   11ae8:	871f50ef          	jal	ra,7358 <memset>
   11aec:	ffffc437          	lui	s0,0xffffc
   11af0:	01140413          	addi	s0,s0,17 # ffffc011 <_stack+0xfffbc011>
   11af4:	41340433          	sub	s0,s0,s3
   11af8:	00000c93          	li	s9,0
   11afc:	00000993          	li	s3,0
   11b00:	cadff06f          	j	117ac <__multf3+0xf4>
   11b04:	00e96933          	or	s2,s2,a4
   11b08:	00b96933          	or	s2,s2,a1
   11b0c:	00d96933          	or	s2,s2,a3
   11b10:	08091ce3          	bnez	s2,123a8 <__multf3+0xcf0>
   11b14:	00800993          	li	s3,8
   11b18:	00200c93          	li	s9,2
   11b1c:	c91ff06f          	j	117ac <__multf3+0xf4>
   11b20:	018b67b3          	or	a5,s6,s8
   11b24:	0177e7b3          	or	a5,a5,s7
   11b28:	00a7e7b3          	or	a5,a5,a0
   11b2c:	00c40433          	add	s0,s0,a2
   11b30:	060796e3          	bnez	a5,1239c <__multf3+0xce4>
   11b34:	0029e993          	ori	s3,s3,2
   11b38:	00200693          	li	a3,2
   11b3c:	d09ff06f          	j	11844 <__multf3+0x18c>
   11b40:	03012703          	lw	a4,48(sp)
   11b44:	04012583          	lw	a1,64(sp)
   11b48:	00010837          	lui	a6,0x10
   11b4c:	fff80793          	addi	a5,a6,-1 # ffff <__udivdi3+0x3b3>
   11b50:	01075693          	srli	a3,a4,0x10
   11b54:	0105df13          	srli	t5,a1,0x10
   11b58:	00f77733          	and	a4,a4,a5
   11b5c:	00f5f5b3          	and	a1,a1,a5
   11b60:	02e58633          	mul	a2,a1,a4
   11b64:	02b687b3          	mul	a5,a3,a1
   11b68:	01065893          	srli	a7,a2,0x10
   11b6c:	02ef0533          	mul	a0,t5,a4
   11b70:	00f50533          	add	a0,a0,a5
   11b74:	00a888b3          	add	a7,a7,a0
   11b78:	03e68b33          	mul	s6,a3,t5
   11b7c:	00f8f463          	bgeu	a7,a5,11b84 <__multf3+0x4cc>
   11b80:	010b0b33          	add	s6,s6,a6
   11b84:	00010337          	lui	t1,0x10
   11b88:	fff30813          	addi	a6,t1,-1 # ffff <__udivdi3+0x3b3>
   11b8c:	04412783          	lw	a5,68(sp)
   11b90:	0108f533          	and	a0,a7,a6
   11b94:	01051513          	slli	a0,a0,0x10
   11b98:	01067633          	and	a2,a2,a6
   11b9c:	0107de13          	srli	t3,a5,0x10
   11ba0:	0107feb3          	and	t4,a5,a6
   11ba4:	00c50633          	add	a2,a0,a2
   11ba8:	02ee87b3          	mul	a5,t4,a4
   11bac:	02c12623          	sw	a2,44(sp)
   11bb0:	06c12023          	sw	a2,96(sp)
   11bb4:	01c12623          	sw	t3,12(sp)
   11bb8:	01d12c23          	sw	t4,24(sp)
   11bbc:	0108d893          	srli	a7,a7,0x10
   11bc0:	03d68533          	mul	a0,a3,t4
   11bc4:	0107d813          	srli	a6,a5,0x10
   11bc8:	02ee0633          	mul	a2,t3,a4
   11bcc:	00a60633          	add	a2,a2,a0
   11bd0:	00c80833          	add	a6,a6,a2
   11bd4:	03c68ab3          	mul	s5,a3,t3
   11bd8:	00a87463          	bgeu	a6,a0,11be0 <__multf3+0x528>
   11bdc:	006a8ab3          	add	s5,s5,t1
   11be0:	03412d83          	lw	s11,52(sp)
   11be4:	00010e37          	lui	t3,0x10
   11be8:	fffe0613          	addi	a2,t3,-1 # ffff <__udivdi3+0x3b3>
   11bec:	00c87a33          	and	s4,a6,a2
   11bf0:	010dde93          	srli	t4,s11,0x10
   11bf4:	00c7f7b3          	and	a5,a5,a2
   11bf8:	00cdfdb3          	and	s11,s11,a2
   11bfc:	010a1a13          	slli	s4,s4,0x10
   11c00:	00fa0a33          	add	s4,s4,a5
   11c04:	02bd8333          	mul	t1,s11,a1
   11c08:	01d12823          	sw	t4,16(sp)
   11c0c:	01085813          	srli	a6,a6,0x10
   11c10:	01488533          	add	a0,a7,s4
   11c14:	02be87b3          	mul	a5,t4,a1
   11c18:	01035613          	srli	a2,t1,0x10
   11c1c:	03bf02b3          	mul	t0,t5,s11
   11c20:	00f282b3          	add	t0,t0,a5
   11c24:	00560633          	add	a2,a2,t0
   11c28:	03df02b3          	mul	t0,t5,t4
   11c2c:	00f67463          	bgeu	a2,a5,11c34 <__multf3+0x57c>
   11c30:	01c282b3          	add	t0,t0,t3
   11c34:	00010e37          	lui	t3,0x10
   11c38:	fffe0893          	addi	a7,t3,-1 # ffff <__udivdi3+0x3b3>
   11c3c:	011677b3          	and	a5,a2,a7
   11c40:	01065613          	srli	a2,a2,0x10
   11c44:	01012f83          	lw	t6,16(sp)
   11c48:	00c12383          	lw	t2,12(sp)
   11c4c:	005602b3          	add	t0,a2,t0
   11c50:	01812603          	lw	a2,24(sp)
   11c54:	01137333          	and	t1,t1,a7
   11c58:	01079793          	slli	a5,a5,0x10
   11c5c:	02cd88b3          	mul	a7,s11,a2
   11c60:	006787b3          	add	a5,a5,t1
   11c64:	02cf8333          	mul	t1,t6,a2
   11c68:	0108de93          	srli	t4,a7,0x10
   11c6c:	03b38633          	mul	a2,t2,s11
   11c70:	00660633          	add	a2,a2,t1
   11c74:	00ce8633          	add	a2,t4,a2
   11c78:	03f38fb3          	mul	t6,t2,t6
   11c7c:	00667463          	bgeu	a2,t1,11c84 <__multf3+0x5cc>
   11c80:	01cf8fb3          	add	t6,t6,t3
   11c84:	04812e83          	lw	t4,72(sp)
   11c88:	00010337          	lui	t1,0x10
   11c8c:	fff30e13          	addi	t3,t1,-1 # ffff <__udivdi3+0x3b3>
   11c90:	01c679b3          	and	s3,a2,t3
   11c94:	010edd13          	srli	s10,t4,0x10
   11c98:	01cef3b3          	and	t2,t4,t3
   11c9c:	01065613          	srli	a2,a2,0x10
   11ca0:	01c8f8b3          	and	a7,a7,t3
   11ca4:	01099993          	slli	s3,s3,0x10
   11ca8:	01f60cb3          	add	s9,a2,t6
   11cac:	02e38eb3          	mul	t4,t2,a4
   11cb0:	011989b3          	add	s3,s3,a7
   11cb4:	00712a23          	sw	t2,20(sp)
   11cb8:	02768633          	mul	a2,a3,t2
   11cbc:	010edf93          	srli	t6,t4,0x10
   11cc0:	02ed08b3          	mul	a7,s10,a4
   11cc4:	00c888b3          	add	a7,a7,a2
   11cc8:	011f8fb3          	add	t6,t6,a7
   11ccc:	03a68bb3          	mul	s7,a3,s10
   11cd0:	00cff463          	bgeu	t6,a2,11cd8 <__multf3+0x620>
   11cd4:	006b8bb3          	add	s7,s7,t1
   11cd8:	03812603          	lw	a2,56(sp)
   11cdc:	000108b7          	lui	a7,0x10
   11ce0:	fff88c13          	addi	s8,a7,-1 # ffff <__udivdi3+0x3b3>
   11ce4:	018ff3b3          	and	t2,t6,s8
   11ce8:	01065e13          	srli	t3,a2,0x10
   11cec:	018efeb3          	and	t4,t4,s8
   11cf0:	01867633          	and	a2,a2,s8
   11cf4:	010fdf93          	srli	t6,t6,0x10
   11cf8:	01039393          	slli	t2,t2,0x10
   11cfc:	02b60333          	mul	t1,a2,a1
   11d00:	017f8fb3          	add	t6,t6,s7
   11d04:	01d383b3          	add	t2,t2,t4
   11d08:	02be0bb3          	mul	s7,t3,a1
   11d0c:	01035c13          	srli	s8,t1,0x10
   11d10:	02cf0eb3          	mul	t4,t5,a2
   11d14:	017e8eb3          	add	t4,t4,s7
   11d18:	01dc0eb3          	add	t4,s8,t4
   11d1c:	03cf0c33          	mul	s8,t5,t3
   11d20:	017ef463          	bgeu	t4,s7,11d28 <__multf3+0x670>
   11d24:	011c0c33          	add	s8,s8,a7
   11d28:	00ab08b3          	add	a7,s6,a0
   11d2c:	0148ba33          	sltu	s4,a7,s4
   11d30:	04c12503          	lw	a0,76(sp)
   11d34:	01480833          	add	a6,a6,s4
   11d38:	01580833          	add	a6,a6,s5
   11d3c:	00f888b3          	add	a7,a7,a5
   11d40:	00f8b7b3          	sltu	a5,a7,a5
   11d44:	01055a93          	srli	s5,a0,0x10
   11d48:	01112e23          	sw	a7,28(sp)
   11d4c:	005808b3          	add	a7,a6,t0
   11d50:	01512423          	sw	s5,8(sp)
   11d54:	00010b37          	lui	s6,0x10
   11d58:	00f88ab3          	add	s5,a7,a5
   11d5c:	fffb0b93          	addi	s7,s6,-1 # ffff <__udivdi3+0x3b3>
   11d60:	0058b8b3          	sltu	a7,a7,t0
   11d64:	00fab7b3          	sltu	a5,s5,a5
   11d68:	00f8e7b3          	or	a5,a7,a5
   11d6c:	017ef8b3          	and	a7,t4,s7
   11d70:	010ede93          	srli	t4,t4,0x10
   11d74:	018e8c33          	add	s8,t4,s8
   11d78:	00812e83          	lw	t4,8(sp)
   11d7c:	01757533          	and	a0,a0,s7
   11d80:	02e50b33          	mul	s6,a0,a4
   11d84:	01483833          	sltu	a6,a6,s4
   11d88:	013a8ab3          	add	s5,s5,s3
   11d8c:	01078833          	add	a6,a5,a6
   11d90:	013ab9b3          	sltu	s3,s5,s3
   11d94:	01980833          	add	a6,a6,s9
   11d98:	013807b3          	add	a5,a6,s3
   11d9c:	01737333          	and	t1,t1,s7
   11da0:	01089893          	slli	a7,a7,0x10
   11da4:	007a8ab3          	add	s5,s5,t2
   11da8:	02a682b3          	mul	t0,a3,a0
   11dac:	006888b3          	add	a7,a7,t1
   11db0:	0137b9b3          	sltu	s3,a5,s3
   11db4:	01f78333          	add	t1,a5,t6
   11db8:	01c12783          	lw	a5,28(sp)
   11dbc:	011a8a33          	add	s4,s5,a7
   11dc0:	007ab3b3          	sltu	t2,s5,t2
   11dc4:	03412023          	sw	s4,32(sp)
   11dc8:	011a38b3          	sltu	a7,s4,a7
   11dcc:	06f12223          	sw	a5,100(sp)
   11dd0:	02ee8733          	mul	a4,t4,a4
   11dd4:	00730eb3          	add	t4,t1,t2
   11dd8:	018e8ab3          	add	s5,t4,s8
   11ddc:	02012783          	lw	a5,32(sp)
   11de0:	007eb3b3          	sltu	t2,t4,t2
   11de4:	011a8bb3          	add	s7,s5,a7
   11de8:	00812e83          	lw	t4,8(sp)
   11dec:	01983833          	sltu	a6,a6,s9
   11df0:	01f33fb3          	sltu	t6,t1,t6
   11df4:	013869b3          	or	s3,a6,s3
   11df8:	007fe3b3          	or	t2,t6,t2
   11dfc:	018abc33          	sltu	s8,s5,s8
   11e00:	011bb8b3          	sltu	a7,s7,a7
   11e04:	00570733          	add	a4,a4,t0
   11e08:	010b5a13          	srli	s4,s6,0x10
   11e0c:	007989b3          	add	s3,s3,t2
   11e10:	011c68b3          	or	a7,s8,a7
   11e14:	06f12423          	sw	a5,104(sp)
   11e18:	00ea0a33          	add	s4,s4,a4
   11e1c:	03d686b3          	mul	a3,a3,t4
   11e20:	011989b3          	add	s3,s3,a7
   11e24:	005a7663          	bgeu	s4,t0,11e30 <__multf3+0x778>
   11e28:	000107b7          	lui	a5,0x10
   11e2c:	00f686b3          	add	a3,a3,a5
   11e30:	03c12703          	lw	a4,60(sp)
   11e34:	00010837          	lui	a6,0x10
   11e38:	fff80e93          	addi	t4,a6,-1 # ffff <__udivdi3+0x3b3>
   11e3c:	01da7cb3          	and	s9,s4,t4
   11e40:	01075313          	srli	t1,a4,0x10
   11e44:	01db78b3          	and	a7,s6,t4
   11e48:	01d77733          	and	a4,a4,t4
   11e4c:	010c9c93          	slli	s9,s9,0x10
   11e50:	02b707b3          	mul	a5,a4,a1
   11e54:	011c8cb3          	add	s9,s9,a7
   11e58:	010a5a13          	srli	s4,s4,0x10
   11e5c:	00da06b3          	add	a3,s4,a3
   11e60:	00068a93          	mv	s5,a3
   11e64:	02ef08b3          	mul	a7,t5,a4
   11e68:	0107de93          	srli	t4,a5,0x10
   11e6c:	02b305b3          	mul	a1,t1,a1
   11e70:	00b886b3          	add	a3,a7,a1
   11e74:	00de88b3          	add	a7,t4,a3
   11e78:	026f0f33          	mul	t5,t5,t1
   11e7c:	00b8f463          	bgeu	a7,a1,11e84 <__multf3+0x7cc>
   11e80:	010f0f33          	add	t5,t5,a6
   11e84:	00010837          	lui	a6,0x10
   11e88:	fff80593          	addi	a1,a6,-1 # ffff <__udivdi3+0x3b3>
   11e8c:	00b8f3b3          	and	t2,a7,a1
   11e90:	00b7f7b3          	and	a5,a5,a1
   11e94:	01012e83          	lw	t4,16(sp)
   11e98:	01412583          	lw	a1,20(sp)
   11e9c:	01039393          	slli	t2,t2,0x10
   11ea0:	0108d693          	srli	a3,a7,0x10
   11ea4:	00f383b3          	add	t2,t2,a5
   11ea8:	03b588b3          	mul	a7,a1,s11
   11eac:	01e686b3          	add	a3,a3,t5
   11eb0:	02d12223          	sw	a3,36(sp)
   11eb4:	02be87b3          	mul	a5,t4,a1
   11eb8:	0108df93          	srli	t6,a7,0x10
   11ebc:	03bd05b3          	mul	a1,s10,s11
   11ec0:	00f585b3          	add	a1,a1,a5
   11ec4:	00bf8fb3          	add	t6,t6,a1
   11ec8:	03ae85b3          	mul	a1,t4,s10
   11ecc:	00fff463          	bgeu	t6,a5,11ed4 <__multf3+0x81c>
   11ed0:	010585b3          	add	a1,a1,a6
   11ed4:	00010837          	lui	a6,0x10
   11ed8:	fff80793          	addi	a5,a6,-1 # ffff <__udivdi3+0x3b3>
   11edc:	00fff2b3          	and	t0,t6,a5
   11ee0:	010fdf93          	srli	t6,t6,0x10
   11ee4:	00f8f7b3          	and	a5,a7,a5
   11ee8:	00bf8fb3          	add	t6,t6,a1
   11eec:	00c12883          	lw	a7,12(sp)
   11ef0:	01812583          	lw	a1,24(sp)
   11ef4:	01029293          	slli	t0,t0,0x10
   11ef8:	00f282b3          	add	t0,t0,a5
   11efc:	02b60a33          	mul	s4,a2,a1
   11f00:	02be07b3          	mul	a5,t3,a1
   11f04:	010a5f13          	srli	t5,s4,0x10
   11f08:	02c885b3          	mul	a1,a7,a2
   11f0c:	03c886b3          	mul	a3,a7,t3
   11f10:	00f585b3          	add	a1,a1,a5
   11f14:	00bf05b3          	add	a1,t5,a1
   11f18:	02d12423          	sw	a3,40(sp)
   11f1c:	00f5f663          	bgeu	a1,a5,11f28 <__multf3+0x870>
   11f20:	010687b3          	add	a5,a3,a6
   11f24:	02f12423          	sw	a5,40(sp)
   11f28:	019b87b3          	add	a5,s7,s9
   11f2c:	02412803          	lw	a6,36(sp)
   11f30:	01412b83          	lw	s7,20(sp)
   11f34:	0197b8b3          	sltu	a7,a5,s9
   11f38:	01598eb3          	add	t4,s3,s5
   11f3c:	00010f37          	lui	t5,0x10
   11f40:	011e8cb3          	add	s9,t4,a7
   11f44:	ffff0f13          	addi	t5,t5,-1 # ffff <__udivdi3+0x3b3>
   11f48:	010c89b3          	add	s3,s9,a6
   11f4c:	02cb8b33          	mul	s6,s7,a2
   11f50:	01e5f833          	and	a6,a1,t5
   11f54:	011cbcb3          	sltu	s9,s9,a7
   11f58:	01ea7f33          	and	t5,s4,t5
   11f5c:	007787b3          	add	a5,a5,t2
   11f60:	01081813          	slli	a6,a6,0x10
   11f64:	000a8693          	mv	a3,s5
   11f68:	0077b3b3          	sltu	t2,a5,t2
   11f6c:	01e80833          	add	a6,a6,t5
   11f70:	0105df13          	srli	t5,a1,0x10
   11f74:	037e0a33          	mul	s4,t3,s7
   11f78:	02812583          	lw	a1,40(sp)
   11f7c:	00798ab3          	add	s5,s3,t2
   11f80:	005787b3          	add	a5,a5,t0
   11f84:	00debeb3          	sltu	t4,t4,a3
   11f88:	02412683          	lw	a3,36(sp)
   11f8c:	0057b2b3          	sltu	t0,a5,t0
   11f90:	01fa8c33          	add	s8,s5,t6
   11f94:	00bf0f33          	add	t5,t5,a1
   11f98:	010787b3          	add	a5,a5,a6
   11f9c:	02cd08b3          	mul	a7,s10,a2
   11fa0:	005c05b3          	add	a1,s8,t0
   11fa4:	01e58bb3          	add	s7,a1,t5
   11fa8:	0107b833          	sltu	a6,a5,a6
   11fac:	00d9b6b3          	sltu	a3,s3,a3
   11fb0:	007ab3b3          	sltu	t2,s5,t2
   11fb4:	019eeeb3          	or	t4,t4,s9
   11fb8:	010b8ab3          	add	s5,s7,a6
   11fbc:	0076e6b3          	or	a3,a3,t2
   11fc0:	01fc3fb3          	sltu	t6,s8,t6
   11fc4:	0055b5b3          	sltu	a1,a1,t0
   11fc8:	00de86b3          	add	a3,t4,a3
   11fcc:	00bfe5b3          	or	a1,t6,a1
   11fd0:	01ebbf33          	sltu	t5,s7,t5
   11fd4:	010ab833          	sltu	a6,s5,a6
   11fd8:	014888b3          	add	a7,a7,s4
   11fdc:	010b5993          	srli	s3,s6,0x10
   11fe0:	00b685b3          	add	a1,a3,a1
   11fe4:	010f6f33          	or	t5,t5,a6
   11fe8:	06f12623          	sw	a5,108(sp)
   11fec:	011988b3          	add	a7,s3,a7
   11ff0:	03cd06b3          	mul	a3,s10,t3
   11ff4:	01e585b3          	add	a1,a1,t5
   11ff8:	0148f663          	bgeu	a7,s4,12004 <__multf3+0x94c>
   11ffc:	00010f37          	lui	t5,0x10
   12000:	01e686b3          	add	a3,a3,t5
   12004:	00010eb7          	lui	t4,0x10
   12008:	fffe8813          	addi	a6,t4,-1 # ffff <__udivdi3+0x3b3>
   1200c:	0108fa33          	and	s4,a7,a6
   12010:	0108d893          	srli	a7,a7,0x10
   12014:	00812f83          	lw	t6,8(sp)
   12018:	010b7b33          	and	s6,s6,a6
   1201c:	00d88833          	add	a6,a7,a3
   12020:	01012683          	lw	a3,16(sp)
   12024:	03b50f33          	mul	t5,a0,s11
   12028:	010a1a13          	slli	s4,s4,0x10
   1202c:	016a0a33          	add	s4,s4,s6
   12030:	02a688b3          	mul	a7,a3,a0
   12034:	010f5293          	srli	t0,t5,0x10
   12038:	03bf8db3          	mul	s11,t6,s11
   1203c:	011d8db3          	add	s11,s11,a7
   12040:	01b28db3          	add	s11,t0,s11
   12044:	03f686b3          	mul	a3,a3,t6
   12048:	011df463          	bgeu	s11,a7,12050 <__multf3+0x998>
   1204c:	01d686b3          	add	a3,a3,t4
   12050:	000108b7          	lui	a7,0x10
   12054:	010dd293          	srli	t0,s11,0x10
   12058:	fff88e93          	addi	t4,a7,-1 # ffff <__udivdi3+0x3b3>
   1205c:	00c12383          	lw	t2,12(sp)
   12060:	00d282b3          	add	t0,t0,a3
   12064:	01812683          	lw	a3,24(sp)
   12068:	01ddf9b3          	and	s3,s11,t4
   1206c:	01df7f33          	and	t5,t5,t4
   12070:	01099993          	slli	s3,s3,0x10
   12074:	02d70eb3          	mul	t4,a4,a3
   12078:	01e989b3          	add	s3,s3,t5
   1207c:	02d30f33          	mul	t5,t1,a3
   12080:	010edf93          	srli	t6,t4,0x10
   12084:	02e386b3          	mul	a3,t2,a4
   12088:	01e686b3          	add	a3,a3,t5
   1208c:	00df86b3          	add	a3,t6,a3
   12090:	02638fb3          	mul	t6,t2,t1
   12094:	01e6f463          	bgeu	a3,t5,1209c <__multf3+0x9e4>
   12098:	011f8fb3          	add	t6,t6,a7
   1209c:	00812b03          	lw	s6,8(sp)
   120a0:	000103b7          	lui	t2,0x10
   120a4:	fff38893          	addi	a7,t2,-1 # ffff <__udivdi3+0x3b3>
   120a8:	0116ff33          	and	t5,a3,a7
   120ac:	0106d693          	srli	a3,a3,0x10
   120b0:	011ef8b3          	and	a7,t4,a7
   120b4:	01f68fb3          	add	t6,a3,t6
   120b8:	02a60eb3          	mul	t4,a2,a0
   120bc:	010f1f13          	slli	t5,t5,0x10
   120c0:	011f08b3          	add	a7,t5,a7
   120c4:	02ae06b3          	mul	a3,t3,a0
   120c8:	010edf13          	srli	t5,t4,0x10
   120cc:	02cb0633          	mul	a2,s6,a2
   120d0:	00d60633          	add	a2,a2,a3
   120d4:	00cf0633          	add	a2,t5,a2
   120d8:	036e0e33          	mul	t3,t3,s6
   120dc:	00d67463          	bgeu	a2,a3,120e4 <__multf3+0xa2c>
   120e0:	007e0e33          	add	t3,t3,t2
   120e4:	000106b7          	lui	a3,0x10
   120e8:	fff68b13          	addi	s6,a3,-1 # ffff <__udivdi3+0x3b3>
   120ec:	016673b3          	and	t2,a2,s6
   120f0:	01065f13          	srli	t5,a2,0x10
   120f4:	01412603          	lw	a2,20(sp)
   120f8:	016efeb3          	and	t4,t4,s6
   120fc:	01039393          	slli	t2,t2,0x10
   12100:	02c70bb3          	mul	s7,a4,a2
   12104:	01d383b3          	add	t2,t2,t4
   12108:	01cf0f33          	add	t5,t5,t3
   1210c:	02ed0eb3          	mul	t4,s10,a4
   12110:	010bdb13          	srli	s6,s7,0x10
   12114:	02c30633          	mul	a2,t1,a2
   12118:	00ce8e33          	add	t3,t4,a2
   1211c:	01cb0eb3          	add	t4,s6,t3
   12120:	026d0e33          	mul	t3,s10,t1
   12124:	00cef463          	bgeu	t4,a2,1212c <__multf3+0xa74>
   12128:	00de0e33          	add	t3,t3,a3
   1212c:	014a86b3          	add	a3,s5,s4
   12130:	0146ba33          	sltu	s4,a3,s4
   12134:	010585b3          	add	a1,a1,a6
   12138:	01458d33          	add	s10,a1,s4
   1213c:	013686b3          	add	a3,a3,s3
   12140:	0136b9b3          	sltu	s3,a3,s3
   12144:	005d0cb3          	add	s9,s10,t0
   12148:	013c8633          	add	a2,s9,s3
   1214c:	01f60c33          	add	s8,a2,t6
   12150:	0105b5b3          	sltu	a1,a1,a6
   12154:	014d3a33          	sltu	s4,s10,s4
   12158:	01363633          	sltu	a2,a2,s3
   1215c:	005cb2b3          	sltu	t0,s9,t0
   12160:	00c2e2b3          	or	t0,t0,a2
   12164:	0145e5b3          	or	a1,a1,s4
   12168:	005585b3          	add	a1,a1,t0
   1216c:	00812283          	lw	t0,8(sp)
   12170:	02a70b33          	mul	s6,a4,a0
   12174:	011686b3          	add	a3,a3,a7
   12178:	0116b8b3          	sltu	a7,a3,a7
   1217c:	011c0ab3          	add	s5,s8,a7
   12180:	00010db7          	lui	s11,0x10
   12184:	011ab8b3          	sltu	a7,s5,a7
   12188:	fffd8d13          	addi	s10,s11,-1 # ffff <__udivdi3+0x3b3>
   1218c:	01fc3fb3          	sltu	t6,s8,t6
   12190:	01aef833          	and	a6,t4,s10
   12194:	011fefb3          	or	t6,t6,a7
   12198:	02a30533          	mul	a0,t1,a0
   1219c:	007a8ab3          	add	s5,s5,t2
   121a0:	01081813          	slli	a6,a6,0x10
   121a4:	01f585b3          	add	a1,a1,t6
   121a8:	01abfd33          	and	s10,s7,s10
   121ac:	01a80bb3          	add	s7,a6,s10
   121b0:	007ab3b3          	sltu	t2,s5,t2
   121b4:	01e58633          	add	a2,a1,t5
   121b8:	010ede93          	srli	t4,t4,0x10
   121bc:	007608b3          	add	a7,a2,t2
   121c0:	02e28733          	mul	a4,t0,a4
   121c4:	01ce8eb3          	add	t4,t4,t3
   121c8:	017a8ab3          	add	s5,s5,s7
   121cc:	017abbb3          	sltu	s7,s5,s7
   121d0:	01d88e33          	add	t3,a7,t4
   121d4:	017e0833          	add	a6,t3,s7
   121d8:	010b5593          	srli	a1,s6,0x10
   121dc:	01e63633          	sltu	a2,a2,t5
   121e0:	0078b3b3          	sltu	t2,a7,t2
   121e4:	01de3e33          	sltu	t3,t3,t4
   121e8:	00a70733          	add	a4,a4,a0
   121ec:	01783bb3          	sltu	s7,a6,s7
   121f0:	06d12823          	sw	a3,112(sp)
   121f4:	07512a23          	sw	s5,116(sp)
   121f8:	00e58733          	add	a4,a1,a4
   121fc:	02628333          	mul	t1,t0,t1
   12200:	007663b3          	or	t2,a2,t2
   12204:	017e6e33          	or	t3,t3,s7
   12208:	00a77463          	bgeu	a4,a0,12210 <__multf3+0xb58>
   1220c:	01b30333          	add	t1,t1,s11
   12210:	000105b7          	lui	a1,0x10
   12214:	fff58593          	addi	a1,a1,-1 # ffff <__udivdi3+0x3b3>
   12218:	00b77633          	and	a2,a4,a1
   1221c:	01061613          	slli	a2,a2,0x10
   12220:	00bb7b33          	and	s6,s6,a1
   12224:	01660b33          	add	s6,a2,s6
   12228:	01075713          	srli	a4,a4,0x10
   1222c:	01680633          	add	a2,a6,s6
   12230:	00770733          	add	a4,a4,t2
   12234:	01663b33          	sltu	s6,a2,s6
   12238:	01c70733          	add	a4,a4,t3
   1223c:	01670733          	add	a4,a4,s6
   12240:	02c12583          	lw	a1,44(sp)
   12244:	01c12503          	lw	a0,28(sp)
   12248:	00670333          	add	t1,a4,t1
   1224c:	02012703          	lw	a4,32(sp)
   12250:	00d79a93          	slli	s5,a5,0xd
   12254:	00a5e8b3          	or	a7,a1,a0
   12258:	0137d793          	srli	a5,a5,0x13
   1225c:	00d69693          	slli	a3,a3,0xd
   12260:	011768b3          	or	a7,a4,a7
   12264:	06c12c23          	sw	a2,120(sp)
   12268:	06010713          	addi	a4,sp,96
   1226c:	06612e23          	sw	t1,124(sp)
   12270:	00d7e7b3          	or	a5,a5,a3
   12274:	00f72023          	sw	a5,0(a4)
   12278:	07010613          	addi	a2,sp,112
   1227c:	00470713          	addi	a4,a4,4
   12280:	011aeab3          	or	s5,s5,a7
   12284:	02c70263          	beq	a4,a2,122a8 <__multf3+0xbf0>
   12288:	00c72783          	lw	a5,12(a4)
   1228c:	01072683          	lw	a3,16(a4)
   12290:	00470713          	addi	a4,a4,4
   12294:	0137d793          	srli	a5,a5,0x13
   12298:	00d69693          	slli	a3,a3,0xd
   1229c:	00d7e7b3          	or	a5,a5,a3
   122a0:	fef72e23          	sw	a5,-4(a4)
   122a4:	fec712e3          	bne	a4,a2,12288 <__multf3+0xbd0>
   122a8:	06012603          	lw	a2,96(sp)
   122ac:	06c12703          	lw	a4,108(sp)
   122b0:	06812683          	lw	a3,104(sp)
   122b4:	06412583          	lw	a1,100(sp)
   122b8:	015037b3          	snez	a5,s5
   122bc:	00c7e7b3          	or	a5,a5,a2
   122c0:	00100637          	lui	a2,0x100
   122c4:	04e12e23          	sw	a4,92(sp)
   122c8:	04d12c23          	sw	a3,88(sp)
   122cc:	04b12a23          	sw	a1,84(sp)
   122d0:	04f12823          	sw	a5,80(sp)
   122d4:	00c77633          	and	a2,a4,a2
   122d8:	2c060863          	beqz	a2,125a8 <__multf3+0xef0>
   122dc:	01f59613          	slli	a2,a1,0x1f
   122e0:	0017d893          	srli	a7,a5,0x1
   122e4:	01f69513          	slli	a0,a3,0x1f
   122e8:	01f71813          	slli	a6,a4,0x1f
   122ec:	0015d593          	srli	a1,a1,0x1
   122f0:	0016d693          	srli	a3,a3,0x1
   122f4:	01166633          	or	a2,a2,a7
   122f8:	0017f793          	andi	a5,a5,1
   122fc:	00b565b3          	or	a1,a0,a1
   12300:	0106e6b3          	or	a3,a3,a6
   12304:	00175713          	srli	a4,a4,0x1
   12308:	00f667b3          	or	a5,a2,a5
   1230c:	04b12a23          	sw	a1,84(sp)
   12310:	04d12c23          	sw	a3,88(sp)
   12314:	04e12e23          	sw	a4,92(sp)
   12318:	04f12823          	sw	a5,80(sp)
   1231c:	00412703          	lw	a4,4(sp)
   12320:	000047b7          	lui	a5,0x4
   12324:	fff78793          	addi	a5,a5,-1 # 3fff <eshift.part.0+0x16b>
   12328:	00f70533          	add	a0,a4,a5
   1232c:	08a05463          	blez	a0,123b4 <__multf3+0xcfc>
   12330:	05012703          	lw	a4,80(sp)
   12334:	05412603          	lw	a2,84(sp)
   12338:	05c12783          	lw	a5,92(sp)
   1233c:	00777693          	andi	a3,a4,7
   12340:	00060813          	mv	a6,a2
   12344:	10068a63          	beqz	a3,12458 <__multf3+0xda0>
   12348:	00f77693          	andi	a3,a4,15
   1234c:	00400593          	li	a1,4
   12350:	10b68463          	beq	a3,a1,12458 <__multf3+0xda0>
   12354:	00470713          	addi	a4,a4,4
   12358:	00473593          	sltiu	a1,a4,4
   1235c:	05812683          	lw	a3,88(sp)
   12360:	00b60833          	add	a6,a2,a1
   12364:	00b83633          	sltu	a2,a6,a1
   12368:	00d606b3          	add	a3,a2,a3
   1236c:	00c6b633          	sltu	a2,a3,a2
   12370:	00c787b3          	add	a5,a5,a2
   12374:	04f12e23          	sw	a5,92(sp)
   12378:	00080613          	mv	a2,a6
   1237c:	0e00006f          	j	1245c <__multf3+0xda4>
   12380:	0019e993          	ori	s3,s3,1
   12384:	00100693          	li	a3,1
   12388:	cbcff06f          	j	11844 <__multf3+0x18c>
   1238c:	00400993          	li	s3,4
   12390:	00000413          	li	s0,0
   12394:	00100c93          	li	s9,1
   12398:	c14ff06f          	j	117ac <__multf3+0xf4>
   1239c:	0039e993          	ori	s3,s3,3
   123a0:	00300693          	li	a3,3
   123a4:	ca0ff06f          	j	11844 <__multf3+0x18c>
   123a8:	00c00993          	li	s3,12
   123ac:	00300c93          	li	s9,3
   123b0:	bfcff06f          	j	117ac <__multf3+0xf4>
   123b4:	00100793          	li	a5,1
   123b8:	40a787b3          	sub	a5,a5,a0
   123bc:	1e051a63          	bnez	a0,125b0 <__multf3+0xef8>
   123c0:	4057d813          	srai	a6,a5,0x5
   123c4:	00000413          	li	s0,0
   123c8:	05010993          	addi	s3,sp,80
   123cc:	00300613          	li	a2,3
   123d0:	01f7f793          	andi	a5,a5,31
   123d4:	41060633          	sub	a2,a2,a6
   123d8:	22078a63          	beqz	a5,1260c <__multf3+0xf54>
   123dc:	08010713          	addi	a4,sp,128
   123e0:	00251513          	slli	a0,a0,0x2
   123e4:	00a70533          	add	a0,a4,a0
   123e8:	fd052703          	lw	a4,-48(a0)
   123ec:	02000893          	li	a7,32
   123f0:	40f888b3          	sub	a7,a7,a5
   123f4:	01171733          	sll	a4,a4,a7
   123f8:	00e46433          	or	s0,s0,a4
   123fc:	38060063          	beqz	a2,1277c <__multf3+0x10c4>
   12400:	00281693          	slli	a3,a6,0x2
   12404:	00261613          	slli	a2,a2,0x2
   12408:	00d986b3          	add	a3,s3,a3
   1240c:	00098593          	mv	a1,s3
   12410:	00c98333          	add	t1,s3,a2
   12414:	0006a703          	lw	a4,0(a3)
   12418:	0046a503          	lw	a0,4(a3)
   1241c:	00458593          	addi	a1,a1,4
   12420:	00f75733          	srl	a4,a4,a5
   12424:	01151533          	sll	a0,a0,a7
   12428:	00a76733          	or	a4,a4,a0
   1242c:	fee5ae23          	sw	a4,-4(a1)
   12430:	00468693          	addi	a3,a3,4
   12434:	feb310e3          	bne	t1,a1,12414 <__multf3+0xd5c>
   12438:	08010713          	addi	a4,sp,128
   1243c:	00c70633          	add	a2,a4,a2
   12440:	05c12703          	lw	a4,92(sp)
   12444:	00400513          	li	a0,4
   12448:	41050533          	sub	a0,a0,a6
   1244c:	00f757b3          	srl	a5,a4,a5
   12450:	fcf62823          	sw	a5,-48(a2) # fffd0 <_stack+0xbffd0>
   12454:	1e00006f          	j	12634 <__multf3+0xf7c>
   12458:	05812683          	lw	a3,88(sp)
   1245c:	001005b7          	lui	a1,0x100
   12460:	00b7f5b3          	and	a1,a5,a1
   12464:	02058063          	beqz	a1,12484 <__multf3+0xdcc>
   12468:	fff005b7          	lui	a1,0xfff00
   1246c:	fff58593          	addi	a1,a1,-1 # ffefffff <_stack+0xffebffff>
   12470:	00b7f7b3          	and	a5,a5,a1
   12474:	00412583          	lw	a1,4(sp)
   12478:	04f12e23          	sw	a5,92(sp)
   1247c:	000047b7          	lui	a5,0x4
   12480:	00f58533          	add	a0,a1,a5
   12484:	05c12583          	lw	a1,92(sp)
   12488:	000087b7          	lui	a5,0x8
   1248c:	01d69e13          	slli	t3,a3,0x1d
   12490:	01d59313          	slli	t1,a1,0x1d
   12494:	00375713          	srli	a4,a4,0x3
   12498:	01d81813          	slli	a6,a6,0x1d
   1249c:	00365613          	srli	a2,a2,0x3
   124a0:	0036d693          	srli	a3,a3,0x3
   124a4:	ffe78893          	addi	a7,a5,-2 # 7ffe <__mdiff+0xfa>
   124a8:	01076733          	or	a4,a4,a6
   124ac:	01c66633          	or	a2,a2,t3
   124b0:	0066e6b3          	or	a3,a3,t1
   124b4:	0035d593          	srli	a1,a1,0x3
   124b8:	fff78793          	addi	a5,a5,-1
   124bc:	02a8c063          	blt	a7,a0,124dc <__multf3+0xe24>
   124c0:	00f577b3          	and	a5,a0,a5
   124c4:	01059593          	slli	a1,a1,0x10
   124c8:	01079793          	slli	a5,a5,0x10
   124cc:	0105d593          	srli	a1,a1,0x10
   124d0:	0107d793          	srli	a5,a5,0x10
   124d4:	bfcff06f          	j	118d0 <__multf3+0x218>
   124d8:	00100793          	li	a5,1
   124dc:	00000593          	li	a1,0
   124e0:	00000693          	li	a3,0
   124e4:	00000613          	li	a2,0
   124e8:	00000713          	li	a4,0
   124ec:	be4ff06f          	j	118d0 <__multf3+0x218>
   124f0:	10059663          	bnez	a1,125fc <__multf3+0xf44>
   124f4:	24070063          	beqz	a4,12734 <__multf3+0x107c>
   124f8:	00070513          	mv	a0,a4
   124fc:	7fd010ef          	jal	ra,144f8 <__clzsi2>
   12500:	04050993          	addi	s3,a0,64
   12504:	ff498613          	addi	a2,s3,-12
   12508:	01f67793          	andi	a5,a2,31
   1250c:	40565613          	srai	a2,a2,0x5
   12510:	1e079e63          	bnez	a5,1270c <__multf3+0x1054>
   12514:	40c007b3          	neg	a5,a2
   12518:	00279793          	slli	a5,a5,0x2
   1251c:	03010513          	addi	a0,sp,48
   12520:	00c78793          	addi	a5,a5,12
   12524:	00f507b3          	add	a5,a0,a5
   12528:	00261813          	slli	a6,a2,0x2
   1252c:	0007a583          	lw	a1,0(a5)
   12530:	010786b3          	add	a3,a5,a6
   12534:	00078713          	mv	a4,a5
   12538:	00b6a023          	sw	a1,0(a3)
   1253c:	ffc78793          	addi	a5,a5,-4
   12540:	fee516e3          	bne	a0,a4,1252c <__multf3+0xe74>
   12544:	fff60613          	addi	a2,a2,-1
   12548:	d8cff06f          	j	11ad4 <__multf3+0x41c>
   1254c:	0a0b9063          	bnez	s7,125ec <__multf3+0xf34>
   12550:	200c0e63          	beqz	s8,1276c <__multf3+0x10b4>
   12554:	000c0513          	mv	a0,s8
   12558:	7a1010ef          	jal	ra,144f8 <__clzsi2>
   1255c:	04050913          	addi	s2,a0,64
   12560:	ff490613          	addi	a2,s2,-12
   12564:	01f67793          	andi	a5,a2,31
   12568:	40565613          	srai	a2,a2,0x5
   1256c:	1c079c63          	bnez	a5,12744 <__multf3+0x108c>
   12570:	40c007b3          	neg	a5,a2
   12574:	00279793          	slli	a5,a5,0x2
   12578:	04010513          	addi	a0,sp,64
   1257c:	00c78793          	addi	a5,a5,12
   12580:	00f507b3          	add	a5,a0,a5
   12584:	00261813          	slli	a6,a2,0x2
   12588:	0007a583          	lw	a1,0(a5)
   1258c:	010786b3          	add	a3,a5,a6
   12590:	00078713          	mv	a4,a5
   12594:	00b6a023          	sw	a1,0(a3)
   12598:	ffc78793          	addi	a5,a5,-4
   1259c:	fee516e3          	bne	a0,a4,12588 <__multf3+0xed0>
   125a0:	fff60613          	addi	a2,a2,-1
   125a4:	c7cff06f          	j	11a20 <__multf3+0x368>
   125a8:	00812223          	sw	s0,4(sp)
   125ac:	d71ff06f          	j	1231c <__multf3+0xc64>
   125b0:	07400713          	li	a4,116
   125b4:	b0f74463          	blt	a4,a5,118bc <__multf3+0x204>
   125b8:	4057d513          	srai	a0,a5,0x5
   125bc:	1c050a63          	beqz	a0,12790 <__multf3+0x10d8>
   125c0:	05010993          	addi	s3,sp,80
   125c4:	00251693          	slli	a3,a0,0x2
   125c8:	00098713          	mv	a4,s3
   125cc:	013686b3          	add	a3,a3,s3
   125d0:	00000413          	li	s0,0
   125d4:	00072603          	lw	a2,0(a4)
   125d8:	00470713          	addi	a4,a4,4
   125dc:	00c46433          	or	s0,s0,a2
   125e0:	fed71ae3          	bne	a4,a3,125d4 <__multf3+0xf1c>
   125e4:	00050813          	mv	a6,a0
   125e8:	de5ff06f          	j	123cc <__multf3+0xd14>
   125ec:	000b8513          	mv	a0,s7
   125f0:	709010ef          	jal	ra,144f8 <__clzsi2>
   125f4:	02050913          	addi	s2,a0,32
   125f8:	f69ff06f          	j	12560 <__multf3+0xea8>
   125fc:	00058513          	mv	a0,a1
   12600:	6f9010ef          	jal	ra,144f8 <__clzsi2>
   12604:	02050993          	addi	s3,a0,32
   12608:	efdff06f          	j	12504 <__multf3+0xe4c>
   1260c:	00098713          	mv	a4,s3
   12610:	00281593          	slli	a1,a6,0x2
   12614:	00b706b3          	add	a3,a4,a1
   12618:	0006a683          	lw	a3,0(a3)
   1261c:	00178793          	addi	a5,a5,1
   12620:	00470713          	addi	a4,a4,4
   12624:	fed72e23          	sw	a3,-4(a4)
   12628:	fef656e3          	bge	a2,a5,12614 <__multf3+0xf5c>
   1262c:	00400513          	li	a0,4
   12630:	41050533          	sub	a0,a0,a6
   12634:	00400793          	li	a5,4
   12638:	02f50063          	beq	a0,a5,12658 <__multf3+0xfa0>
   1263c:	00400613          	li	a2,4
   12640:	40a60633          	sub	a2,a2,a0
   12644:	00251513          	slli	a0,a0,0x2
   12648:	00261613          	slli	a2,a2,0x2
   1264c:	00000593          	li	a1,0
   12650:	00a98533          	add	a0,s3,a0
   12654:	d05f40ef          	jal	ra,7358 <memset>
   12658:	05012703          	lw	a4,80(sp)
   1265c:	00803433          	snez	s0,s0
   12660:	05c12783          	lw	a5,92(sp)
   12664:	00e46433          	or	s0,s0,a4
   12668:	04812823          	sw	s0,80(sp)
   1266c:	00747713          	andi	a4,s0,7
   12670:	04070263          	beqz	a4,126b4 <__multf3+0xffc>
   12674:	00f47713          	andi	a4,s0,15
   12678:	00400693          	li	a3,4
   1267c:	02d70c63          	beq	a4,a3,126b4 <__multf3+0xffc>
   12680:	05412603          	lw	a2,84(sp)
   12684:	00440413          	addi	s0,s0,4
   12688:	05812683          	lw	a3,88(sp)
   1268c:	00443713          	sltiu	a4,s0,4
   12690:	00c70633          	add	a2,a4,a2
   12694:	00e63733          	sltu	a4,a2,a4
   12698:	00d706b3          	add	a3,a4,a3
   1269c:	00e6b733          	sltu	a4,a3,a4
   126a0:	00e787b3          	add	a5,a5,a4
   126a4:	04812823          	sw	s0,80(sp)
   126a8:	04c12a23          	sw	a2,84(sp)
   126ac:	04d12c23          	sw	a3,88(sp)
   126b0:	04f12e23          	sw	a5,92(sp)
   126b4:	00080737          	lui	a4,0x80
   126b8:	00e7f7b3          	and	a5,a5,a4
   126bc:	e0079ee3          	bnez	a5,124d8 <__multf3+0xe20>
   126c0:	00098793          	mv	a5,s3
   126c4:	05c10613          	addi	a2,sp,92
   126c8:	0007a703          	lw	a4,0(a5)
   126cc:	0047a683          	lw	a3,4(a5)
   126d0:	00478793          	addi	a5,a5,4
   126d4:	00375713          	srli	a4,a4,0x3
   126d8:	01d69693          	slli	a3,a3,0x1d
   126dc:	00d76733          	or	a4,a4,a3
   126e0:	fee7ae23          	sw	a4,-4(a5)
   126e4:	fef612e3          	bne	a2,a5,126c8 <__multf3+0x1010>
   126e8:	05c12583          	lw	a1,92(sp)
   126ec:	05012703          	lw	a4,80(sp)
   126f0:	05412603          	lw	a2,84(sp)
   126f4:	0035d593          	srli	a1,a1,0x3
   126f8:	01059593          	slli	a1,a1,0x10
   126fc:	05812683          	lw	a3,88(sp)
   12700:	0105d593          	srli	a1,a1,0x10
   12704:	00000793          	li	a5,0
   12708:	9c8ff06f          	j	118d0 <__multf3+0x218>
   1270c:	02000593          	li	a1,32
   12710:	00300713          	li	a4,3
   12714:	00078893          	mv	a7,a5
   12718:	40f585b3          	sub	a1,a1,a5
   1271c:	b6e61263          	bne	a2,a4,11a80 <__multf3+0x3c8>
   12720:	00f917b3          	sll	a5,s2,a5
   12724:	02f12e23          	sw	a5,60(sp)
   12728:	00200613          	li	a2,2
   1272c:	03010513          	addi	a0,sp,48
   12730:	bacff06f          	j	11adc <__multf3+0x424>
   12734:	00090513          	mv	a0,s2
   12738:	5c1010ef          	jal	ra,144f8 <__clzsi2>
   1273c:	06050993          	addi	s3,a0,96
   12740:	dc5ff06f          	j	12504 <__multf3+0xe4c>
   12744:	02000593          	li	a1,32
   12748:	00300713          	li	a4,3
   1274c:	00078893          	mv	a7,a5
   12750:	40f585b3          	sub	a1,a1,a5
   12754:	a6e61c63          	bne	a2,a4,119cc <__multf3+0x314>
   12758:	00fb17b3          	sll	a5,s6,a5
   1275c:	04f12623          	sw	a5,76(sp)
   12760:	00200613          	li	a2,2
   12764:	04010513          	addi	a0,sp,64
   12768:	ac0ff06f          	j	11a28 <__multf3+0x370>
   1276c:	000b0513          	mv	a0,s6
   12770:	589010ef          	jal	ra,144f8 <__clzsi2>
   12774:	06050913          	addi	s2,a0,96
   12778:	de9ff06f          	j	12560 <__multf3+0xea8>
   1277c:	05c12703          	lw	a4,92(sp)
   12780:	00100513          	li	a0,1
   12784:	00f757b3          	srl	a5,a4,a5
   12788:	04f12823          	sw	a5,80(sp)
   1278c:	eb1ff06f          	j	1263c <__multf3+0xf84>
   12790:	00000813          	li	a6,0
   12794:	00000413          	li	s0,0
   12798:	05010993          	addi	s3,sp,80
   1279c:	c31ff06f          	j	123cc <__multf3+0xd14>

000127a0 <__subtf3>:
   127a0:	f7010113          	addi	sp,sp,-144
   127a4:	08812423          	sw	s0,136(sp)
   127a8:	08912223          	sw	s1,132(sp)
   127ac:	00c62403          	lw	s0,12(a2)
   127b0:	00c5a483          	lw	s1,12(a1)
   127b4:	00062883          	lw	a7,0(a2)
   127b8:	00462803          	lw	a6,4(a2)
   127bc:	0085a783          	lw	a5,8(a1)
   127c0:	00862603          	lw	a2,8(a2)
   127c4:	09212023          	sw	s2,128(sp)
   127c8:	07912223          	sw	s9,100(sp)
   127cc:	0045a903          	lw	s2,4(a1)
   127d0:	0005ac83          	lw	s9,0(a1)
   127d4:	01041693          	slli	a3,s0,0x10
   127d8:	01049593          	slli	a1,s1,0x10
   127dc:	0105d593          	srli	a1,a1,0x10
   127e0:	0106d693          	srli	a3,a3,0x10
   127e4:	07412c23          	sw	s4,120(sp)
   127e8:	07612823          	sw	s6,112(sp)
   127ec:	07712623          	sw	s7,108(sp)
   127f0:	07812423          	sw	s8,104(sp)
   127f4:	05b12e23          	sw	s11,92(sp)
   127f8:	01d7dc13          	srli	s8,a5,0x1d
   127fc:	01d95d93          	srli	s11,s2,0x1d
   12800:	00379793          	slli	a5,a5,0x3
   12804:	01dcde93          	srli	t4,s9,0x1d
   12808:	00369693          	slli	a3,a3,0x3
   1280c:	00359593          	slli	a1,a1,0x3
   12810:	00391913          	slli	s2,s2,0x3
   12814:	01d65b13          	srli	s6,a2,0x1d
   12818:	01d85b93          	srli	s7,a6,0x1d
   1281c:	00361e13          	slli	t3,a2,0x3
   12820:	00381a13          	slli	s4,a6,0x3
   12824:	01d8d313          	srli	t1,a7,0x1d
   12828:	00008737          	lui	a4,0x8
   1282c:	07512a23          	sw	s5,116(sp)
   12830:	07a12023          	sw	s10,96(sp)
   12834:	fff70713          	addi	a4,a4,-1 # 7fff <__mdiff+0xfb>
   12838:	0104dd13          	srli	s10,s1,0x10
   1283c:	00fdedb3          	or	s11,s11,a5
   12840:	01045a93          	srli	s5,s0,0x10
   12844:	00db6b33          	or	s6,s6,a3
   12848:	00bc6c33          	or	s8,s8,a1
   1284c:	01d96933          	or	s2,s2,t4
   12850:	003c9c93          	slli	s9,s9,0x3
   12854:	01cbebb3          	or	s7,s7,t3
   12858:	006a6a33          	or	s4,s4,t1
   1285c:	07312e23          	sw	s3,124(sp)
   12860:	04812623          	sw	s0,76(sp)
   12864:	08112623          	sw	ra,140(sp)
   12868:	00389693          	slli	a3,a7,0x3
   1286c:	00ed7d33          	and	s10,s10,a4
   12870:	00eafab3          	and	s5,s5,a4
   12874:	03812623          	sw	s8,44(sp)
   12878:	03b12423          	sw	s11,40(sp)
   1287c:	03212223          	sw	s2,36(sp)
   12880:	03912023          	sw	s9,32(sp)
   12884:	05112023          	sw	a7,64(sp)
   12888:	05012223          	sw	a6,68(sp)
   1288c:	04c12423          	sw	a2,72(sp)
   12890:	03612e23          	sw	s6,60(sp)
   12894:	03712c23          	sw	s7,56(sp)
   12898:	03412a23          	sw	s4,52(sp)
   1289c:	02d12823          	sw	a3,48(sp)
   128a0:	00050993          	mv	s3,a0
   128a4:	01f4d493          	srli	s1,s1,0x1f
   128a8:	01f45413          	srli	s0,s0,0x1f
   128ac:	415d07b3          	sub	a5,s10,s5
   128b0:	22ea8863          	beq	s5,a4,12ae0 <__subtf3+0x340>
   128b4:	00144413          	xori	s0,s0,1
   128b8:	3e848e63          	beq	s1,s0,12cb4 <__subtf3+0x514>
   128bc:	0ef05e63          	blez	a5,129b8 <__subtf3+0x218>
   128c0:	220a9c63          	bnez	s5,12af8 <__subtf3+0x358>
   128c4:	017a6733          	or	a4,s4,s7
   128c8:	01676733          	or	a4,a4,s6
   128cc:	00d76733          	or	a4,a4,a3
   128d0:	02070ce3          	beqz	a4,13108 <__subtf3+0x968>
   128d4:	fff78713          	addi	a4,a5,-1
   128d8:	7a070ee3          	beqz	a4,13894 <__subtf3+0x10f4>
   128dc:	00008637          	lui	a2,0x8
   128e0:	fff60613          	addi	a2,a2,-1 # 7fff <__mdiff+0xfb>
   128e4:	02c782e3          	beq	a5,a2,13108 <__subtf3+0x968>
   128e8:	07400793          	li	a5,116
   128ec:	22e7c663          	blt	a5,a4,12b18 <__subtf3+0x378>
   128f0:	00070793          	mv	a5,a4
   128f4:	4057d813          	srai	a6,a5,0x5
   128f8:	00081463          	bnez	a6,12900 <__subtf3+0x160>
   128fc:	09c0106f          	j	13998 <__subtf3+0x11f8>
   12900:	03010513          	addi	a0,sp,48
   12904:	00281613          	slli	a2,a6,0x2
   12908:	00050713          	mv	a4,a0
   1290c:	00000413          	li	s0,0
   12910:	00c50633          	add	a2,a0,a2
   12914:	00470713          	addi	a4,a4,4
   12918:	00d46433          	or	s0,s0,a3
   1291c:	00e60a63          	beq	a2,a4,12930 <__subtf3+0x190>
   12920:	00072683          	lw	a3,0(a4)
   12924:	00470713          	addi	a4,a4,4
   12928:	00d46433          	or	s0,s0,a3
   1292c:	fee61ae3          	bne	a2,a4,12920 <__subtf3+0x180>
   12930:	00080713          	mv	a4,a6
   12934:	00300693          	li	a3,3
   12938:	01f7f793          	andi	a5,a5,31
   1293c:	410686b3          	sub	a3,a3,a6
   12940:	4a0798e3          	bnez	a5,135f0 <__subtf3+0xe50>
   12944:	00050793          	mv	a5,a0
   12948:	00281593          	slli	a1,a6,0x2
   1294c:	00000713          	li	a4,0
   12950:	00b78633          	add	a2,a5,a1
   12954:	00062603          	lw	a2,0(a2)
   12958:	00170713          	addi	a4,a4,1
   1295c:	00478793          	addi	a5,a5,4
   12960:	fec7ae23          	sw	a2,-4(a5)
   12964:	fee6d6e3          	bge	a3,a4,12950 <__subtf3+0x1b0>
   12968:	00400713          	li	a4,4
   1296c:	41070733          	sub	a4,a4,a6
   12970:	00400793          	li	a5,4
   12974:	02f70063          	beq	a4,a5,12994 <__subtf3+0x1f4>
   12978:	00400613          	li	a2,4
   1297c:	40e60633          	sub	a2,a2,a4
   12980:	00271713          	slli	a4,a4,0x2
   12984:	00261613          	slli	a2,a2,0x2
   12988:	00000593          	li	a1,0
   1298c:	00e50533          	add	a0,a0,a4
   12990:	9c9f40ef          	jal	ra,7358 <memset>
   12994:	008037b3          	snez	a5,s0
   12998:	03812683          	lw	a3,56(sp)
   1299c:	03012403          	lw	s0,48(sp)
   129a0:	03c12603          	lw	a2,60(sp)
   129a4:	03412803          	lw	a6,52(sp)
   129a8:	0087e7b3          	or	a5,a5,s0
   129ac:	40dd8733          	sub	a4,s11,a3
   129b0:	40cc0c33          	sub	s8,s8,a2
   129b4:	1740006f          	j	12b28 <__subtf3+0x388>
   129b8:	3e078663          	beqz	a5,12da4 <__subtf3+0x604>
   129bc:	41aa87b3          	sub	a5,s5,s10
   129c0:	200d10e3          	bnez	s10,133c0 <__subtf3+0xc20>
   129c4:	01b96733          	or	a4,s2,s11
   129c8:	01876733          	or	a4,a4,s8
   129cc:	01976733          	or	a4,a4,s9
   129d0:	5a0704e3          	beqz	a4,13778 <__subtf3+0xfd8>
   129d4:	fff78713          	addi	a4,a5,-1
   129d8:	00071463          	bnez	a4,129e0 <__subtf3+0x240>
   129dc:	0940106f          	j	13a70 <__subtf3+0x12d0>
   129e0:	00008637          	lui	a2,0x8
   129e4:	fff60613          	addi	a2,a2,-1 # 7fff <__mdiff+0xfb>
   129e8:	58c788e3          	beq	a5,a2,13778 <__subtf3+0xfd8>
   129ec:	07400793          	li	a5,116
   129f0:	1ee7c8e3          	blt	a5,a4,133e0 <__subtf3+0xc40>
   129f4:	00070793          	mv	a5,a4
   129f8:	41f7d893          	srai	a7,a5,0x1f
   129fc:	01f8f713          	andi	a4,a7,31
   12a00:	00f70733          	add	a4,a4,a5
   12a04:	01f00613          	li	a2,31
   12a08:	40575713          	srai	a4,a4,0x5
   12a0c:	00f64463          	blt	a2,a5,12a14 <__subtf3+0x274>
   12a10:	1440106f          	j	13b54 <__subtf3+0x13b4>
   12a14:	02010513          	addi	a0,sp,32
   12a18:	00000613          	li	a2,0
   12a1c:	00050593          	mv	a1,a0
   12a20:	00000493          	li	s1,0
   12a24:	00160613          	addi	a2,a2,1
   12a28:	0194e4b3          	or	s1,s1,s9
   12a2c:	00458593          	addi	a1,a1,4
   12a30:	00e65c63          	bge	a2,a4,12a48 <__subtf3+0x2a8>
   12a34:	0005ac83          	lw	s9,0(a1)
   12a38:	00160613          	addi	a2,a2,1
   12a3c:	00458593          	addi	a1,a1,4
   12a40:	0194e4b3          	or	s1,s1,s9
   12a44:	fee648e3          	blt	a2,a4,12a34 <__subtf3+0x294>
   12a48:	00070593          	mv	a1,a4
   12a4c:	00e04463          	bgtz	a4,12a54 <__subtf3+0x2b4>
   12a50:	00100593          	li	a1,1
   12a54:	00300813          	li	a6,3
   12a58:	01f7f613          	andi	a2,a5,31
   12a5c:	40e80833          	sub	a6,a6,a4
   12a60:	74061ce3          	bnez	a2,139b8 <__subtf3+0x1218>
   12a64:	00050793          	mv	a5,a0
   12a68:	00271893          	slli	a7,a4,0x2
   12a6c:	011785b3          	add	a1,a5,a7
   12a70:	0005a583          	lw	a1,0(a1)
   12a74:	00160613          	addi	a2,a2,1
   12a78:	00478793          	addi	a5,a5,4
   12a7c:	feb7ae23          	sw	a1,-4(a5)
   12a80:	fec856e3          	bge	a6,a2,12a6c <__subtf3+0x2cc>
   12a84:	00400793          	li	a5,4
   12a88:	40e78733          	sub	a4,a5,a4
   12a8c:	00300793          	li	a5,3
   12a90:	02e7c463          	blt	a5,a4,12ab8 <__subtf3+0x318>
   12a94:	00400613          	li	a2,4
   12a98:	40e60633          	sub	a2,a2,a4
   12a9c:	00271713          	slli	a4,a4,0x2
   12aa0:	00261613          	slli	a2,a2,0x2
   12aa4:	00000593          	li	a1,0
   12aa8:	00e50533          	add	a0,a0,a4
   12aac:	00d12623          	sw	a3,12(sp)
   12ab0:	8a9f40ef          	jal	ra,7358 <memset>
   12ab4:	00c12683          	lw	a3,12(sp)
   12ab8:	02012703          	lw	a4,32(sp)
   12abc:	02412883          	lw	a7,36(sp)
   12ac0:	02812603          	lw	a2,40(sp)
   12ac4:	02c12583          	lw	a1,44(sp)
   12ac8:	009037b3          	snez	a5,s1
   12acc:	00e7e7b3          	or	a5,a5,a4
   12ad0:	411a0533          	sub	a0,s4,a7
   12ad4:	40cb8733          	sub	a4,s7,a2
   12ad8:	40bb0b33          	sub	s6,s6,a1
   12adc:	1190006f          	j	133f4 <__subtf3+0xc54>
   12ae0:	017a6733          	or	a4,s4,s7
   12ae4:	01676733          	or	a4,a4,s6
   12ae8:	00d76733          	or	a4,a4,a3
   12aec:	dc0704e3          	beqz	a4,128b4 <__subtf3+0x114>
   12af0:	62848663          	beq	s1,s0,1311c <__subtf3+0x97c>
   12af4:	ecf052e3          	blez	a5,129b8 <__subtf3+0x218>
   12af8:	00008737          	lui	a4,0x8
   12afc:	fff70713          	addi	a4,a4,-1 # 7fff <__mdiff+0xfb>
   12b00:	1aed0ce3          	beq	s10,a4,134b8 <__subtf3+0xd18>
   12b04:	00080737          	lui	a4,0x80
   12b08:	00eb6b33          	or	s6,s6,a4
   12b0c:	03612e23          	sw	s6,60(sp)
   12b10:	07400713          	li	a4,116
   12b14:	def750e3          	bge	a4,a5,128f4 <__subtf3+0x154>
   12b18:	000d8713          	mv	a4,s11
   12b1c:	00000693          	li	a3,0
   12b20:	00000813          	li	a6,0
   12b24:	00100793          	li	a5,1
   12b28:	40fc87b3          	sub	a5,s9,a5
   12b2c:	410905b3          	sub	a1,s2,a6
   12b30:	00fcb633          	sltu	a2,s9,a5
   12b34:	00edb533          	sltu	a0,s11,a4
   12b38:	00b938b3          	sltu	a7,s2,a1
   12b3c:	40c58633          	sub	a2,a1,a2
   12b40:	00050b13          	mv	s6,a0
   12b44:	00fcf463          	bgeu	s9,a5,12b4c <__subtf3+0x3ac>
   12b48:	75090063          	beq	s2,a6,13288 <__subtf3+0xae8>
   12b4c:	41170733          	sub	a4,a4,a7
   12b50:	72b96e63          	bltu	s2,a1,1328c <__subtf3+0xaec>
   12b54:	416c0c33          	sub	s8,s8,s6
   12b58:	05812623          	sw	s8,76(sp)
   12b5c:	04e12423          	sw	a4,72(sp)
   12b60:	04c12223          	sw	a2,68(sp)
   12b64:	04f12023          	sw	a5,64(sp)
   12b68:	00080537          	lui	a0,0x80
   12b6c:	00ac77b3          	and	a5,s8,a0
   12b70:	44079e63          	bnez	a5,12fcc <__subtf3+0x82c>
   12b74:	04012703          	lw	a4,64(sp)
   12b78:	00777693          	andi	a3,a4,7
   12b7c:	6c068063          	beqz	a3,1323c <__subtf3+0xa9c>
   12b80:	04c12c03          	lw	s8,76(sp)
   12b84:	000d0793          	mv	a5,s10
   12b88:	00f77693          	andi	a3,a4,15
   12b8c:	00400613          	li	a2,4
   12b90:	02c68c63          	beq	a3,a2,12bc8 <__subtf3+0x428>
   12b94:	04412583          	lw	a1,68(sp)
   12b98:	00470713          	addi	a4,a4,4 # 80004 <_stack+0x40004>
   12b9c:	04812603          	lw	a2,72(sp)
   12ba0:	00473693          	sltiu	a3,a4,4
   12ba4:	00b685b3          	add	a1,a3,a1
   12ba8:	00d5b6b3          	sltu	a3,a1,a3
   12bac:	00c68633          	add	a2,a3,a2
   12bb0:	00d636b3          	sltu	a3,a2,a3
   12bb4:	00dc0c33          	add	s8,s8,a3
   12bb8:	04e12023          	sw	a4,64(sp)
   12bbc:	04b12223          	sw	a1,68(sp)
   12bc0:	04c12423          	sw	a2,72(sp)
   12bc4:	05812623          	sw	s8,76(sp)
   12bc8:	00080737          	lui	a4,0x80
   12bcc:	00ec7733          	and	a4,s8,a4
   12bd0:	02070263          	beqz	a4,12bf4 <__subtf3+0x454>
   12bd4:	fff80737          	lui	a4,0xfff80
   12bd8:	fff70713          	addi	a4,a4,-1 # fff7ffff <_stack+0xfff3ffff>
   12bdc:	00ec7c33          	and	s8,s8,a4
   12be0:	00008737          	lui	a4,0x8
   12be4:	05812623          	sw	s8,76(sp)
   12be8:	00178793          	addi	a5,a5,1
   12bec:	fff70713          	addi	a4,a4,-1 # 7fff <__mdiff+0xfb>
   12bf0:	4ee78463          	beq	a5,a4,130d8 <__subtf3+0x938>
   12bf4:	04412603          	lw	a2,68(sp)
   12bf8:	04012703          	lw	a4,64(sp)
   12bfc:	00060813          	mv	a6,a2
   12c00:	04812683          	lw	a3,72(sp)
   12c04:	04c12583          	lw	a1,76(sp)
   12c08:	00008537          	lui	a0,0x8
   12c0c:	01d69313          	slli	t1,a3,0x1d
   12c10:	01d59893          	slli	a7,a1,0x1d
   12c14:	00375713          	srli	a4,a4,0x3
   12c18:	01d81813          	slli	a6,a6,0x1d
   12c1c:	00365613          	srli	a2,a2,0x3
   12c20:	0036d693          	srli	a3,a3,0x3
   12c24:	fff50513          	addi	a0,a0,-1 # 7fff <__mdiff+0xfb>
   12c28:	01076733          	or	a4,a4,a6
   12c2c:	00666633          	or	a2,a2,t1
   12c30:	0116e6b3          	or	a3,a3,a7
   12c34:	0035d593          	srli	a1,a1,0x3
   12c38:	36a78863          	beq	a5,a0,12fa8 <__subtf3+0x808>
   12c3c:	01059593          	slli	a1,a1,0x10
   12c40:	0105d593          	srli	a1,a1,0x10
   12c44:	0014f493          	andi	s1,s1,1
   12c48:	01179793          	slli	a5,a5,0x11
   12c4c:	00f49493          	slli	s1,s1,0xf
   12c50:	0117d793          	srli	a5,a5,0x11
   12c54:	00f4e7b3          	or	a5,s1,a5
   12c58:	00b11e23          	sh	a1,28(sp)
   12c5c:	00f11f23          	sh	a5,30(sp)
   12c60:	01c12783          	lw	a5,28(sp)
   12c64:	08c12083          	lw	ra,140(sp)
   12c68:	08812403          	lw	s0,136(sp)
   12c6c:	00e9a023          	sw	a4,0(s3)
   12c70:	00c9a223          	sw	a2,4(s3)
   12c74:	00d9a423          	sw	a3,8(s3)
   12c78:	00f9a623          	sw	a5,12(s3)
   12c7c:	08412483          	lw	s1,132(sp)
   12c80:	08012903          	lw	s2,128(sp)
   12c84:	07812a03          	lw	s4,120(sp)
   12c88:	07412a83          	lw	s5,116(sp)
   12c8c:	07012b03          	lw	s6,112(sp)
   12c90:	06c12b83          	lw	s7,108(sp)
   12c94:	06812c03          	lw	s8,104(sp)
   12c98:	06412c83          	lw	s9,100(sp)
   12c9c:	06012d03          	lw	s10,96(sp)
   12ca0:	05c12d83          	lw	s11,92(sp)
   12ca4:	00098513          	mv	a0,s3
   12ca8:	07c12983          	lw	s3,124(sp)
   12cac:	09010113          	addi	sp,sp,144
   12cb0:	00008067          	ret
   12cb4:	46f05463          	blez	a5,1311c <__subtf3+0x97c>
   12cb8:	1c0a9a63          	bnez	s5,12e8c <__subtf3+0x6ec>
   12cbc:	017a6733          	or	a4,s4,s7
   12cc0:	01676733          	or	a4,a4,s6
   12cc4:	00d76733          	or	a4,a4,a3
   12cc8:	44070063          	beqz	a4,13108 <__subtf3+0x968>
   12ccc:	fff78713          	addi	a4,a5,-1
   12cd0:	32070ee3          	beqz	a4,1380c <__subtf3+0x106c>
   12cd4:	00008637          	lui	a2,0x8
   12cd8:	fff60613          	addi	a2,a2,-1 # 7fff <__mdiff+0xfb>
   12cdc:	42c78663          	beq	a5,a2,13108 <__subtf3+0x968>
   12ce0:	07400793          	li	a5,116
   12ce4:	1ce7c463          	blt	a5,a4,12eac <__subtf3+0x70c>
   12ce8:	00070793          	mv	a5,a4
   12cec:	4057d813          	srai	a6,a5,0x5
   12cf0:	360806e3          	beqz	a6,1385c <__subtf3+0x10bc>
   12cf4:	03010513          	addi	a0,sp,48
   12cf8:	00281613          	slli	a2,a6,0x2
   12cfc:	00050713          	mv	a4,a0
   12d00:	00000413          	li	s0,0
   12d04:	00c50633          	add	a2,a0,a2
   12d08:	00470713          	addi	a4,a4,4
   12d0c:	00d46433          	or	s0,s0,a3
   12d10:	00c70a63          	beq	a4,a2,12d24 <__subtf3+0x584>
   12d14:	00072683          	lw	a3,0(a4)
   12d18:	00470713          	addi	a4,a4,4
   12d1c:	00d46433          	or	s0,s0,a3
   12d20:	fec71ae3          	bne	a4,a2,12d14 <__subtf3+0x574>
   12d24:	00080713          	mv	a4,a6
   12d28:	00300693          	li	a3,3
   12d2c:	01f7f793          	andi	a5,a5,31
   12d30:	410686b3          	sub	a3,a3,a6
   12d34:	3c0798e3          	bnez	a5,13904 <__subtf3+0x1164>
   12d38:	00050793          	mv	a5,a0
   12d3c:	00281593          	slli	a1,a6,0x2
   12d40:	00000713          	li	a4,0
   12d44:	00b78633          	add	a2,a5,a1
   12d48:	00062603          	lw	a2,0(a2)
   12d4c:	00170713          	addi	a4,a4,1
   12d50:	00478793          	addi	a5,a5,4
   12d54:	fec7ae23          	sw	a2,-4(a5)
   12d58:	fee6d6e3          	bge	a3,a4,12d44 <__subtf3+0x5a4>
   12d5c:	00400713          	li	a4,4
   12d60:	41070733          	sub	a4,a4,a6
   12d64:	00400793          	li	a5,4
   12d68:	02f70063          	beq	a4,a5,12d88 <__subtf3+0x5e8>
   12d6c:	00400613          	li	a2,4
   12d70:	40e60633          	sub	a2,a2,a4
   12d74:	00271713          	slli	a4,a4,0x2
   12d78:	00261613          	slli	a2,a2,0x2
   12d7c:	00000593          	li	a1,0
   12d80:	00e50533          	add	a0,a0,a4
   12d84:	dd4f40ef          	jal	ra,7358 <memset>
   12d88:	03012583          	lw	a1,48(sp)
   12d8c:	00803733          	snez	a4,s0
   12d90:	03412683          	lw	a3,52(sp)
   12d94:	03812783          	lw	a5,56(sp)
   12d98:	03c12603          	lw	a2,60(sp)
   12d9c:	00b76733          	or	a4,a4,a1
   12da0:	11c0006f          	j	12ebc <__subtf3+0x71c>
   12da4:	000085b7          	lui	a1,0x8
   12da8:	001d0713          	addi	a4,s10,1
   12dac:	ffe58613          	addi	a2,a1,-2 # 7ffe <__mdiff+0xfa>
   12db0:	00c77733          	and	a4,a4,a2
   12db4:	68071463          	bnez	a4,1343c <__subtf3+0xc9c>
   12db8:	017a6633          	or	a2,s4,s7
   12dbc:	01b96733          	or	a4,s2,s11
   12dc0:	01666633          	or	a2,a2,s6
   12dc4:	01876733          	or	a4,a4,s8
   12dc8:	00d66633          	or	a2,a2,a3
   12dcc:	01976733          	or	a4,a4,s9
   12dd0:	200d1ae3          	bnez	s10,137e4 <__subtf3+0x1044>
   12dd4:	4e0708e3          	beqz	a4,13ac4 <__subtf3+0x1324>
   12dd8:	32060863          	beqz	a2,13108 <__subtf3+0x968>
   12ddc:	40dc8733          	sub	a4,s9,a3
   12de0:	417d8633          	sub	a2,s11,s7
   12de4:	41490533          	sub	a0,s2,s4
   12de8:	00ecb5b3          	sltu	a1,s9,a4
   12dec:	00cdb333          	sltu	t1,s11,a2
   12df0:	00a93833          	sltu	a6,s2,a0
   12df4:	40b505b3          	sub	a1,a0,a1
   12df8:	00030893          	mv	a7,t1
   12dfc:	00ecf463          	bgeu	s9,a4,12e04 <__subtf3+0x664>
   12e00:	69490ae3          	beq	s2,s4,13c94 <__subtf3+0x14f4>
   12e04:	41060833          	sub	a6,a2,a6
   12e08:	68a968e3          	bltu	s2,a0,13c98 <__subtf3+0x14f8>
   12e0c:	416c0533          	sub	a0,s8,s6
   12e10:	41150533          	sub	a0,a0,a7
   12e14:	000808b7          	lui	a7,0x80
   12e18:	04a12623          	sw	a0,76(sp)
   12e1c:	05012423          	sw	a6,72(sp)
   12e20:	04b12223          	sw	a1,68(sp)
   12e24:	04e12023          	sw	a4,64(sp)
   12e28:	011578b3          	and	a7,a0,a7
   12e2c:	640880e3          	beqz	a7,13c6c <__subtf3+0x14cc>
   12e30:	41968733          	sub	a4,a3,s9
   12e34:	41bb8db3          	sub	s11,s7,s11
   12e38:	412a0533          	sub	a0,s4,s2
   12e3c:	00e6b5b3          	sltu	a1,a3,a4
   12e40:	01bbbbb3          	sltu	s7,s7,s11
   12e44:	00aa3833          	sltu	a6,s4,a0
   12e48:	40b505b3          	sub	a1,a0,a1
   12e4c:	000b8793          	mv	a5,s7
   12e50:	00e6f463          	bgeu	a3,a4,12e58 <__subtf3+0x6b8>
   12e54:	6d4908e3          	beq	s2,s4,13d24 <__subtf3+0x1584>
   12e58:	410d8db3          	sub	s11,s11,a6
   12e5c:	6caa66e3          	bltu	s4,a0,13d28 <__subtf3+0x1588>
   12e60:	418b0c33          	sub	s8,s6,s8
   12e64:	40fc0c33          	sub	s8,s8,a5
   12e68:	05812623          	sw	s8,76(sp)
   12e6c:	05b12423          	sw	s11,72(sp)
   12e70:	04b12223          	sw	a1,68(sp)
   12e74:	04e12023          	sw	a4,64(sp)
   12e78:	00777693          	andi	a3,a4,7
   12e7c:	00000793          	li	a5,0
   12e80:	00040493          	mv	s1,s0
   12e84:	d00692e3          	bnez	a3,12b88 <__subtf3+0x3e8>
   12e88:	d41ff06f          	j	12bc8 <__subtf3+0x428>
   12e8c:	00008737          	lui	a4,0x8
   12e90:	fff70713          	addi	a4,a4,-1 # 7fff <__mdiff+0xfb>
   12e94:	62ed0263          	beq	s10,a4,134b8 <__subtf3+0xd18>
   12e98:	00080737          	lui	a4,0x80
   12e9c:	00eb6b33          	or	s6,s6,a4
   12ea0:	03612e23          	sw	s6,60(sp)
   12ea4:	07400713          	li	a4,116
   12ea8:	e4f752e3          	bge	a4,a5,12cec <__subtf3+0x54c>
   12eac:	00000613          	li	a2,0
   12eb0:	00000793          	li	a5,0
   12eb4:	00000693          	li	a3,0
   12eb8:	00100713          	li	a4,1
   12ebc:	00ec8733          	add	a4,s9,a4
   12ec0:	00d906b3          	add	a3,s2,a3
   12ec4:	01973cb3          	sltu	s9,a4,s9
   12ec8:	019685b3          	add	a1,a3,s9
   12ecc:	0126b933          	sltu	s2,a3,s2
   12ed0:	0195bcb3          	sltu	s9,a1,s9
   12ed4:	01996933          	or	s2,s2,s9
   12ed8:	00fd87b3          	add	a5,s11,a5
   12edc:	012786b3          	add	a3,a5,s2
   12ee0:	01b7bb33          	sltu	s6,a5,s11
   12ee4:	0126b933          	sltu	s2,a3,s2
   12ee8:	012b6b33          	or	s6,s6,s2
   12eec:	00cc0c33          	add	s8,s8,a2
   12ef0:	018b0b33          	add	s6,s6,s8
   12ef4:	04e12023          	sw	a4,64(sp)
   12ef8:	04b12223          	sw	a1,68(sp)
   12efc:	04d12423          	sw	a3,72(sp)
   12f00:	05612623          	sw	s6,76(sp)
   12f04:	000807b7          	lui	a5,0x80
   12f08:	00fb77b3          	and	a5,s6,a5
   12f0c:	c60786e3          	beqz	a5,12b78 <__subtf3+0x3d8>
   12f10:	fff807b7          	lui	a5,0xfff80
   12f14:	fff78793          	addi	a5,a5,-1 # fff7ffff <_stack+0xfff3ffff>
   12f18:	00fb7b33          	and	s6,s6,a5
   12f1c:	04010693          	addi	a3,sp,64
   12f20:	05612623          	sw	s6,76(sp)
   12f24:	0046a603          	lw	a2,4(a3)
   12f28:	00175593          	srli	a1,a4,0x1
   12f2c:	01f71513          	slli	a0,a4,0x1f
   12f30:	01f61713          	slli	a4,a2,0x1f
   12f34:	00468693          	addi	a3,a3,4
   12f38:	00b76733          	or	a4,a4,a1
   12f3c:	04c10813          	addi	a6,sp,76
   12f40:	fee6ae23          	sw	a4,-4(a3)
   12f44:	001d0793          	addi	a5,s10,1
   12f48:	02d80263          	beq	a6,a3,12f6c <__subtf3+0x7cc>
   12f4c:	0006a703          	lw	a4,0(a3)
   12f50:	0046a603          	lw	a2,4(a3)
   12f54:	00468693          	addi	a3,a3,4
   12f58:	00175593          	srli	a1,a4,0x1
   12f5c:	01f61713          	slli	a4,a2,0x1f
   12f60:	00b76733          	or	a4,a4,a1
   12f64:	fee6ae23          	sw	a4,-4(a3)
   12f68:	fed812e3          	bne	a6,a3,12f4c <__subtf3+0x7ac>
   12f6c:	04012683          	lw	a3,64(sp)
   12f70:	04c12c03          	lw	s8,76(sp)
   12f74:	00a03733          	snez	a4,a0
   12f78:	00d76733          	or	a4,a4,a3
   12f7c:	001c5c13          	srli	s8,s8,0x1
   12f80:	000086b7          	lui	a3,0x8
   12f84:	05812623          	sw	s8,76(sp)
   12f88:	04e12023          	sw	a4,64(sp)
   12f8c:	fff68693          	addi	a3,a3,-1 # 7fff <__mdiff+0xfb>
   12f90:	2ed79663          	bne	a5,a3,1327c <__subtf3+0xadc>
   12f94:	04012623          	sw	zero,76(sp)
   12f98:	04012423          	sw	zero,72(sp)
   12f9c:	04012223          	sw	zero,68(sp)
   12fa0:	04012023          	sw	zero,64(sp)
   12fa4:	c51ff06f          	j	12bf4 <__subtf3+0x454>
   12fa8:	00c76733          	or	a4,a4,a2
   12fac:	00d76733          	or	a4,a4,a3
   12fb0:	00b76733          	or	a4,a4,a1
   12fb4:	12071e63          	bnez	a4,130f0 <__subtf3+0x950>
   12fb8:	0014f493          	andi	s1,s1,1
   12fbc:	00000693          	li	a3,0
   12fc0:	00000613          	li	a2,0
   12fc4:	00000593          	li	a1,0
   12fc8:	c81ff06f          	j	12c48 <__subtf3+0x4a8>
   12fcc:	fff50513          	addi	a0,a0,-1
   12fd0:	00ac7533          	and	a0,s8,a0
   12fd4:	04a12623          	sw	a0,76(sp)
   12fd8:	26050a63          	beqz	a0,1324c <__subtf3+0xaac>
   12fdc:	51c010ef          	jal	ra,144f8 <__clzsi2>
   12fe0:	ff450413          	addi	s0,a0,-12
   12fe4:	41f45513          	srai	a0,s0,0x1f
   12fe8:	01f57793          	andi	a5,a0,31
   12fec:	008787b3          	add	a5,a5,s0
   12ff0:	01f47713          	andi	a4,s0,31
   12ff4:	4057d793          	srai	a5,a5,0x5
   12ff8:	2a071263          	bnez	a4,1329c <__subtf3+0xafc>
   12ffc:	40f00733          	neg	a4,a5
   13000:	00271713          	slli	a4,a4,0x2
   13004:	04010813          	addi	a6,sp,64
   13008:	00c70713          	addi	a4,a4,12 # 8000c <_stack+0x4000c>
   1300c:	00e80733          	add	a4,a6,a4
   13010:	00279513          	slli	a0,a5,0x2
   13014:	00072583          	lw	a1,0(a4)
   13018:	00a70633          	add	a2,a4,a0
   1301c:	00070693          	mv	a3,a4
   13020:	00b62023          	sw	a1,0(a2)
   13024:	ffc70713          	addi	a4,a4,-4
   13028:	ff0696e3          	bne	a3,a6,13014 <__subtf3+0x874>
   1302c:	fff78793          	addi	a5,a5,-1
   13030:	fff00713          	li	a4,-1
   13034:	00e78e63          	beq	a5,a4,13050 <__subtf3+0x8b0>
   13038:	00178793          	addi	a5,a5,1
   1303c:	00080513          	mv	a0,a6
   13040:	00279613          	slli	a2,a5,0x2
   13044:	00000593          	li	a1,0
   13048:	b10f40ef          	jal	ra,7358 <memset>
   1304c:	00050813          	mv	a6,a0
   13050:	21a44863          	blt	s0,s10,13260 <__subtf3+0xac0>
   13054:	41a407b3          	sub	a5,s0,s10
   13058:	00178793          	addi	a5,a5,1
   1305c:	41f7d513          	srai	a0,a5,0x1f
   13060:	01f57693          	andi	a3,a0,31
   13064:	00f686b3          	add	a3,a3,a5
   13068:	01f00713          	li	a4,31
   1306c:	4056d693          	srai	a3,a3,0x5
   13070:	08f754e3          	bge	a4,a5,138f8 <__subtf3+0x1158>
   13074:	00080593          	mv	a1,a6
   13078:	00000413          	li	s0,0
   1307c:	00000613          	li	a2,0
   13080:	0005a703          	lw	a4,0(a1)
   13084:	00160613          	addi	a2,a2,1
   13088:	00458593          	addi	a1,a1,4
   1308c:	00e46433          	or	s0,s0,a4
   13090:	fed648e3          	blt	a2,a3,13080 <__subtf3+0x8e0>
   13094:	00068613          	mv	a2,a3
   13098:	64d05663          	blez	a3,136e4 <__subtf3+0xf44>
   1309c:	00300893          	li	a7,3
   130a0:	01f7f713          	andi	a4,a5,31
   130a4:	40d888b3          	sub	a7,a7,a3
   130a8:	42071463          	bnez	a4,134d0 <__subtf3+0xd30>
   130ac:	00080793          	mv	a5,a6
   130b0:	00269593          	slli	a1,a3,0x2
   130b4:	00b78633          	add	a2,a5,a1
   130b8:	00062603          	lw	a2,0(a2)
   130bc:	00170713          	addi	a4,a4,1
   130c0:	00478793          	addi	a5,a5,4
   130c4:	fec7ae23          	sw	a2,-4(a5)
   130c8:	fee8d6e3          	bge	a7,a4,130b4 <__subtf3+0x914>
   130cc:	00400793          	li	a5,4
   130d0:	40d786b3          	sub	a3,a5,a3
   130d4:	4900006f          	j	13564 <__subtf3+0xdc4>
   130d8:	04012623          	sw	zero,76(sp)
   130dc:	04012423          	sw	zero,72(sp)
   130e0:	00000813          	li	a6,0
   130e4:	00000713          	li	a4,0
   130e8:	00000613          	li	a2,0
   130ec:	b15ff06f          	j	12c00 <__subtf3+0x460>
   130f0:	00000493          	li	s1,0
   130f4:	000085b7          	lui	a1,0x8
   130f8:	00000693          	li	a3,0
   130fc:	00000613          	li	a2,0
   13100:	00000713          	li	a4,0
   13104:	b45ff06f          	j	12c48 <__subtf3+0x4a8>
   13108:	05912023          	sw	s9,64(sp)
   1310c:	05212223          	sw	s2,68(sp)
   13110:	05b12423          	sw	s11,72(sp)
   13114:	05812623          	sw	s8,76(sp)
   13118:	ab1ff06f          	j	12bc8 <__subtf3+0x428>
   1311c:	1e078e63          	beqz	a5,13318 <__subtf3+0xb78>
   13120:	41aa87b3          	sub	a5,s5,s10
   13124:	540d1863          	bnez	s10,13674 <__subtf3+0xed4>
   13128:	01b96733          	or	a4,s2,s11
   1312c:	01876733          	or	a4,a4,s8
   13130:	01976733          	or	a4,a4,s9
   13134:	040706e3          	beqz	a4,13980 <__subtf3+0x11e0>
   13138:	fff78713          	addi	a4,a5,-1
   1313c:	2e0704e3          	beqz	a4,13c24 <__subtf3+0x1484>
   13140:	00008637          	lui	a2,0x8
   13144:	fff60613          	addi	a2,a2,-1 # 7fff <__mdiff+0xfb>
   13148:	02c78ce3          	beq	a5,a2,13980 <__subtf3+0x11e0>
   1314c:	07400793          	li	a5,116
   13150:	54e7c263          	blt	a5,a4,13694 <__subtf3+0xef4>
   13154:	00070793          	mv	a5,a4
   13158:	41f7d893          	srai	a7,a5,0x1f
   1315c:	01f8f713          	andi	a4,a7,31
   13160:	00f70733          	add	a4,a4,a5
   13164:	01f00613          	li	a2,31
   13168:	40575713          	srai	a4,a4,0x5
   1316c:	36f658e3          	bge	a2,a5,13cdc <__subtf3+0x153c>
   13170:	02010513          	addi	a0,sp,32
   13174:	00000613          	li	a2,0
   13178:	00050593          	mv	a1,a0
   1317c:	00000413          	li	s0,0
   13180:	00160613          	addi	a2,a2,1
   13184:	01946433          	or	s0,s0,s9
   13188:	00458593          	addi	a1,a1,4 # 8004 <__mdiff+0x100>
   1318c:	00e65c63          	bge	a2,a4,131a4 <__subtf3+0xa04>
   13190:	0005ac83          	lw	s9,0(a1)
   13194:	00160613          	addi	a2,a2,1
   13198:	00458593          	addi	a1,a1,4
   1319c:	01946433          	or	s0,s0,s9
   131a0:	fee648e3          	blt	a2,a4,13190 <__subtf3+0x9f0>
   131a4:	00070593          	mv	a1,a4
   131a8:	00e04463          	bgtz	a4,131b0 <__subtf3+0xa10>
   131ac:	00100593          	li	a1,1
   131b0:	00300813          	li	a6,3
   131b4:	01f7f613          	andi	a2,a5,31
   131b8:	40e80833          	sub	a6,a6,a4
   131bc:	1a0614e3          	bnez	a2,13b64 <__subtf3+0x13c4>
   131c0:	00050793          	mv	a5,a0
   131c4:	00271893          	slli	a7,a4,0x2
   131c8:	011785b3          	add	a1,a5,a7
   131cc:	0005a583          	lw	a1,0(a1)
   131d0:	00160613          	addi	a2,a2,1
   131d4:	00478793          	addi	a5,a5,4
   131d8:	feb7ae23          	sw	a1,-4(a5)
   131dc:	fec856e3          	bge	a6,a2,131c8 <__subtf3+0xa28>
   131e0:	00400793          	li	a5,4
   131e4:	40e78733          	sub	a4,a5,a4
   131e8:	00300793          	li	a5,3
   131ec:	02e7c463          	blt	a5,a4,13214 <__subtf3+0xa74>
   131f0:	00400613          	li	a2,4
   131f4:	40e60633          	sub	a2,a2,a4
   131f8:	00271713          	slli	a4,a4,0x2
   131fc:	00261613          	slli	a2,a2,0x2
   13200:	00000593          	li	a1,0
   13204:	00e50533          	add	a0,a0,a4
   13208:	00d12623          	sw	a3,12(sp)
   1320c:	94cf40ef          	jal	ra,7358 <memset>
   13210:	00c12683          	lw	a3,12(sp)
   13214:	02012783          	lw	a5,32(sp)
   13218:	00803733          	snez	a4,s0
   1321c:	02412603          	lw	a2,36(sp)
   13220:	02c12583          	lw	a1,44(sp)
   13224:	00f76733          	or	a4,a4,a5
   13228:	02812783          	lw	a5,40(sp)
   1322c:	00ca0633          	add	a2,s4,a2
   13230:	00bb0b33          	add	s6,s6,a1
   13234:	00fb87b3          	add	a5,s7,a5
   13238:	4680006f          	j	136a0 <__subtf3+0xf00>
   1323c:	04412603          	lw	a2,68(sp)
   13240:	000d0793          	mv	a5,s10
   13244:	00060813          	mv	a6,a2
   13248:	9b9ff06f          	j	12c00 <__subtf3+0x460>
   1324c:	04812503          	lw	a0,72(sp)
   13250:	34050e63          	beqz	a0,135ac <__subtf3+0xe0c>
   13254:	2a4010ef          	jal	ra,144f8 <__clzsi2>
   13258:	02050513          	addi	a0,a0,32
   1325c:	d85ff06f          	j	12fe0 <__subtf3+0x840>
   13260:	04c12c03          	lw	s8,76(sp)
   13264:	fff807b7          	lui	a5,0xfff80
   13268:	fff78793          	addi	a5,a5,-1 # fff7ffff <_stack+0xfff3ffff>
   1326c:	04012703          	lw	a4,64(sp)
   13270:	00fc7c33          	and	s8,s8,a5
   13274:	05812623          	sw	s8,76(sp)
   13278:	408d07b3          	sub	a5,s10,s0
   1327c:	00777693          	andi	a3,a4,7
   13280:	900694e3          	bnez	a3,12b88 <__subtf3+0x3e8>
   13284:	945ff06f          	j	12bc8 <__subtf3+0x428>
   13288:	fff70713          	addi	a4,a4,-1
   1328c:	40dd8b33          	sub	s6,s11,a3
   13290:	001b3b13          	seqz	s6,s6
   13294:	01656b33          	or	s6,a0,s6
   13298:	8bdff06f          	j	12b54 <__subtf3+0x3b4>
   1329c:	01b55713          	srli	a4,a0,0x1b
   132a0:	00e40533          	add	a0,s0,a4
   132a4:	01f57513          	andi	a0,a0,31
   132a8:	40e50533          	sub	a0,a0,a4
   132ac:	04010813          	addi	a6,sp,64
   132b0:	00279713          	slli	a4,a5,0x2
   132b4:	02000313          	li	t1,32
   132b8:	40a30333          	sub	t1,t1,a0
   132bc:	40e80733          	sub	a4,a6,a4
   132c0:	00279e13          	slli	t3,a5,0x2
   132c4:	00300593          	li	a1,3
   132c8:	00c72683          	lw	a3,12(a4)
   132cc:	00872603          	lw	a2,8(a4)
   132d0:	01c708b3          	add	a7,a4,t3
   132d4:	00a696b3          	sll	a3,a3,a0
   132d8:	00665633          	srl	a2,a2,t1
   132dc:	00c6e6b3          	or	a3,a3,a2
   132e0:	00d8a623          	sw	a3,12(a7) # 8000c <_stack+0x4000c>
   132e4:	fff58593          	addi	a1,a1,-1
   132e8:	ffc70713          	addi	a4,a4,-4
   132ec:	fcb7cee3          	blt	a5,a1,132c8 <__subtf3+0xb28>
   132f0:	00200713          	li	a4,2
   132f4:	36f74c63          	blt	a4,a5,1366c <__subtf3+0xecc>
   132f8:	00279713          	slli	a4,a5,0x2
   132fc:	05010693          	addi	a3,sp,80
   13300:	00e68733          	add	a4,a3,a4
   13304:	04012683          	lw	a3,64(sp)
   13308:	fff78793          	addi	a5,a5,-1
   1330c:	00a69533          	sll	a0,a3,a0
   13310:	fea72823          	sw	a0,-16(a4)
   13314:	d1dff06f          	j	13030 <__subtf3+0x890>
   13318:	00008637          	lui	a2,0x8
   1331c:	001d0793          	addi	a5,s10,1
   13320:	ffe60713          	addi	a4,a2,-2 # 7ffe <__mdiff+0xfa>
   13324:	00e7f733          	and	a4,a5,a4
   13328:	3c071863          	bnez	a4,136f8 <__subtf3+0xf58>
   1332c:	01b967b3          	or	a5,s2,s11
   13330:	0187e7b3          	or	a5,a5,s8
   13334:	0197e7b3          	or	a5,a5,s9
   13338:	700d1c63          	bnez	s10,13a50 <__subtf3+0x12b0>
   1333c:	64078263          	beqz	a5,13980 <__subtf3+0x11e0>
   13340:	017a67b3          	or	a5,s4,s7
   13344:	00d7e7b3          	or	a5,a5,a3
   13348:	0167e7b3          	or	a5,a5,s6
   1334c:	da078ee3          	beqz	a5,13108 <__subtf3+0x968>
   13350:	00dc8733          	add	a4,s9,a3
   13354:	01973cb3          	sltu	s9,a4,s9
   13358:	01490a33          	add	s4,s2,s4
   1335c:	019a05b3          	add	a1,s4,s9
   13360:	0195bcb3          	sltu	s9,a1,s9
   13364:	012a3a33          	sltu	s4,s4,s2
   13368:	019a66b3          	or	a3,s4,s9
   1336c:	017d8bb3          	add	s7,s11,s7
   13370:	00db8633          	add	a2,s7,a3
   13374:	00d636b3          	sltu	a3,a2,a3
   13378:	01bbb7b3          	sltu	a5,s7,s11
   1337c:	00d7e7b3          	or	a5,a5,a3
   13380:	016c0c33          	add	s8,s8,s6
   13384:	018787b3          	add	a5,a5,s8
   13388:	04c12423          	sw	a2,72(sp)
   1338c:	00080637          	lui	a2,0x80
   13390:	04e12023          	sw	a4,64(sp)
   13394:	04b12223          	sw	a1,68(sp)
   13398:	00c7f633          	and	a2,a5,a2
   1339c:	00777693          	andi	a3,a4,7
   133a0:	12060ae3          	beqz	a2,13cd4 <__subtf3+0x1534>
   133a4:	fff80c37          	lui	s8,0xfff80
   133a8:	fffc0c13          	addi	s8,s8,-1 # fff7ffff <_stack+0xfff3ffff>
   133ac:	0187fc33          	and	s8,a5,s8
   133b0:	05812623          	sw	s8,76(sp)
   133b4:	00100793          	li	a5,1
   133b8:	fc069863          	bnez	a3,12b88 <__subtf3+0x3e8>
   133bc:	80dff06f          	j	12bc8 <__subtf3+0x428>
   133c0:	00008737          	lui	a4,0x8
   133c4:	fff70713          	addi	a4,a4,-1 # 7fff <__mdiff+0xfb>
   133c8:	70ea8e63          	beq	s5,a4,13ae4 <__subtf3+0x1344>
   133cc:	00080737          	lui	a4,0x80
   133d0:	00ec6c33          	or	s8,s8,a4
   133d4:	03812623          	sw	s8,44(sp)
   133d8:	07400713          	li	a4,116
   133dc:	e0f75e63          	bge	a4,a5,129f8 <__subtf3+0x258>
   133e0:	000b8713          	mv	a4,s7
   133e4:	000a0513          	mv	a0,s4
   133e8:	00000613          	li	a2,0
   133ec:	00000893          	li	a7,0
   133f0:	00100793          	li	a5,1
   133f4:	40f687b3          	sub	a5,a3,a5
   133f8:	00f6b5b3          	sltu	a1,a3,a5
   133fc:	00ebb833          	sltu	a6,s7,a4
   13400:	00aa3333          	sltu	t1,s4,a0
   13404:	40b505b3          	sub	a1,a0,a1
   13408:	00080c13          	mv	s8,a6
   1340c:	00f6f463          	bgeu	a3,a5,13414 <__subtf3+0xc74>
   13410:	4d1a0a63          	beq	s4,a7,138e4 <__subtf3+0x1144>
   13414:	40670733          	sub	a4,a4,t1
   13418:	4caa6863          	bltu	s4,a0,138e8 <__subtf3+0x1148>
   1341c:	418b0c33          	sub	s8,s6,s8
   13420:	05812623          	sw	s8,76(sp)
   13424:	04e12423          	sw	a4,72(sp)
   13428:	04b12223          	sw	a1,68(sp)
   1342c:	04f12023          	sw	a5,64(sp)
   13430:	000a8d13          	mv	s10,s5
   13434:	00040493          	mv	s1,s0
   13438:	f30ff06f          	j	12b68 <__subtf3+0x3c8>
   1343c:	40dc8733          	sub	a4,s9,a3
   13440:	417d8633          	sub	a2,s11,s7
   13444:	414908b3          	sub	a7,s2,s4
   13448:	00ecb5b3          	sltu	a1,s9,a4
   1344c:	00cdbe33          	sltu	t3,s11,a2
   13450:	01193833          	sltu	a6,s2,a7
   13454:	40b885b3          	sub	a1,a7,a1
   13458:	000e0313          	mv	t1,t3
   1345c:	04ecf863          	bgeu	s9,a4,134ac <__subtf3+0xd0c>
   13460:	05491663          	bne	s2,s4,134ac <__subtf3+0xd0c>
   13464:	fff60813          	addi	a6,a2,-1 # 7ffff <_stack+0x3ffff>
   13468:	00163513          	seqz	a0,a2
   1346c:	00ae6333          	or	t1,t3,a0
   13470:	416c0533          	sub	a0,s8,s6
   13474:	40650533          	sub	a0,a0,t1
   13478:	000808b7          	lui	a7,0x80
   1347c:	04a12623          	sw	a0,76(sp)
   13480:	05012423          	sw	a6,72(sp)
   13484:	04b12223          	sw	a1,68(sp)
   13488:	04e12023          	sw	a4,64(sp)
   1348c:	011578b3          	and	a7,a0,a7
   13490:	30089263          	bnez	a7,13794 <__subtf3+0xff4>
   13494:	00b76733          	or	a4,a4,a1
   13498:	01076733          	or	a4,a4,a6
   1349c:	00a76733          	or	a4,a4,a0
   134a0:	b2071ce3          	bnez	a4,12fd8 <__subtf3+0x838>
   134a4:	00000493          	li	s1,0
   134a8:	f4cff06f          	j	12bf4 <__subtf3+0x454>
   134ac:	41060833          	sub	a6,a2,a6
   134b0:	fd1970e3          	bgeu	s2,a7,13470 <__subtf3+0xcd0>
   134b4:	fb5ff06f          	j	13468 <__subtf3+0xcc8>
   134b8:	05912023          	sw	s9,64(sp)
   134bc:	05212223          	sw	s2,68(sp)
   134c0:	05b12423          	sw	s11,72(sp)
   134c4:	05812623          	sw	s8,76(sp)
   134c8:	000d0793          	mv	a5,s10
   134cc:	efcff06f          	j	12bc8 <__subtf3+0x428>
   134d0:	01b55513          	srli	a0,a0,0x1b
   134d4:	00a785b3          	add	a1,a5,a0
   134d8:	00261613          	slli	a2,a2,0x2
   134dc:	05010793          	addi	a5,sp,80
   134e0:	00c787b3          	add	a5,a5,a2
   134e4:	ff07a783          	lw	a5,-16(a5)
   134e8:	01f5f593          	andi	a1,a1,31
   134ec:	40a585b3          	sub	a1,a1,a0
   134f0:	02000e13          	li	t3,32
   134f4:	40be0e33          	sub	t3,t3,a1
   134f8:	01c797b3          	sll	a5,a5,t3
   134fc:	00f46433          	or	s0,s0,a5
   13500:	38088063          	beqz	a7,13880 <__subtf3+0x10e0>
   13504:	00d88733          	add	a4,a7,a3
   13508:	00269793          	slli	a5,a3,0x2
   1350c:	00271713          	slli	a4,a4,0x2
   13510:	40d00eb3          	neg	t4,a3
   13514:	00f807b3          	add	a5,a6,a5
   13518:	00e80733          	add	a4,a6,a4
   1351c:	002e9e93          	slli	t4,t4,0x2
   13520:	0007a603          	lw	a2,0(a5)
   13524:	0047a503          	lw	a0,4(a5)
   13528:	01d78333          	add	t1,a5,t4
   1352c:	00b65633          	srl	a2,a2,a1
   13530:	01c51533          	sll	a0,a0,t3
   13534:	00a66633          	or	a2,a2,a0
   13538:	00c32023          	sw	a2,0(t1)
   1353c:	00478793          	addi	a5,a5,4
   13540:	fee790e3          	bne	a5,a4,13520 <__subtf3+0xd80>
   13544:	05010713          	addi	a4,sp,80
   13548:	00289793          	slli	a5,a7,0x2
   1354c:	00f707b3          	add	a5,a4,a5
   13550:	04c12703          	lw	a4,76(sp)
   13554:	00b755b3          	srl	a1,a4,a1
   13558:	00400713          	li	a4,4
   1355c:	40d706b3          	sub	a3,a4,a3
   13560:	feb7a823          	sw	a1,-16(a5)
   13564:	00300793          	li	a5,3
   13568:	02d7c063          	blt	a5,a3,13588 <__subtf3+0xde8>
   1356c:	00400613          	li	a2,4
   13570:	40d60633          	sub	a2,a2,a3
   13574:	00269693          	slli	a3,a3,0x2
   13578:	00261613          	slli	a2,a2,0x2
   1357c:	00000593          	li	a1,0
   13580:	00d80533          	add	a0,a6,a3
   13584:	dd5f30ef          	jal	ra,7358 <memset>
   13588:	04012783          	lw	a5,64(sp)
   1358c:	00803733          	snez	a4,s0
   13590:	04c12c03          	lw	s8,76(sp)
   13594:	00f76733          	or	a4,a4,a5
   13598:	04e12023          	sw	a4,64(sp)
   1359c:	00777693          	andi	a3,a4,7
   135a0:	00000793          	li	a5,0
   135a4:	de069263          	bnez	a3,12b88 <__subtf3+0x3e8>
   135a8:	e20ff06f          	j	12bc8 <__subtf3+0x428>
   135ac:	04412503          	lw	a0,68(sp)
   135b0:	12051e63          	bnez	a0,136ec <__subtf3+0xf4c>
   135b4:	04012503          	lw	a0,64(sp)
   135b8:	741000ef          	jal	ra,144f8 <__clzsi2>
   135bc:	05450413          	addi	s0,a0,84
   135c0:	01f47693          	andi	a3,s0,31
   135c4:	40545793          	srai	a5,s0,0x5
   135c8:	a2068ae3          	beqz	a3,12ffc <__subtf3+0x85c>
   135cc:	05f00713          	li	a4,95
   135d0:	00068513          	mv	a0,a3
   135d4:	cc875ce3          	bge	a4,s0,132ac <__subtf3+0xb0c>
   135d8:	04012703          	lw	a4,64(sp)
   135dc:	00200793          	li	a5,2
   135e0:	04010813          	addi	a6,sp,64
   135e4:	00d71733          	sll	a4,a4,a3
   135e8:	04e12623          	sw	a4,76(sp)
   135ec:	a4dff06f          	j	13038 <__subtf3+0x898>
   135f0:	00271713          	slli	a4,a4,0x2
   135f4:	05010613          	addi	a2,sp,80
   135f8:	00e60733          	add	a4,a2,a4
   135fc:	fe072703          	lw	a4,-32(a4) # 7ffe0 <_stack+0x3ffe0>
   13600:	02000313          	li	t1,32
   13604:	40f30333          	sub	t1,t1,a5
   13608:	00671733          	sll	a4,a4,t1
   1360c:	00e46433          	or	s0,s0,a4
   13610:	24068e63          	beqz	a3,1386c <__subtf3+0x10cc>
   13614:	00281613          	slli	a2,a6,0x2
   13618:	00269593          	slli	a1,a3,0x2
   1361c:	00c50633          	add	a2,a0,a2
   13620:	00050713          	mv	a4,a0
   13624:	00b50e33          	add	t3,a0,a1
   13628:	00062683          	lw	a3,0(a2)
   1362c:	00462883          	lw	a7,4(a2)
   13630:	00470713          	addi	a4,a4,4
   13634:	00f6d6b3          	srl	a3,a3,a5
   13638:	006898b3          	sll	a7,a7,t1
   1363c:	0116e6b3          	or	a3,a3,a7
   13640:	fed72e23          	sw	a3,-4(a4)
   13644:	00460613          	addi	a2,a2,4
   13648:	feee10e3          	bne	t3,a4,13628 <__subtf3+0xe88>
   1364c:	05010713          	addi	a4,sp,80
   13650:	00b706b3          	add	a3,a4,a1
   13654:	03c12703          	lw	a4,60(sp)
   13658:	00f757b3          	srl	a5,a4,a5
   1365c:	00400713          	li	a4,4
   13660:	41070733          	sub	a4,a4,a6
   13664:	fef6a023          	sw	a5,-32(a3)
   13668:	b08ff06f          	j	12970 <__subtf3+0x1d0>
   1366c:	00200793          	li	a5,2
   13670:	c89ff06f          	j	132f8 <__subtf3+0xb58>
   13674:	00008737          	lui	a4,0x8
   13678:	fff70713          	addi	a4,a4,-1 # 7fff <__mdiff+0xfb>
   1367c:	62ea8463          	beq	s5,a4,13ca4 <__subtf3+0x1504>
   13680:	00080737          	lui	a4,0x80
   13684:	00ec6c33          	or	s8,s8,a4
   13688:	03812623          	sw	s8,44(sp)
   1368c:	07400713          	li	a4,116
   13690:	acf754e3          	bge	a4,a5,13158 <__subtf3+0x9b8>
   13694:	000b8793          	mv	a5,s7
   13698:	000a0613          	mv	a2,s4
   1369c:	00100713          	li	a4,1
   136a0:	00e68733          	add	a4,a3,a4
   136a4:	00d736b3          	sltu	a3,a4,a3
   136a8:	00c685b3          	add	a1,a3,a2
   136ac:	00d5b6b3          	sltu	a3,a1,a3
   136b0:	01463633          	sltu	a2,a2,s4
   136b4:	00d666b3          	or	a3,a2,a3
   136b8:	00f68633          	add	a2,a3,a5
   136bc:	00d636b3          	sltu	a3,a2,a3
   136c0:	0177b7b3          	sltu	a5,a5,s7
   136c4:	00d7e7b3          	or	a5,a5,a3
   136c8:	01678b33          	add	s6,a5,s6
   136cc:	04e12023          	sw	a4,64(sp)
   136d0:	04b12223          	sw	a1,68(sp)
   136d4:	04c12423          	sw	a2,72(sp)
   136d8:	05612623          	sw	s6,76(sp)
   136dc:	000a8d13          	mv	s10,s5
   136e0:	825ff06f          	j	12f04 <__subtf3+0x764>
   136e4:	00100613          	li	a2,1
   136e8:	9b5ff06f          	j	1309c <__subtf3+0x8fc>
   136ec:	60d000ef          	jal	ra,144f8 <__clzsi2>
   136f0:	04050513          	addi	a0,a0,64
   136f4:	8edff06f          	j	12fe0 <__subtf3+0x840>
   136f8:	00dc86b3          	add	a3,s9,a3
   136fc:	0196bcb3          	sltu	s9,a3,s9
   13700:	01490a33          	add	s4,s2,s4
   13704:	019a0533          	add	a0,s4,s9
   13708:	01953cb3          	sltu	s9,a0,s9
   1370c:	012a3a33          	sltu	s4,s4,s2
   13710:	019a6733          	or	a4,s4,s9
   13714:	017d8bb3          	add	s7,s11,s7
   13718:	00eb85b3          	add	a1,s7,a4
   1371c:	00e5b733          	sltu	a4,a1,a4
   13720:	01bbbbb3          	sltu	s7,s7,s11
   13724:	016c0b33          	add	s6,s8,s6
   13728:	00ebec33          	or	s8,s7,a4
   1372c:	016c0c33          	add	s8,s8,s6
   13730:	01f51893          	slli	a7,a0,0x1f
   13734:	0016d713          	srli	a4,a3,0x1
   13738:	01f59813          	slli	a6,a1,0x1f
   1373c:	0015d693          	srli	a3,a1,0x1
   13740:	00155513          	srli	a0,a0,0x1
   13744:	01fc1593          	slli	a1,s8,0x1f
   13748:	00b6e6b3          	or	a3,a3,a1
   1374c:	00e8e733          	or	a4,a7,a4
   13750:	00a86533          	or	a0,a6,a0
   13754:	001c5c13          	srli	s8,s8,0x1
   13758:	04d12423          	sw	a3,72(sp)
   1375c:	04e12023          	sw	a4,64(sp)
   13760:	04a12223          	sw	a0,68(sp)
   13764:	05812623          	sw	s8,76(sp)
   13768:	fff60693          	addi	a3,a2,-1
   1376c:	82d784e3          	beq	a5,a3,12f94 <__subtf3+0x7f4>
   13770:	00777693          	andi	a3,a4,7
   13774:	b0dff06f          	j	13280 <__subtf3+0xae0>
   13778:	04d12023          	sw	a3,64(sp)
   1377c:	05412223          	sw	s4,68(sp)
   13780:	05712423          	sw	s7,72(sp)
   13784:	05612623          	sw	s6,76(sp)
   13788:	000b0c13          	mv	s8,s6
   1378c:	00040493          	mv	s1,s0
   13790:	c38ff06f          	j	12bc8 <__subtf3+0x428>
   13794:	41968cb3          	sub	s9,a3,s9
   13798:	41bb8db3          	sub	s11,s7,s11
   1379c:	412a0733          	sub	a4,s4,s2
   137a0:	0196b7b3          	sltu	a5,a3,s9
   137a4:	01bbbbb3          	sltu	s7,s7,s11
   137a8:	00ea35b3          	sltu	a1,s4,a4
   137ac:	40f707b3          	sub	a5,a4,a5
   137b0:	000b8513          	mv	a0,s7
   137b4:	0196f463          	bgeu	a3,s9,137bc <__subtf3+0x101c>
   137b8:	35490663          	beq	s2,s4,13b04 <__subtf3+0x1364>
   137bc:	40bd8db3          	sub	s11,s11,a1
   137c0:	34ea6463          	bltu	s4,a4,13b08 <__subtf3+0x1368>
   137c4:	418b0c33          	sub	s8,s6,s8
   137c8:	40ac0533          	sub	a0,s8,a0
   137cc:	04a12623          	sw	a0,76(sp)
   137d0:	05b12423          	sw	s11,72(sp)
   137d4:	04f12223          	sw	a5,68(sp)
   137d8:	05912023          	sw	s9,64(sp)
   137dc:	00040493          	mv	s1,s0
   137e0:	ff8ff06f          	j	12fd8 <__subtf3+0x838>
   137e4:	34071a63          	bnez	a4,13b38 <__subtf3+0x1398>
   137e8:	32060663          	beqz	a2,13b14 <__subtf3+0x1374>
   137ec:	04d12023          	sw	a3,64(sp)
   137f0:	05412223          	sw	s4,68(sp)
   137f4:	05712423          	sw	s7,72(sp)
   137f8:	05612623          	sw	s6,76(sp)
   137fc:	000b0c13          	mv	s8,s6
   13800:	00040493          	mv	s1,s0
   13804:	fff58793          	addi	a5,a1,-1
   13808:	bc0ff06f          	j	12bc8 <__subtf3+0x428>
   1380c:	00dc8733          	add	a4,s9,a3
   13810:	01973cb3          	sltu	s9,a4,s9
   13814:	01490a33          	add	s4,s2,s4
   13818:	019a0633          	add	a2,s4,s9
   1381c:	01963cb3          	sltu	s9,a2,s9
   13820:	012a3a33          	sltu	s4,s4,s2
   13824:	019a67b3          	or	a5,s4,s9
   13828:	017d8bb3          	add	s7,s11,s7
   1382c:	00fb86b3          	add	a3,s7,a5
   13830:	00f6b7b3          	sltu	a5,a3,a5
   13834:	01bbbbb3          	sltu	s7,s7,s11
   13838:	00fbe7b3          	or	a5,s7,a5
   1383c:	016c0b33          	add	s6,s8,s6
   13840:	01678b33          	add	s6,a5,s6
   13844:	04e12023          	sw	a4,64(sp)
   13848:	04c12223          	sw	a2,68(sp)
   1384c:	04d12423          	sw	a3,72(sp)
   13850:	05612623          	sw	s6,76(sp)
   13854:	00100d13          	li	s10,1
   13858:	eacff06f          	j	12f04 <__subtf3+0x764>
   1385c:	00000713          	li	a4,0
   13860:	00000413          	li	s0,0
   13864:	03010513          	addi	a0,sp,48
   13868:	cc0ff06f          	j	12d28 <__subtf3+0x588>
   1386c:	03c12683          	lw	a3,60(sp)
   13870:	00100713          	li	a4,1
   13874:	00f6d7b3          	srl	a5,a3,a5
   13878:	02f12823          	sw	a5,48(sp)
   1387c:	8fcff06f          	j	12978 <__subtf3+0x1d8>
   13880:	04c12783          	lw	a5,76(sp)
   13884:	00100693          	li	a3,1
   13888:	00b7d5b3          	srl	a1,a5,a1
   1388c:	04b12023          	sw	a1,64(sp)
   13890:	cddff06f          	j	1356c <__subtf3+0xdcc>
   13894:	40dc86b3          	sub	a3,s9,a3
   13898:	417d8633          	sub	a2,s11,s7
   1389c:	414905b3          	sub	a1,s2,s4
   138a0:	00dcb7b3          	sltu	a5,s9,a3
   138a4:	00cdbdb3          	sltu	s11,s11,a2
   138a8:	00b93733          	sltu	a4,s2,a1
   138ac:	40f587b3          	sub	a5,a1,a5
   138b0:	000d8513          	mv	a0,s11
   138b4:	00dcf463          	bgeu	s9,a3,138bc <__subtf3+0x111c>
   138b8:	0f490863          	beq	s2,s4,139a8 <__subtf3+0x1208>
   138bc:	40e60733          	sub	a4,a2,a4
   138c0:	0eb96663          	bltu	s2,a1,139ac <__subtf3+0x120c>
   138c4:	416c0c33          	sub	s8,s8,s6
   138c8:	40ac0c33          	sub	s8,s8,a0
   138cc:	05812623          	sw	s8,76(sp)
   138d0:	04e12423          	sw	a4,72(sp)
   138d4:	04f12223          	sw	a5,68(sp)
   138d8:	04d12023          	sw	a3,64(sp)
   138dc:	00100d13          	li	s10,1
   138e0:	a88ff06f          	j	12b68 <__subtf3+0x3c8>
   138e4:	fff70713          	addi	a4,a4,-1 # 7ffff <_stack+0x3ffff>
   138e8:	40cb8c33          	sub	s8,s7,a2
   138ec:	001c3c13          	seqz	s8,s8
   138f0:	01886c33          	or	s8,a6,s8
   138f4:	b29ff06f          	j	1341c <__subtf3+0xc7c>
   138f8:	00000413          	li	s0,0
   138fc:	00000613          	li	a2,0
   13900:	f9cff06f          	j	1309c <__subtf3+0x8fc>
   13904:	00271713          	slli	a4,a4,0x2
   13908:	05010613          	addi	a2,sp,80
   1390c:	00e60733          	add	a4,a2,a4
   13910:	fe072703          	lw	a4,-32(a4)
   13914:	02000313          	li	t1,32
   13918:	40f30333          	sub	t1,t1,a5
   1391c:	00671733          	sll	a4,a4,t1
   13920:	00e46433          	or	s0,s0,a4
   13924:	38068e63          	beqz	a3,13cc0 <__subtf3+0x1520>
   13928:	00281613          	slli	a2,a6,0x2
   1392c:	00269593          	slli	a1,a3,0x2
   13930:	00c50633          	add	a2,a0,a2
   13934:	00050713          	mv	a4,a0
   13938:	00b50e33          	add	t3,a0,a1
   1393c:	00062683          	lw	a3,0(a2)
   13940:	00462883          	lw	a7,4(a2)
   13944:	00470713          	addi	a4,a4,4
   13948:	00f6d6b3          	srl	a3,a3,a5
   1394c:	006898b3          	sll	a7,a7,t1
   13950:	0116e6b3          	or	a3,a3,a7
   13954:	fed72e23          	sw	a3,-4(a4)
   13958:	00460613          	addi	a2,a2,4
   1395c:	feee10e3          	bne	t3,a4,1393c <__subtf3+0x119c>
   13960:	05010713          	addi	a4,sp,80
   13964:	00b706b3          	add	a3,a4,a1
   13968:	03c12703          	lw	a4,60(sp)
   1396c:	00f757b3          	srl	a5,a4,a5
   13970:	00400713          	li	a4,4
   13974:	41070733          	sub	a4,a4,a6
   13978:	fef6a023          	sw	a5,-32(a3)
   1397c:	be8ff06f          	j	12d64 <__subtf3+0x5c4>
   13980:	04d12023          	sw	a3,64(sp)
   13984:	05412223          	sw	s4,68(sp)
   13988:	05712423          	sw	s7,72(sp)
   1398c:	05612623          	sw	s6,76(sp)
   13990:	000b0c13          	mv	s8,s6
   13994:	a34ff06f          	j	12bc8 <__subtf3+0x428>
   13998:	00000713          	li	a4,0
   1399c:	00000413          	li	s0,0
   139a0:	03010513          	addi	a0,sp,48
   139a4:	f91fe06f          	j	12934 <__subtf3+0x194>
   139a8:	fff60713          	addi	a4,a2,-1
   139ac:	00163613          	seqz	a2,a2
   139b0:	00cde533          	or	a0,s11,a2
   139b4:	f11ff06f          	j	138c4 <__subtf3+0x1124>
   139b8:	01b8d893          	srli	a7,a7,0x1b
   139bc:	00259613          	slli	a2,a1,0x2
   139c0:	011785b3          	add	a1,a5,a7
   139c4:	05010793          	addi	a5,sp,80
   139c8:	00c78633          	add	a2,a5,a2
   139cc:	fd062783          	lw	a5,-48(a2)
   139d0:	01f5f613          	andi	a2,a1,31
   139d4:	411608b3          	sub	a7,a2,a7
   139d8:	02000e93          	li	t4,32
   139dc:	411e8eb3          	sub	t4,t4,a7
   139e0:	01d797b3          	sll	a5,a5,t4
   139e4:	00f4e4b3          	or	s1,s1,a5
   139e8:	32080463          	beqz	a6,13d10 <__subtf3+0x1570>
   139ec:	00e80333          	add	t1,a6,a4
   139f0:	00271793          	slli	a5,a4,0x2
   139f4:	00231313          	slli	t1,t1,0x2
   139f8:	40e00f33          	neg	t5,a4
   139fc:	00f507b3          	add	a5,a0,a5
   13a00:	00650333          	add	t1,a0,t1
   13a04:	002f1f13          	slli	t5,t5,0x2
   13a08:	0007a603          	lw	a2,0(a5)
   13a0c:	0047a583          	lw	a1,4(a5)
   13a10:	01e78e33          	add	t3,a5,t5
   13a14:	01165633          	srl	a2,a2,a7
   13a18:	01d595b3          	sll	a1,a1,t4
   13a1c:	00b66633          	or	a2,a2,a1
   13a20:	00ce2023          	sw	a2,0(t3)
   13a24:	00478793          	addi	a5,a5,4
   13a28:	fef310e3          	bne	t1,a5,13a08 <__subtf3+0x1268>
   13a2c:	05010613          	addi	a2,sp,80
   13a30:	00281793          	slli	a5,a6,0x2
   13a34:	00f607b3          	add	a5,a2,a5
   13a38:	02c12603          	lw	a2,44(sp)
   13a3c:	011658b3          	srl	a7,a2,a7
   13a40:	00400613          	li	a2,4
   13a44:	40e60733          	sub	a4,a2,a4
   13a48:	fd17a823          	sw	a7,-48(a5)
   13a4c:	840ff06f          	j	12a8c <__subtf3+0x2ec>
   13a50:	1a079663          	bnez	a5,13bfc <__subtf3+0x145c>
   13a54:	04d12023          	sw	a3,64(sp)
   13a58:	05412223          	sw	s4,68(sp)
   13a5c:	05712423          	sw	s7,72(sp)
   13a60:	05612623          	sw	s6,76(sp)
   13a64:	000b0c13          	mv	s8,s6
   13a68:	fff60793          	addi	a5,a2,-1
   13a6c:	95cff06f          	j	12bc8 <__subtf3+0x428>
   13a70:	41968cb3          	sub	s9,a3,s9
   13a74:	41bb87b3          	sub	a5,s7,s11
   13a78:	412a0633          	sub	a2,s4,s2
   13a7c:	0196b733          	sltu	a4,a3,s9
   13a80:	00fbb533          	sltu	a0,s7,a5
   13a84:	00ca3833          	sltu	a6,s4,a2
   13a88:	40e60733          	sub	a4,a2,a4
   13a8c:	00050593          	mv	a1,a0
   13a90:	0196f463          	bgeu	a3,s9,13a98 <__subtf3+0x12f8>
   13a94:	1d490263          	beq	s2,s4,13c58 <__subtf3+0x14b8>
   13a98:	410787b3          	sub	a5,a5,a6
   13a9c:	1cca6063          	bltu	s4,a2,13c5c <__subtf3+0x14bc>
   13aa0:	418b0c33          	sub	s8,s6,s8
   13aa4:	40bc0c33          	sub	s8,s8,a1
   13aa8:	05812623          	sw	s8,76(sp)
   13aac:	04f12423          	sw	a5,72(sp)
   13ab0:	04e12223          	sw	a4,68(sp)
   13ab4:	05912023          	sw	s9,64(sp)
   13ab8:	00040493          	mv	s1,s0
   13abc:	00100d13          	li	s10,1
   13ac0:	8a8ff06f          	j	12b68 <__subtf3+0x3c8>
   13ac4:	04d12023          	sw	a3,64(sp)
   13ac8:	05412223          	sw	s4,68(sp)
   13acc:	05712423          	sw	s7,72(sp)
   13ad0:	05612623          	sw	s6,76(sp)
   13ad4:	9c0608e3          	beqz	a2,134a4 <__subtf3+0xd04>
   13ad8:	000b0c13          	mv	s8,s6
   13adc:	00040493          	mv	s1,s0
   13ae0:	8e8ff06f          	j	12bc8 <__subtf3+0x428>
   13ae4:	04d12023          	sw	a3,64(sp)
   13ae8:	05412223          	sw	s4,68(sp)
   13aec:	05712423          	sw	s7,72(sp)
   13af0:	05612623          	sw	s6,76(sp)
   13af4:	000b0c13          	mv	s8,s6
   13af8:	000a8793          	mv	a5,s5
   13afc:	00040493          	mv	s1,s0
   13b00:	8c8ff06f          	j	12bc8 <__subtf3+0x428>
   13b04:	fffd8d93          	addi	s11,s11,-1
   13b08:	00163513          	seqz	a0,a2
   13b0c:	00abe533          	or	a0,s7,a0
   13b10:	cb5ff06f          	j	137c4 <__subtf3+0x1024>
   13b14:	000407b7          	lui	a5,0x40
   13b18:	04f12623          	sw	a5,76(sp)
   13b1c:	04012423          	sw	zero,72(sp)
   13b20:	04012223          	sw	zero,68(sp)
   13b24:	04012023          	sw	zero,64(sp)
   13b28:	00000493          	li	s1,0
   13b2c:	00040c37          	lui	s8,0x40
   13b30:	fff58793          	addi	a5,a1,-1
   13b34:	894ff06f          	j	12bc8 <__subtf3+0x428>
   13b38:	fc061ee3          	bnez	a2,13b14 <__subtf3+0x1374>
   13b3c:	05912023          	sw	s9,64(sp)
   13b40:	05212223          	sw	s2,68(sp)
   13b44:	05b12423          	sw	s11,72(sp)
   13b48:	05812623          	sw	s8,76(sp)
   13b4c:	fff58793          	addi	a5,a1,-1
   13b50:	878ff06f          	j	12bc8 <__subtf3+0x428>
   13b54:	00000493          	li	s1,0
   13b58:	00000593          	li	a1,0
   13b5c:	02010513          	addi	a0,sp,32
   13b60:	ef5fe06f          	j	12a54 <__subtf3+0x2b4>
   13b64:	01b8d893          	srli	a7,a7,0x1b
   13b68:	00259613          	slli	a2,a1,0x2
   13b6c:	011785b3          	add	a1,a5,a7
   13b70:	05010793          	addi	a5,sp,80
   13b74:	00c78633          	add	a2,a5,a2
   13b78:	fd062783          	lw	a5,-48(a2)
   13b7c:	01f5f613          	andi	a2,a1,31
   13b80:	411608b3          	sub	a7,a2,a7
   13b84:	02000e13          	li	t3,32
   13b88:	411e0e33          	sub	t3,t3,a7
   13b8c:	01c797b3          	sll	a5,a5,t3
   13b90:	00f46433          	or	s0,s0,a5
   13b94:	1a080063          	beqz	a6,13d34 <__subtf3+0x1594>
   13b98:	00e80eb3          	add	t4,a6,a4
   13b9c:	00271793          	slli	a5,a4,0x2
   13ba0:	002e9e93          	slli	t4,t4,0x2
   13ba4:	40e00f33          	neg	t5,a4
   13ba8:	00f507b3          	add	a5,a0,a5
   13bac:	01d50eb3          	add	t4,a0,t4
   13bb0:	002f1f13          	slli	t5,t5,0x2
   13bb4:	0007a603          	lw	a2,0(a5) # 40000 <_stack>
   13bb8:	0047a583          	lw	a1,4(a5)
   13bbc:	01e78333          	add	t1,a5,t5
   13bc0:	01165633          	srl	a2,a2,a7
   13bc4:	01c595b3          	sll	a1,a1,t3
   13bc8:	00b66633          	or	a2,a2,a1
   13bcc:	00c32023          	sw	a2,0(t1)
   13bd0:	00478793          	addi	a5,a5,4
   13bd4:	fefe90e3          	bne	t4,a5,13bb4 <__subtf3+0x1414>
   13bd8:	05010613          	addi	a2,sp,80
   13bdc:	00281793          	slli	a5,a6,0x2
   13be0:	00f607b3          	add	a5,a2,a5
   13be4:	02c12603          	lw	a2,44(sp)
   13be8:	011658b3          	srl	a7,a2,a7
   13bec:	00400613          	li	a2,4
   13bf0:	40e60733          	sub	a4,a2,a4
   13bf4:	fd17a823          	sw	a7,-48(a5)
   13bf8:	df0ff06f          	j	131e8 <__subtf3+0xa48>
   13bfc:	017a6a33          	or	s4,s4,s7
   13c00:	00da66b3          	or	a3,s4,a3
   13c04:	0166eb33          	or	s6,a3,s6
   13c08:	0e0b1263          	bnez	s6,13cec <__subtf3+0x154c>
   13c0c:	05912023          	sw	s9,64(sp)
   13c10:	05212223          	sw	s2,68(sp)
   13c14:	05b12423          	sw	s11,72(sp)
   13c18:	05812623          	sw	s8,76(sp)
   13c1c:	fff60793          	addi	a5,a2,-1
   13c20:	fa9fe06f          	j	12bc8 <__subtf3+0x428>
   13c24:	00dc8733          	add	a4,s9,a3
   13c28:	00d736b3          	sltu	a3,a4,a3
   13c2c:	01490933          	add	s2,s2,s4
   13c30:	00d90633          	add	a2,s2,a3
   13c34:	00d636b3          	sltu	a3,a2,a3
   13c38:	01493933          	sltu	s2,s2,s4
   13c3c:	00d967b3          	or	a5,s2,a3
   13c40:	017d8db3          	add	s11,s11,s7
   13c44:	00fd86b3          	add	a3,s11,a5
   13c48:	00f6b7b3          	sltu	a5,a3,a5
   13c4c:	017dbdb3          	sltu	s11,s11,s7
   13c50:	00fde7b3          	or	a5,s11,a5
   13c54:	be9ff06f          	j	1383c <__subtf3+0x109c>
   13c58:	fff78793          	addi	a5,a5,-1
   13c5c:	417d85b3          	sub	a1,s11,s7
   13c60:	0015b593          	seqz	a1,a1
   13c64:	00b565b3          	or	a1,a0,a1
   13c68:	e39ff06f          	j	13aa0 <__subtf3+0x1300>
   13c6c:	00b766b3          	or	a3,a4,a1
   13c70:	0106e6b3          	or	a3,a3,a6
   13c74:	00a6e6b3          	or	a3,a3,a0
   13c78:	820686e3          	beqz	a3,134a4 <__subtf3+0xd04>
   13c7c:	00777693          	andi	a3,a4,7
   13c80:	00050c13          	mv	s8,a0
   13c84:	00000793          	li	a5,0
   13c88:	00068463          	beqz	a3,13c90 <__subtf3+0x14f0>
   13c8c:	efdfe06f          	j	12b88 <__subtf3+0x3e8>
   13c90:	f39fe06f          	j	12bc8 <__subtf3+0x428>
   13c94:	fff60813          	addi	a6,a2,-1
   13c98:	00163513          	seqz	a0,a2
   13c9c:	00a368b3          	or	a7,t1,a0
   13ca0:	96cff06f          	j	12e0c <__subtf3+0x66c>
   13ca4:	04d12023          	sw	a3,64(sp)
   13ca8:	05412223          	sw	s4,68(sp)
   13cac:	05712423          	sw	s7,72(sp)
   13cb0:	05612623          	sw	s6,76(sp)
   13cb4:	000b0c13          	mv	s8,s6
   13cb8:	000a8793          	mv	a5,s5
   13cbc:	f0dfe06f          	j	12bc8 <__subtf3+0x428>
   13cc0:	03c12683          	lw	a3,60(sp)
   13cc4:	00100713          	li	a4,1
   13cc8:	00f6d7b3          	srl	a5,a3,a5
   13ccc:	02f12823          	sw	a5,48(sp)
   13cd0:	89cff06f          	j	12d6c <__subtf3+0x5cc>
   13cd4:	04f12623          	sw	a5,76(sp)
   13cd8:	ea5fe06f          	j	12b7c <__subtf3+0x3dc>
   13cdc:	00000413          	li	s0,0
   13ce0:	00000593          	li	a1,0
   13ce4:	02010513          	addi	a0,sp,32
   13ce8:	cc8ff06f          	j	131b0 <__subtf3+0xa10>
   13cec:	000407b7          	lui	a5,0x40
   13cf0:	04f12623          	sw	a5,76(sp)
   13cf4:	04012423          	sw	zero,72(sp)
   13cf8:	04012223          	sw	zero,68(sp)
   13cfc:	04012023          	sw	zero,64(sp)
   13d00:	00000493          	li	s1,0
   13d04:	00040c37          	lui	s8,0x40
   13d08:	fff60793          	addi	a5,a2,-1
   13d0c:	ebdfe06f          	j	12bc8 <__subtf3+0x428>
   13d10:	02c12783          	lw	a5,44(sp)
   13d14:	00100713          	li	a4,1
   13d18:	0117d8b3          	srl	a7,a5,a7
   13d1c:	03112023          	sw	a7,32(sp)
   13d20:	d75fe06f          	j	12a94 <__subtf3+0x2f4>
   13d24:	fffd8d93          	addi	s11,s11,-1
   13d28:	00163793          	seqz	a5,a2
   13d2c:	00fbe7b3          	or	a5,s7,a5
   13d30:	930ff06f          	j	12e60 <__subtf3+0x6c0>
   13d34:	02c12783          	lw	a5,44(sp)
   13d38:	00100713          	li	a4,1
   13d3c:	0117d8b3          	srl	a7,a5,a7
   13d40:	03112023          	sw	a7,32(sp)
   13d44:	cacff06f          	j	131f0 <__subtf3+0xa50>

00013d48 <__fixtfsi>:
   13d48:	00c52783          	lw	a5,12(a0)
   13d4c:	00052583          	lw	a1,0(a0)
   13d50:	00852603          	lw	a2,8(a0)
   13d54:	00452503          	lw	a0,4(a0)
   13d58:	fe010113          	addi	sp,sp,-32
   13d5c:	00179693          	slli	a3,a5,0x1
   13d60:	00004737          	lui	a4,0x4
   13d64:	00b12023          	sw	a1,0(sp)
   13d68:	00a12223          	sw	a0,4(sp)
   13d6c:	00b12823          	sw	a1,16(sp)
   13d70:	00c12423          	sw	a2,8(sp)
   13d74:	00f12623          	sw	a5,12(sp)
   13d78:	00c12c23          	sw	a2,24(sp)
   13d7c:	0116d693          	srli	a3,a3,0x11
   13d80:	ffe70593          	addi	a1,a4,-2 # 3ffe <eshift.part.0+0x16a>
   13d84:	00000513          	li	a0,0
   13d88:	00d5de63          	bge	a1,a3,13da4 <__fixtfsi+0x5c>
   13d8c:	01d70593          	addi	a1,a4,29
   13d90:	01f7d813          	srli	a6,a5,0x1f
   13d94:	00d5dc63          	bge	a1,a3,13dac <__fixtfsi+0x64>
   13d98:	80000537          	lui	a0,0x80000
   13d9c:	fff54513          	not	a0,a0
   13da0:	00a80533          	add	a0,a6,a0
   13da4:	02010113          	addi	sp,sp,32
   13da8:	00008067          	ret
   13dac:	01079793          	slli	a5,a5,0x10
   13db0:	06f70713          	addi	a4,a4,111
   13db4:	40d70733          	sub	a4,a4,a3
   13db8:	0107d793          	srli	a5,a5,0x10
   13dbc:	000106b7          	lui	a3,0x10
   13dc0:	00d7e7b3          	or	a5,a5,a3
   13dc4:	01f77593          	andi	a1,a4,31
   13dc8:	02000693          	li	a3,32
   13dcc:	00f12e23          	sw	a5,28(sp)
   13dd0:	40575713          	srai	a4,a4,0x5
   13dd4:	40b686b3          	sub	a3,a3,a1
   13dd8:	04058663          	beqz	a1,13e24 <__fixtfsi+0xdc>
   13ddc:	00200513          	li	a0,2
   13de0:	04a71e63          	bne	a4,a0,13e3c <__fixtfsi+0xf4>
   13de4:	00d79733          	sll	a4,a5,a3
   13de8:	00b65633          	srl	a2,a2,a1
   13dec:	00e66633          	or	a2,a2,a4
   13df0:	00c12823          	sw	a2,16(sp)
   13df4:	00100713          	li	a4,1
   13df8:	00271713          	slli	a4,a4,0x2
   13dfc:	02010693          	addi	a3,sp,32
   13e00:	00e68733          	add	a4,a3,a4
   13e04:	00b7d7b3          	srl	a5,a5,a1
   13e08:	fef72823          	sw	a5,-16(a4)
   13e0c:	01012783          	lw	a5,16(sp)
   13e10:	40f00533          	neg	a0,a5
   13e14:	f80818e3          	bnez	a6,13da4 <__fixtfsi+0x5c>
   13e18:	00078513          	mv	a0,a5
   13e1c:	02010113          	addi	sp,sp,32
   13e20:	00008067          	ret
   13e24:	02010793          	addi	a5,sp,32
   13e28:	00271713          	slli	a4,a4,0x2
   13e2c:	00e78733          	add	a4,a5,a4
   13e30:	ff072783          	lw	a5,-16(a4)
   13e34:	00f12823          	sw	a5,16(sp)
   13e38:	fd5ff06f          	j	13e0c <__fixtfsi+0xc4>
   13e3c:	00000713          	li	a4,0
   13e40:	fb9ff06f          	j	13df8 <__fixtfsi+0xb0>

00013e44 <__floatsitf>:
   13e44:	fc010113          	addi	sp,sp,-64
   13e48:	03412423          	sw	s4,40(sp)
   13e4c:	02112e23          	sw	ra,60(sp)
   13e50:	02812c23          	sw	s0,56(sp)
   13e54:	02912a23          	sw	s1,52(sp)
   13e58:	03212823          	sw	s2,48(sp)
   13e5c:	03312623          	sw	s3,44(sp)
   13e60:	00050a13          	mv	s4,a0
   13e64:	06058a63          	beqz	a1,13ed8 <__floatsitf+0x94>
   13e68:	41f5d793          	srai	a5,a1,0x1f
   13e6c:	00b7c933          	xor	s2,a5,a1
   13e70:	40f90933          	sub	s2,s2,a5
   13e74:	00090513          	mv	a0,s2
   13e78:	01f5d493          	srli	s1,a1,0x1f
   13e7c:	67c000ef          	jal	ra,144f8 <__clzsi2>
   13e80:	05150713          	addi	a4,a0,81 # 80000051 <_stack+0x7ffc0051>
   13e84:	00004437          	lui	s0,0x4
   13e88:	01f77693          	andi	a3,a4,31
   13e8c:	01e40413          	addi	s0,s0,30 # 401e <eshift.part.0+0x18a>
   13e90:	01212823          	sw	s2,16(sp)
   13e94:	00012a23          	sw	zero,20(sp)
   13e98:	00012c23          	sw	zero,24(sp)
   13e9c:	00012e23          	sw	zero,28(sp)
   13ea0:	40a40433          	sub	s0,s0,a0
   13ea4:	40575713          	srai	a4,a4,0x5
   13ea8:	08068863          	beqz	a3,13f38 <__floatsitf+0xf4>
   13eac:	00200793          	li	a5,2
   13eb0:	0ef70463          	beq	a4,a5,13f98 <__floatsitf+0x154>
   13eb4:	00200613          	li	a2,2
   13eb8:	00300713          	li	a4,3
   13ebc:	00271713          	slli	a4,a4,0x2
   13ec0:	02010793          	addi	a5,sp,32
   13ec4:	00e78733          	add	a4,a5,a4
   13ec8:	00d91933          	sll	s2,s2,a3
   13ecc:	ff272823          	sw	s2,-16(a4)
   13ed0:	01c12983          	lw	s3,28(sp)
   13ed4:	0900006f          	j	13f64 <__floatsitf+0x120>
   13ed8:	00000493          	li	s1,0
   13edc:	00000793          	li	a5,0
   13ee0:	00000813          	li	a6,0
   13ee4:	00000713          	li	a4,0
   13ee8:	00000693          	li	a3,0
   13eec:	00000613          	li	a2,0
   13ef0:	00f49593          	slli	a1,s1,0xf
   13ef4:	00b7e7b3          	or	a5,a5,a1
   13ef8:	01011623          	sh	a6,12(sp)
   13efc:	00f11723          	sh	a5,14(sp)
   13f00:	00c12783          	lw	a5,12(sp)
   13f04:	03c12083          	lw	ra,60(sp)
   13f08:	03812403          	lw	s0,56(sp)
   13f0c:	00ca2023          	sw	a2,0(s4)
   13f10:	00da2223          	sw	a3,4(s4)
   13f14:	00ea2423          	sw	a4,8(s4)
   13f18:	00fa2623          	sw	a5,12(s4)
   13f1c:	03412483          	lw	s1,52(sp)
   13f20:	03012903          	lw	s2,48(sp)
   13f24:	02c12983          	lw	s3,44(sp)
   13f28:	000a0513          	mv	a0,s4
   13f2c:	02812a03          	lw	s4,40(sp)
   13f30:	04010113          	addi	sp,sp,64
   13f34:	00008067          	ret
   13f38:	00300793          	li	a5,3
   13f3c:	40e787b3          	sub	a5,a5,a4
   13f40:	02010693          	addi	a3,sp,32
   13f44:	00279793          	slli	a5,a5,0x2
   13f48:	00f687b3          	add	a5,a3,a5
   13f4c:	00200693          	li	a3,2
   13f50:	ff07a983          	lw	s3,-16(a5) # 3fff0 <_bss_end+0x1e72c>
   13f54:	00200613          	li	a2,2
   13f58:	00d71663          	bne	a4,a3,13f64 <__floatsitf+0x120>
   13f5c:	01212c23          	sw	s2,24(sp)
   13f60:	00100613          	li	a2,1
   13f64:	00160613          	addi	a2,a2,1
   13f68:	00261613          	slli	a2,a2,0x2
   13f6c:	00000593          	li	a1,0
   13f70:	01010513          	addi	a0,sp,16
   13f74:	be4f30ef          	jal	ra,7358 <memset>
   13f78:	01141793          	slli	a5,s0,0x11
   13f7c:	01099813          	slli	a6,s3,0x10
   13f80:	01012603          	lw	a2,16(sp)
   13f84:	01412683          	lw	a3,20(sp)
   13f88:	01812703          	lw	a4,24(sp)
   13f8c:	01085813          	srli	a6,a6,0x10
   13f90:	0117d793          	srli	a5,a5,0x11
   13f94:	f5dff06f          	j	13ef0 <__floatsitf+0xac>
   13f98:	02000793          	li	a5,32
   13f9c:	40d787b3          	sub	a5,a5,a3
   13fa0:	00f957b3          	srl	a5,s2,a5
   13fa4:	00f12e23          	sw	a5,28(sp)
   13fa8:	00100613          	li	a2,1
   13fac:	f11ff06f          	j	13ebc <__floatsitf+0x78>

00013fb0 <__extenddftf2>:
   13fb0:	01465793          	srli	a5,a2,0x14
   13fb4:	00c61713          	slli	a4,a2,0xc
   13fb8:	7ff7f793          	andi	a5,a5,2047
   13fbc:	fc010113          	addi	sp,sp,-64
   13fc0:	00c75713          	srli	a4,a4,0xc
   13fc4:	00178693          	addi	a3,a5,1
   13fc8:	02812c23          	sw	s0,56(sp)
   13fcc:	02912a23          	sw	s1,52(sp)
   13fd0:	03212823          	sw	s2,48(sp)
   13fd4:	02112e23          	sw	ra,60(sp)
   13fd8:	03312623          	sw	s3,44(sp)
   13fdc:	00b12823          	sw	a1,16(sp)
   13fe0:	00e12a23          	sw	a4,20(sp)
   13fe4:	00012e23          	sw	zero,28(sp)
   13fe8:	00012c23          	sw	zero,24(sp)
   13fec:	7fe6f693          	andi	a3,a3,2046
   13ff0:	00058413          	mv	s0,a1
   13ff4:	00050913          	mv	s2,a0
   13ff8:	01f65493          	srli	s1,a2,0x1f
   13ffc:	06068a63          	beqz	a3,14070 <__extenddftf2+0xc0>
   14000:	000046b7          	lui	a3,0x4
   14004:	c0068693          	addi	a3,a3,-1024 # 3c00 <m16m+0x3c>
   14008:	00d787b3          	add	a5,a5,a3
   1400c:	0045d613          	srli	a2,a1,0x4
   14010:	01c71693          	slli	a3,a4,0x1c
   14014:	01179793          	slli	a5,a5,0x11
   14018:	00c6e6b3          	or	a3,a3,a2
   1401c:	01c59413          	slli	s0,a1,0x1c
   14020:	00475713          	srli	a4,a4,0x4
   14024:	0117d793          	srli	a5,a5,0x11
   14028:	00000513          	li	a0,0
   1402c:	00f49613          	slli	a2,s1,0xf
   14030:	00c7e7b3          	or	a5,a5,a2
   14034:	00e11623          	sh	a4,12(sp)
   14038:	00f11723          	sh	a5,14(sp)
   1403c:	00c12783          	lw	a5,12(sp)
   14040:	00892223          	sw	s0,4(s2)
   14044:	03c12083          	lw	ra,60(sp)
   14048:	03812403          	lw	s0,56(sp)
   1404c:	00a92023          	sw	a0,0(s2)
   14050:	00d92423          	sw	a3,8(s2)
   14054:	00f92623          	sw	a5,12(s2)
   14058:	03412483          	lw	s1,52(sp)
   1405c:	02c12983          	lw	s3,44(sp)
   14060:	00090513          	mv	a0,s2
   14064:	03012903          	lw	s2,48(sp)
   14068:	04010113          	addi	sp,sp,64
   1406c:	00008067          	ret
   14070:	00b76533          	or	a0,a4,a1
   14074:	08079263          	bnez	a5,140f8 <__extenddftf2+0x148>
   14078:	0c050263          	beqz	a0,1413c <__extenddftf2+0x18c>
   1407c:	0c070a63          	beqz	a4,14150 <__extenddftf2+0x1a0>
   14080:	00070513          	mv	a0,a4
   14084:	474000ef          	jal	ra,144f8 <__clzsi2>
   14088:	03150613          	addi	a2,a0,49
   1408c:	01f67593          	andi	a1,a2,31
   14090:	00050993          	mv	s3,a0
   14094:	40565613          	srai	a2,a2,0x5
   14098:	0c058863          	beqz	a1,14168 <__extenddftf2+0x1b8>
   1409c:	40c00733          	neg	a4,a2
   140a0:	00271713          	slli	a4,a4,0x2
   140a4:	01010513          	addi	a0,sp,16
   140a8:	00c70713          	addi	a4,a4,12
   140ac:	02000313          	li	t1,32
   140b0:	40b30333          	sub	t1,t1,a1
   140b4:	00e50733          	add	a4,a0,a4
   140b8:	00261793          	slli	a5,a2,0x2
   140bc:	00072683          	lw	a3,0(a4)
   140c0:	ffc72803          	lw	a6,-4(a4)
   140c4:	00f708b3          	add	a7,a4,a5
   140c8:	00b696b3          	sll	a3,a3,a1
   140cc:	00685833          	srl	a6,a6,t1
   140d0:	0106e6b3          	or	a3,a3,a6
   140d4:	00d8a023          	sw	a3,0(a7) # 80000 <_stack+0x40000>
   140d8:	ffc70713          	addi	a4,a4,-4
   140dc:	fee510e3          	bne	a0,a4,140bc <__extenddftf2+0x10c>
   140e0:	fff60613          	addi	a2,a2,-1
   140e4:	02010713          	addi	a4,sp,32
   140e8:	00f707b3          	add	a5,a4,a5
   140ec:	00b415b3          	sll	a1,s0,a1
   140f0:	feb7a823          	sw	a1,-16(a5)
   140f4:	0a00006f          	j	14194 <__extenddftf2+0x1e4>
   140f8:	02050663          	beqz	a0,14124 <__extenddftf2+0x174>
   140fc:	000087b7          	lui	a5,0x8
   14100:	01c71693          	slli	a3,a4,0x1c
   14104:	0045d613          	srli	a2,a1,0x4
   14108:	00475713          	srli	a4,a4,0x4
   1410c:	00f76733          	or	a4,a4,a5
   14110:	00c6e6b3          	or	a3,a3,a2
   14114:	01c59413          	slli	s0,a1,0x1c
   14118:	fff78793          	addi	a5,a5,-1 # 7fff <__mdiff+0xfb>
   1411c:	00000513          	li	a0,0
   14120:	f0dff06f          	j	1402c <__extenddftf2+0x7c>
   14124:	000087b7          	lui	a5,0x8
   14128:	00000693          	li	a3,0
   1412c:	00000413          	li	s0,0
   14130:	fff78793          	addi	a5,a5,-1 # 7fff <__mdiff+0xfb>
   14134:	00000713          	li	a4,0
   14138:	ef5ff06f          	j	1402c <__extenddftf2+0x7c>
   1413c:	00000693          	li	a3,0
   14140:	00000413          	li	s0,0
   14144:	00000793          	li	a5,0
   14148:	00000713          	li	a4,0
   1414c:	ee1ff06f          	j	1402c <__extenddftf2+0x7c>
   14150:	3a8000ef          	jal	ra,144f8 <__clzsi2>
   14154:	05150613          	addi	a2,a0,81
   14158:	01f67593          	andi	a1,a2,31
   1415c:	02050993          	addi	s3,a0,32
   14160:	40565613          	srai	a2,a2,0x5
   14164:	06059463          	bnez	a1,141cc <__extenddftf2+0x21c>
   14168:	01010513          	addi	a0,sp,16
   1416c:	00261713          	slli	a4,a2,0x2
   14170:	40e50733          	sub	a4,a0,a4
   14174:	00010813          	mv	a6,sp
   14178:	00261593          	slli	a1,a2,0x2
   1417c:	00c72683          	lw	a3,12(a4)
   14180:	00b707b3          	add	a5,a4,a1
   14184:	ffc70713          	addi	a4,a4,-4
   14188:	00d7a623          	sw	a3,12(a5)
   1418c:	ff0718e3          	bne	a4,a6,1417c <__extenddftf2+0x1cc>
   14190:	fff60613          	addi	a2,a2,-1
   14194:	00160613          	addi	a2,a2,1
   14198:	00261613          	slli	a2,a2,0x2
   1419c:	00000593          	li	a1,0
   141a0:	9b8f30ef          	jal	ra,7358 <memset>
   141a4:	00004737          	lui	a4,0x4
   141a8:	c0c70713          	addi	a4,a4,-1012 # 3c0c <m16m+0x48>
   141ac:	413707b3          	sub	a5,a4,s3
   141b0:	01179793          	slli	a5,a5,0x11
   141b4:	01012503          	lw	a0,16(sp)
   141b8:	01412403          	lw	s0,20(sp)
   141bc:	01812683          	lw	a3,24(sp)
   141c0:	01c15703          	lhu	a4,28(sp)
   141c4:	0117d793          	srli	a5,a5,0x11
   141c8:	e65ff06f          	j	1402c <__extenddftf2+0x7c>
   141cc:	00200793          	li	a5,2
   141d0:	ecf606e3          	beq	a2,a5,1409c <__extenddftf2+0xec>
   141d4:	00200613          	li	a2,2
   141d8:	01010513          	addi	a0,sp,16
   141dc:	00c00793          	li	a5,12
   141e0:	f05ff06f          	j	140e4 <__extenddftf2+0x134>

000141e4 <__trunctfdf2>:
   141e4:	fe010113          	addi	sp,sp,-32
   141e8:	00812c23          	sw	s0,24(sp)
   141ec:	00c52403          	lw	s0,12(a0)
   141f0:	00052683          	lw	a3,0(a0)
   141f4:	00452703          	lw	a4,4(a0)
   141f8:	00852583          	lw	a1,8(a0)
   141fc:	00008537          	lui	a0,0x8
   14200:	01045613          	srli	a2,s0,0x10
   14204:	fff50793          	addi	a5,a0,-1 # 7fff <__mdiff+0xfb>
   14208:	01d6d813          	srli	a6,a3,0x1d
   1420c:	00f677b3          	and	a5,a2,a5
   14210:	00359313          	slli	t1,a1,0x3
   14214:	01d75613          	srli	a2,a4,0x1d
   14218:	01041893          	slli	a7,s0,0x10
   1421c:	00371713          	slli	a4,a4,0x3
   14220:	01076733          	or	a4,a4,a6
   14224:	0108d893          	srli	a7,a7,0x10
   14228:	00666633          	or	a2,a2,t1
   1422c:	00369693          	slli	a3,a3,0x3
   14230:	00178813          	addi	a6,a5,1
   14234:	ffe50513          	addi	a0,a0,-2
   14238:	01d5d593          	srli	a1,a1,0x1d
   1423c:	00389893          	slli	a7,a7,0x3
   14240:	00112e23          	sw	ra,28(sp)
   14244:	00912a23          	sw	s1,20(sp)
   14248:	00c12423          	sw	a2,8(sp)
   1424c:	00e12223          	sw	a4,4(sp)
   14250:	00d12023          	sw	a3,0(sp)
   14254:	00a87533          	and	a0,a6,a0
   14258:	01f45413          	srli	s0,s0,0x1f
   1425c:	0115e5b3          	or	a1,a1,a7
   14260:	04050863          	beqz	a0,142b0 <__trunctfdf2+0xcc>
   14264:	ffffc537          	lui	a0,0xffffc
   14268:	40050513          	addi	a0,a0,1024 # ffffc400 <_stack+0xfffbc400>
   1426c:	00a787b3          	add	a5,a5,a0
   14270:	7fe00513          	li	a0,2046
   14274:	08f55663          	bge	a0,a5,14300 <__trunctfdf2+0x11c>
   14278:	7ff00793          	li	a5,2047
   1427c:	00000693          	li	a3,0
   14280:	00000713          	li	a4,0
   14284:	01479793          	slli	a5,a5,0x14
   14288:	01f41413          	slli	s0,s0,0x1f
   1428c:	00d7e6b3          	or	a3,a5,a3
   14290:	01c12083          	lw	ra,28(sp)
   14294:	0086e6b3          	or	a3,a3,s0
   14298:	01812403          	lw	s0,24(sp)
   1429c:	01412483          	lw	s1,20(sp)
   142a0:	00070513          	mv	a0,a4
   142a4:	00068593          	mv	a1,a3
   142a8:	02010113          	addi	sp,sp,32
   142ac:	00008067          	ret
   142b0:	00c76733          	or	a4,a4,a2
   142b4:	00b76733          	or	a4,a4,a1
   142b8:	00d76733          	or	a4,a4,a3
   142bc:	02079663          	bnez	a5,142e8 <__trunctfdf2+0x104>
   142c0:	0c070e63          	beqz	a4,1439c <__trunctfdf2+0x1b8>
   142c4:	00000613          	li	a2,0
   142c8:	00500693          	li	a3,5
   142cc:	0036d593          	srli	a1,a3,0x3
   142d0:	01d61713          	slli	a4,a2,0x1d
   142d4:	00961693          	slli	a3,a2,0x9
   142d8:	00b76733          	or	a4,a4,a1
   142dc:	00c6d693          	srli	a3,a3,0xc
   142e0:	7ff7f793          	andi	a5,a5,2047
   142e4:	fa1ff06f          	j	14284 <__trunctfdf2+0xa0>
   142e8:	f80708e3          	beqz	a4,14278 <__trunctfdf2+0x94>
   142ec:	00000413          	li	s0,0
   142f0:	7ff00793          	li	a5,2047
   142f4:	000806b7          	lui	a3,0x80
   142f8:	00000713          	li	a4,0
   142fc:	f89ff06f          	j	14284 <__trunctfdf2+0xa0>
   14300:	0af04463          	bgtz	a5,143a8 <__trunctfdf2+0x1c4>
   14304:	fcc00713          	li	a4,-52
   14308:	12e7c063          	blt	a5,a4,14428 <__trunctfdf2+0x244>
   1430c:	03d00713          	li	a4,61
   14310:	40f707b3          	sub	a5,a4,a5
   14314:	4057d513          	srai	a0,a5,0x5
   14318:	00080737          	lui	a4,0x80
   1431c:	00e5e5b3          	or	a1,a1,a4
   14320:	00251813          	slli	a6,a0,0x2
   14324:	00010713          	mv	a4,sp
   14328:	00000493          	li	s1,0
   1432c:	00b12623          	sw	a1,12(sp)
   14330:	010108b3          	add	a7,sp,a6
   14334:	00470713          	addi	a4,a4,4 # 80004 <_stack+0x40004>
   14338:	00010613          	mv	a2,sp
   1433c:	00d4e4b3          	or	s1,s1,a3
   14340:	00e88a63          	beq	a7,a4,14354 <__trunctfdf2+0x170>
   14344:	00072683          	lw	a3,0(a4)
   14348:	00470713          	addi	a4,a4,4
   1434c:	00d4e4b3          	or	s1,s1,a3
   14350:	fee89ae3          	bne	a7,a4,14344 <__trunctfdf2+0x160>
   14354:	00300713          	li	a4,3
   14358:	01f7f793          	andi	a5,a5,31
   1435c:	40a70733          	sub	a4,a4,a0
   14360:	0e079863          	bnez	a5,14450 <__trunctfdf2+0x26c>
   14364:	0008a683          	lw	a3,0(a7)
   14368:	00178793          	addi	a5,a5,1
   1436c:	00460613          	addi	a2,a2,4
   14370:	fed62e23          	sw	a3,-4(a2)
   14374:	00f74e63          	blt	a4,a5,14390 <__trunctfdf2+0x1ac>
   14378:	00c808b3          	add	a7,a6,a2
   1437c:	0008a683          	lw	a3,0(a7)
   14380:	00178793          	addi	a5,a5,1
   14384:	00460613          	addi	a2,a2,4
   14388:	fed62e23          	sw	a3,-4(a2)
   1438c:	fef756e3          	bge	a4,a5,14378 <__trunctfdf2+0x194>
   14390:	00400793          	li	a5,4
   14394:	40a78533          	sub	a0,a5,a0
   14398:	1200006f          	j	144b8 <__trunctfdf2+0x2d4>
   1439c:	00000793          	li	a5,0
   143a0:	00000693          	li	a3,0
   143a4:	ee1ff06f          	j	14284 <__trunctfdf2+0xa0>
   143a8:	00471513          	slli	a0,a4,0x4
   143ac:	00d56533          	or	a0,a0,a3
   143b0:	00461813          	slli	a6,a2,0x4
   143b4:	01c75693          	srli	a3,a4,0x1c
   143b8:	01c65613          	srli	a2,a2,0x1c
   143bc:	00459593          	slli	a1,a1,0x4
   143c0:	00a03733          	snez	a4,a0
   143c4:	0106e6b3          	or	a3,a3,a6
   143c8:	00b66633          	or	a2,a2,a1
   143cc:	00d76733          	or	a4,a4,a3
   143d0:	00777693          	andi	a3,a4,7
   143d4:	00068863          	beqz	a3,143e4 <__trunctfdf2+0x200>
   143d8:	00f77693          	andi	a3,a4,15
   143dc:	00400593          	li	a1,4
   143e0:	04b69a63          	bne	a3,a1,14434 <__trunctfdf2+0x250>
   143e4:	008005b7          	lui	a1,0x800
   143e8:	00b675b3          	and	a1,a2,a1
   143ec:	00070693          	mv	a3,a4
   143f0:	ec058ee3          	beqz	a1,142cc <__trunctfdf2+0xe8>
   143f4:	00178793          	addi	a5,a5,1
   143f8:	7ff00713          	li	a4,2047
   143fc:	e6e78ee3          	beq	a5,a4,14278 <__trunctfdf2+0x94>
   14400:	ff800737          	lui	a4,0xff800
   14404:	fff70713          	addi	a4,a4,-1 # ff7fffff <_stack+0xff7bffff>
   14408:	00e67633          	and	a2,a2,a4
   1440c:	0036d693          	srli	a3,a3,0x3
   14410:	01d61713          	slli	a4,a2,0x1d
   14414:	00961613          	slli	a2,a2,0x9
   14418:	00d76733          	or	a4,a4,a3
   1441c:	7ff7f793          	andi	a5,a5,2047
   14420:	00c65693          	srli	a3,a2,0xc
   14424:	e61ff06f          	j	14284 <__trunctfdf2+0xa0>
   14428:	00000793          	li	a5,0
   1442c:	00100713          	li	a4,1
   14430:	00000613          	li	a2,0
   14434:	ffc73693          	sltiu	a3,a4,-4
   14438:	0016c693          	xori	a3,a3,1
   1443c:	00d60633          	add	a2,a2,a3
   14440:	008005b7          	lui	a1,0x800
   14444:	00470693          	addi	a3,a4,4
   14448:	00b675b3          	and	a1,a2,a1
   1444c:	fa5ff06f          	j	143f0 <__trunctfdf2+0x20c>
   14450:	01010693          	addi	a3,sp,16
   14454:	010686b3          	add	a3,a3,a6
   14458:	ff06a683          	lw	a3,-16(a3) # 7fff0 <_stack+0x3fff0>
   1445c:	02000313          	li	t1,32
   14460:	40f30333          	sub	t1,t1,a5
   14464:	006696b3          	sll	a3,a3,t1
   14468:	00d4e4b3          	or	s1,s1,a3
   1446c:	08070063          	beqz	a4,144ec <__trunctfdf2+0x308>
   14470:	00271693          	slli	a3,a4,0x2
   14474:	00d10e33          	add	t3,sp,a3
   14478:	01010733          	add	a4,sp,a6
   1447c:	00072803          	lw	a6,0(a4)
   14480:	00472883          	lw	a7,4(a4)
   14484:	00460613          	addi	a2,a2,4
   14488:	00f85833          	srl	a6,a6,a5
   1448c:	006898b3          	sll	a7,a7,t1
   14490:	01186833          	or	a6,a6,a7
   14494:	ff062e23          	sw	a6,-4(a2)
   14498:	00470713          	addi	a4,a4,4
   1449c:	fece10e3          	bne	t3,a2,1447c <__trunctfdf2+0x298>
   144a0:	00400713          	li	a4,4
   144a4:	40a70533          	sub	a0,a4,a0
   144a8:	01010713          	addi	a4,sp,16
   144ac:	00d70733          	add	a4,a4,a3
   144b0:	00f5d5b3          	srl	a1,a1,a5
   144b4:	feb72823          	sw	a1,-16(a4)
   144b8:	00400613          	li	a2,4
   144bc:	40a60633          	sub	a2,a2,a0
   144c0:	00251513          	slli	a0,a0,0x2
   144c4:	00261613          	slli	a2,a2,0x2
   144c8:	00000593          	li	a1,0
   144cc:	00a10533          	add	a0,sp,a0
   144d0:	e89f20ef          	jal	ra,7358 <memset>
   144d4:	00012683          	lw	a3,0(sp)
   144d8:	00903733          	snez	a4,s1
   144dc:	00412603          	lw	a2,4(sp)
   144e0:	00d76733          	or	a4,a4,a3
   144e4:	00000793          	li	a5,0
   144e8:	ee9ff06f          	j	143d0 <__trunctfdf2+0x1ec>
   144ec:	00100513          	li	a0,1
   144f0:	00000693          	li	a3,0
   144f4:	fb5ff06f          	j	144a8 <__trunctfdf2+0x2c4>

000144f8 <__clzsi2>:
   144f8:	000107b7          	lui	a5,0x10
   144fc:	02f57463          	bgeu	a0,a5,14524 <__clzsi2+0x2c>
   14500:	0ff00793          	li	a5,255
   14504:	02000713          	li	a4,32
   14508:	06a7e263          	bltu	a5,a0,1456c <__clzsi2+0x74>
   1450c:	0000d797          	auipc	a5,0xd
   14510:	8d878793          	addi	a5,a5,-1832 # 20de4 <__clz_tab>
   14514:	00a78533          	add	a0,a5,a0
   14518:	00054503          	lbu	a0,0(a0)
   1451c:	40a70533          	sub	a0,a4,a0
   14520:	00008067          	ret
   14524:	010007b7          	lui	a5,0x1000
   14528:	02f57263          	bgeu	a0,a5,1454c <__clzsi2+0x54>
   1452c:	0000d797          	auipc	a5,0xd
   14530:	8b878793          	addi	a5,a5,-1864 # 20de4 <__clz_tab>
   14534:	01055513          	srli	a0,a0,0x10
   14538:	00a78533          	add	a0,a5,a0
   1453c:	00054503          	lbu	a0,0(a0)
   14540:	01000713          	li	a4,16
   14544:	40a70533          	sub	a0,a4,a0
   14548:	00008067          	ret
   1454c:	0000d797          	auipc	a5,0xd
   14550:	89878793          	addi	a5,a5,-1896 # 20de4 <__clz_tab>
   14554:	01855513          	srli	a0,a0,0x18
   14558:	00a78533          	add	a0,a5,a0
   1455c:	00054503          	lbu	a0,0(a0)
   14560:	00800713          	li	a4,8
   14564:	40a70533          	sub	a0,a4,a0
   14568:	00008067          	ret
   1456c:	0000d797          	auipc	a5,0xd
   14570:	87878793          	addi	a5,a5,-1928 # 20de4 <__clz_tab>
   14574:	00855513          	srli	a0,a0,0x8
   14578:	00a78533          	add	a0,a5,a0
   1457c:	00054503          	lbu	a0,0(a0)
   14580:	01800713          	li	a4,24
   14584:	40a70533          	sub	a0,a4,a0
   14588:	00008067          	ret
   1458c:	0000                	unimp
	...

00014590 <trap_handler>:
   14590:	0400006f          	j	145d0 <_trap_handler>
   14594:	03c0006f          	j	145d0 <_trap_handler>
   14598:	0380006f          	j	145d0 <_trap_handler>
   1459c:	1a40006f          	j	14740 <_trap_ebreak>
   145a0:	0300006f          	j	145d0 <_trap_handler>
   145a4:	02c0006f          	j	145d0 <_trap_handler>
   145a8:	0280006f          	j	145d0 <_trap_handler>
   145ac:	0240006f          	j	145d0 <_trap_handler>
   145b0:	0000006f          	j	145b0 <trap_handler+0x20>
   145b4:	0000006f          	j	145b4 <trap_handler+0x24>
   145b8:	0000006f          	j	145b8 <trap_handler+0x28>
   145bc:	0cc0006f          	j	14688 <_trap_ecall>
   145c0:	0000006f          	j	145c0 <trap_handler+0x30>
   145c4:	0000006f          	j	145c4 <trap_handler+0x34>
   145c8:	0000006f          	j	145c8 <trap_handler+0x38>
   145cc:	0000006f          	j	145cc <trap_handler+0x3c>

000145d0 <_trap_handler>:
   145d0:	fb010113          	addi	sp,sp,-80
   145d4:	04112623          	sw	ra,76(sp)
   145d8:	04512423          	sw	t0,72(sp)
   145dc:	04612223          	sw	t1,68(sp)
   145e0:	04712023          	sw	t2,64(sp)
   145e4:	02812e23          	sw	s0,60(sp)
   145e8:	02a12c23          	sw	a0,56(sp)
   145ec:	02b12a23          	sw	a1,52(sp)
   145f0:	02c12823          	sw	a2,48(sp)
   145f4:	02d12623          	sw	a3,44(sp)
   145f8:	02e12423          	sw	a4,40(sp)
   145fc:	02f12223          	sw	a5,36(sp)
   14600:	03012023          	sw	a6,32(sp)
   14604:	01112e23          	sw	a7,28(sp)
   14608:	01c12c23          	sw	t3,24(sp)
   1460c:	01d12a23          	sw	t4,20(sp)
   14610:	01e12823          	sw	t5,16(sp)
   14614:	01f12623          	sw	t6,12(sp)
   14618:	05010413          	addi	s0,sp,80
   1461c:	00000793          	li	a5,0
   14620:	00078863          	beqz	a5,14630 <_trap_handler+0x60>
   14624:	00000097          	auipc	ra,0x0
   14628:	000000e7          	jalr	zero # 0 <_start>
   1462c:	0100006f          	j	1463c <_trap_handler+0x6c>
   14630:	34102f73          	csrr	t5,mepc
   14634:	004f0f13          	addi	t5,t5,4 # 10004 <__udivdi3+0x3b8>
   14638:	341f1073          	csrw	mepc,t5
   1463c:	04c12083          	lw	ra,76(sp)
   14640:	04812283          	lw	t0,72(sp)
   14644:	04412303          	lw	t1,68(sp)
   14648:	04012383          	lw	t2,64(sp)
   1464c:	03c12403          	lw	s0,60(sp)
   14650:	03812503          	lw	a0,56(sp)
   14654:	03412583          	lw	a1,52(sp)
   14658:	03012603          	lw	a2,48(sp)
   1465c:	02c12683          	lw	a3,44(sp)
   14660:	02812703          	lw	a4,40(sp)
   14664:	02412783          	lw	a5,36(sp)
   14668:	02012803          	lw	a6,32(sp)
   1466c:	01c12883          	lw	a7,28(sp)
   14670:	01812e03          	lw	t3,24(sp)
   14674:	01412e83          	lw	t4,20(sp)
   14678:	01012f03          	lw	t5,16(sp)
   1467c:	00c12f83          	lw	t6,12(sp)
   14680:	05010113          	addi	sp,sp,80
   14684:	30200073          	mret

00014688 <_trap_ecall>:
   14688:	fb010113          	addi	sp,sp,-80
   1468c:	04112623          	sw	ra,76(sp)
   14690:	04512423          	sw	t0,72(sp)
   14694:	04612223          	sw	t1,68(sp)
   14698:	04712023          	sw	t2,64(sp)
   1469c:	02812e23          	sw	s0,60(sp)
   146a0:	02a12c23          	sw	a0,56(sp)
   146a4:	02b12a23          	sw	a1,52(sp)
   146a8:	02c12823          	sw	a2,48(sp)
   146ac:	02d12623          	sw	a3,44(sp)
   146b0:	02e12423          	sw	a4,40(sp)
   146b4:	02f12223          	sw	a5,36(sp)
   146b8:	03012023          	sw	a6,32(sp)
   146bc:	01112e23          	sw	a7,28(sp)
   146c0:	01c12c23          	sw	t3,24(sp)
   146c4:	01d12a23          	sw	t4,20(sp)
   146c8:	01e12823          	sw	t5,16(sp)
   146cc:	01f12623          	sw	t6,12(sp)
   146d0:	05010413          	addi	s0,sp,80
   146d4:	00000793          	li	a5,0
   146d8:	00078863          	beqz	a5,146e8 <_trap_ecall+0x60>
   146dc:	00000097          	auipc	ra,0x0
   146e0:	000000e7          	jalr	zero # 0 <_start>
   146e4:	0100006f          	j	146f4 <_trap_ecall+0x6c>
   146e8:	34102f73          	csrr	t5,mepc
   146ec:	004f0f13          	addi	t5,t5,4
   146f0:	341f1073          	csrw	mepc,t5
   146f4:	04c12083          	lw	ra,76(sp)
   146f8:	04812283          	lw	t0,72(sp)
   146fc:	04412303          	lw	t1,68(sp)
   14700:	04012383          	lw	t2,64(sp)
   14704:	03c12403          	lw	s0,60(sp)
   14708:	03812503          	lw	a0,56(sp)
   1470c:	03412583          	lw	a1,52(sp)
   14710:	03012603          	lw	a2,48(sp)
   14714:	02c12683          	lw	a3,44(sp)
   14718:	02812703          	lw	a4,40(sp)
   1471c:	02412783          	lw	a5,36(sp)
   14720:	02012803          	lw	a6,32(sp)
   14724:	01c12883          	lw	a7,28(sp)
   14728:	01812e03          	lw	t3,24(sp)
   1472c:	01412e83          	lw	t4,20(sp)
   14730:	01012f03          	lw	t5,16(sp)
   14734:	00c12f83          	lw	t6,12(sp)
   14738:	05010113          	addi	sp,sp,80
   1473c:	30200073          	mret

00014740 <_trap_ebreak>:
   14740:	fb010113          	addi	sp,sp,-80
   14744:	04112623          	sw	ra,76(sp)
   14748:	04512423          	sw	t0,72(sp)
   1474c:	04612223          	sw	t1,68(sp)
   14750:	04712023          	sw	t2,64(sp)
   14754:	02812e23          	sw	s0,60(sp)
   14758:	02a12c23          	sw	a0,56(sp)
   1475c:	02b12a23          	sw	a1,52(sp)
   14760:	02c12823          	sw	a2,48(sp)
   14764:	02d12623          	sw	a3,44(sp)
   14768:	02e12423          	sw	a4,40(sp)
   1476c:	02f12223          	sw	a5,36(sp)
   14770:	03012023          	sw	a6,32(sp)
   14774:	01112e23          	sw	a7,28(sp)
   14778:	01c12c23          	sw	t3,24(sp)
   1477c:	01d12a23          	sw	t4,20(sp)
   14780:	01e12823          	sw	t5,16(sp)
   14784:	01f12623          	sw	t6,12(sp)
   14788:	05010413          	addi	s0,sp,80
   1478c:	00000793          	li	a5,0
   14790:	00078863          	beqz	a5,147a0 <_trap_ebreak+0x60>
   14794:	00000097          	auipc	ra,0x0
   14798:	000000e7          	jalr	zero # 0 <_start>
   1479c:	0100006f          	j	147ac <_trap_ebreak+0x6c>
   147a0:	34102f73          	csrr	t5,mepc
   147a4:	004f0f13          	addi	t5,t5,4
   147a8:	341f1073          	csrw	mepc,t5
   147ac:	04c12083          	lw	ra,76(sp)
   147b0:	04812283          	lw	t0,72(sp)
   147b4:	04412303          	lw	t1,68(sp)
   147b8:	04012383          	lw	t2,64(sp)
   147bc:	03c12403          	lw	s0,60(sp)
   147c0:	03812503          	lw	a0,56(sp)
   147c4:	03412583          	lw	a1,52(sp)
   147c8:	03012603          	lw	a2,48(sp)
   147cc:	02c12683          	lw	a3,44(sp)
   147d0:	02812703          	lw	a4,40(sp)
   147d4:	02412783          	lw	a5,36(sp)
   147d8:	02012803          	lw	a6,32(sp)
   147dc:	01c12883          	lw	a7,28(sp)
   147e0:	01812e03          	lw	t3,24(sp)
   147e4:	01412e83          	lw	t4,20(sp)
   147e8:	01012f03          	lw	t5,16(sp)
   147ec:	00c12f83          	lw	t6,12(sp)
   147f0:	05010113          	addi	sp,sp,80
   147f4:	30200073          	mret

000147f8 <_putchar>:
   147f8:	900007b7          	lui	a5,0x90000
   147fc:	00a78e23          	sb	a0,28(a5) # 9000001c <_stack+0x8ffc001c>
   14800:	00000513          	li	a0,0
   14804:	00008067          	ret

00014808 <_getchar>:
   14808:	900007b7          	lui	a5,0x90000
   1480c:	0207c503          	lbu	a0,32(a5) # 90000020 <_stack+0x8ffc0020>
   14810:	0ff57513          	zext.b	a0,a0
   14814:	00008067          	ret

00014818 <_open>:
   14818:	fff00513          	li	a0,-1
   1481c:	00008067          	ret

00014820 <_write>:
   14820:	00060513          	mv	a0,a2
   14824:	02060063          	beqz	a2,14844 <_write+0x24>
   14828:	00058793          	mv	a5,a1
   1482c:	00c585b3          	add	a1,a1,a2
   14830:	900006b7          	lui	a3,0x90000
   14834:	0007c703          	lbu	a4,0(a5)
   14838:	00e68e23          	sb	a4,28(a3) # 9000001c <_stack+0x8ffc001c>
   1483c:	00178793          	addi	a5,a5,1
   14840:	feb79ae3          	bne	a5,a1,14834 <_write+0x14>
   14844:	00008067          	ret

00014848 <_fstat>:
   14848:	fff00513          	li	a0,-1
   1484c:	00008067          	ret

00014850 <_close>:
   14850:	fff00513          	li	a0,-1
   14854:	00008067          	ret

00014858 <_lseek>:
   14858:	fff00513          	li	a0,-1
   1485c:	00008067          	ret

00014860 <_read>:
   14860:	00060513          	mv	a0,a2
   14864:	00000713          	li	a4,0
   14868:	90000637          	lui	a2,0x90000
   1486c:	00a00813          	li	a6,10
   14870:	02064783          	lbu	a5,32(a2) # 90000020 <_stack+0x8ffc0020>
   14874:	0ff7f793          	zext.b	a5,a5
   14878:	00e586b3          	add	a3,a1,a4
   1487c:	00f68023          	sb	a5,0(a3)
   14880:	00170713          	addi	a4,a4,1
   14884:	00a75463          	bge	a4,a0,1488c <_read+0x2c>
   14888:	ff0794e3          	bne	a5,a6,14870 <_read+0x10>
   1488c:	00008067          	ret

00014890 <_exit>:
   14890:	0ff57793          	zext.b	a5,a0
   14894:	90000737          	lui	a4,0x90000
   14898:	02f70623          	sb	a5,44(a4) # 9000002c <_stack+0x8ffc002c>
   1489c:	0000006f          	j	1489c <_exit+0xc>

000148a0 <exit>:
   148a0:	0ff57793          	zext.b	a5,a0
   148a4:	90000737          	lui	a4,0x90000
   148a8:	02f70623          	sb	a5,44(a4) # 9000002c <_stack+0x8ffc002c>
   148ac:	0000006f          	j	148ac <exit+0xc>

000148b0 <_isatty>:
   148b0:	00353513          	sltiu	a0,a0,3
   148b4:	00008067          	ret

000148b8 <_sbrk>:
   148b8:	00050793          	mv	a5,a0
   148bc:	00022737          	lui	a4,0x22
   148c0:	89872703          	lw	a4,-1896(a4) # 21898 <heap_ptr>
   148c4:	02070463          	beqz	a4,148ec <_sbrk+0x34>
   148c8:	00022737          	lui	a4,0x22
   148cc:	89872503          	lw	a0,-1896(a4) # 21898 <heap_ptr>
   148d0:	00f507b3          	add	a5,a0,a5
   148d4:	00040737          	lui	a4,0x40
   148d8:	00070713          	mv	a4,a4
   148dc:	02e7d263          	bge	a5,a4,14900 <_sbrk+0x48>
   148e0:	00022737          	lui	a4,0x22
   148e4:	88f72c23          	sw	a5,-1896(a4) # 21898 <heap_ptr>
   148e8:	00008067          	ret
   148ec:	000226b7          	lui	a3,0x22
   148f0:	00022737          	lui	a4,0x22
   148f4:	8c470713          	addi	a4,a4,-1852 # 218c4 <_bss_end>
   148f8:	88e6ac23          	sw	a4,-1896(a3) # 21898 <heap_ptr>
   148fc:	fcdff06f          	j	148c8 <_sbrk+0x10>
   14900:	00000513          	li	a0,0
   14904:	00008067          	ret

00014908 <_kill>:
   14908:	fff00513          	li	a0,-1
   1490c:	00008067          	ret

00014910 <_getpid>:
   14910:	00000513          	li	a0,0
   14914:	00008067          	ret
